
G431CB_Neopixel.elf:     file format elf32-littlearm

Sections:
Idx Name          Size      VMA       LMA       File off  Algn
  0 .isr_vector   000001d8  08000000  08000000  00010000  2**0
                  CONTENTS, ALLOC, LOAD, READONLY, DATA
  1 .text         00008068  080001d8  080001d8  000101d8  2**2
                  CONTENTS, ALLOC, LOAD, READONLY, CODE
  2 .rodata       00000058  08008240  08008240  00018240  2**2
                  CONTENTS, ALLOC, LOAD, READONLY, DATA
  3 .ARM.extab    00000000  08008298  08008298  00020180  2**0
                  CONTENTS
  4 .ARM          00000000  08008298  08008298  00020180  2**0
                  CONTENTS
  5 .preinit_array 00000000  08008298  08008298  00020180  2**0
                  CONTENTS, ALLOC, LOAD, DATA
  6 .init_array   00000004  08008298  08008298  00018298  2**2
                  CONTENTS, ALLOC, LOAD, DATA
  7 .fini_array   00000004  0800829c  0800829c  0001829c  2**2
                  CONTENTS, ALLOC, LOAD, DATA
  8 .data         00000180  20000000  080082a0  00020000  2**2
                  CONTENTS, ALLOC, LOAD, DATA
  9 .bss          00002644  20000180  08008420  00020180  2**2
                  ALLOC
 10 ._user_heap_stack 00000604  200027c4  08008420  000227c4  2**0
                  ALLOC
 11 .ARM.attributes 00000030  00000000  00000000  00020180  2**0
                  CONTENTS, READONLY
 12 .debug_info   0001dcc5  00000000  00000000  000201b0  2**0
                  CONTENTS, READONLY, DEBUGGING
 13 .debug_abbrev 00003a87  00000000  00000000  0003de75  2**0
                  CONTENTS, READONLY, DEBUGGING
 14 .debug_aranges 00001650  00000000  00000000  00041900  2**3
                  CONTENTS, READONLY, DEBUGGING
 15 .debug_ranges 000014a8  00000000  00000000  00042f50  2**3
                  CONTENTS, READONLY, DEBUGGING
 16 .debug_macro  00021449  00000000  00000000  000443f8  2**0
                  CONTENTS, READONLY, DEBUGGING
 17 .debug_line   00014301  00000000  00000000  00065841  2**0
                  CONTENTS, READONLY, DEBUGGING
 18 .debug_str    000c7da3  00000000  00000000  00079b42  2**0
                  CONTENTS, READONLY, DEBUGGING
 19 .comment      0000007b  00000000  00000000  001418e5  2**0
                  CONTENTS, READONLY
 20 .debug_frame  00005d20  00000000  00000000  00141960  2**2
                  CONTENTS, READONLY, DEBUGGING

Disassembly of section .text:

080001d8 <__do_global_dtors_aux>:
 80001d8:	b510      	push	{r4, lr}
 80001da:	4c05      	ldr	r4, [pc, #20]	; (80001f0 <__do_global_dtors_aux+0x18>)
 80001dc:	7823      	ldrb	r3, [r4, #0]
 80001de:	b933      	cbnz	r3, 80001ee <__do_global_dtors_aux+0x16>
 80001e0:	4b04      	ldr	r3, [pc, #16]	; (80001f4 <__do_global_dtors_aux+0x1c>)
 80001e2:	b113      	cbz	r3, 80001ea <__do_global_dtors_aux+0x12>
 80001e4:	4804      	ldr	r0, [pc, #16]	; (80001f8 <__do_global_dtors_aux+0x20>)
 80001e6:	f3af 8000 	nop.w
 80001ea:	2301      	movs	r3, #1
 80001ec:	7023      	strb	r3, [r4, #0]
 80001ee:	bd10      	pop	{r4, pc}
 80001f0:	20000180 	.word	0x20000180
 80001f4:	00000000 	.word	0x00000000
 80001f8:	08008228 	.word	0x08008228

080001fc <frame_dummy>:
 80001fc:	b508      	push	{r3, lr}
 80001fe:	4b03      	ldr	r3, [pc, #12]	; (800020c <frame_dummy+0x10>)
 8000200:	b11b      	cbz	r3, 800020a <frame_dummy+0xe>
 8000202:	4903      	ldr	r1, [pc, #12]	; (8000210 <frame_dummy+0x14>)
 8000204:	4803      	ldr	r0, [pc, #12]	; (8000214 <frame_dummy+0x18>)
 8000206:	f3af 8000 	nop.w
 800020a:	bd08      	pop	{r3, pc}
 800020c:	00000000 	.word	0x00000000
 8000210:	20000184 	.word	0x20000184
 8000214:	08008228 	.word	0x08008228

08000218 <main>:
/**
  * @brief  The application entry point.
  * @retval int
  */
int main(void)
{
 8000218:	b580      	push	{r7, lr}
 800021a:	b092      	sub	sp, #72	; 0x48
 800021c:	af00      	add	r7, sp, #0
  /* USER CODE END 1 */

  /* MCU Configuration--------------------------------------------------------*/

  /* Reset of all peripherals, Initializes the Flash interface and the Systick. */
  HAL_Init();
 800021e:	f001 f842 	bl	80012a6 <HAL_Init>
  /* USER CODE BEGIN Init */

  /* USER CODE END Init */

  /* Configure the system clock */
  SystemClock_Config();
 8000222:	f000 f8d1 	bl	80003c8 <SystemClock_Config>
  /* USER CODE BEGIN SysInit */

  /* USER CODE END SysInit */

  /* Initialize all configured peripherals */
  MX_GPIO_Init();
 8000226:	f000 fa91 	bl	800074c <MX_GPIO_Init>
  MX_DMA_Init();
 800022a:	f000 fa41 	bl	80006b0 <MX_DMA_Init>
  MX_TIM2_Init();
 800022e:	f000 f96f 	bl	8000510 <MX_TIM2_Init>
  MX_USB_Device_Init();
 8000232:	f007 faf9 	bl	8007828 <MX_USB_Device_Init>
  MX_SPI1_Init();
 8000236:	f000 f92d 	bl	8000494 <MX_SPI1_Init>
  MX_TIM17_Init();
 800023a:	f000 f9c1 	bl	80005c0 <MX_TIM17_Init>
  /* USER CODE BEGIN 2 */
  ws2812Init();
 800023e:	f000 fdb7 	bl	8000db0 <ws2812Init>
  ws2812Begin(B_LED_CNT, R_LED_CNT);
 8000242:	2180      	movs	r1, #128	; 0x80
 8000244:	2014      	movs	r0, #20
 8000246:	f000 fdc9 	bl	8000ddc <ws2812Begin>

  uint32_t pre_time=0;
 800024a:	2300      	movs	r3, #0
 800024c:	647b      	str	r3, [r7, #68]	; 0x44
  uint32_t rainbow_pre_time=0;
 800024e:	2300      	movs	r3, #0
 8000250:	643b      	str	r3, [r7, #64]	; 0x40
  uint32_t led_time=200;
 8000252:	23c8      	movs	r3, #200	; 0xc8
 8000254:	62fb      	str	r3, [r7, #44]	; 0x2c
  uint32_t rainbow_led_time=10;
 8000256:	230a      	movs	r3, #10
 8000258:	62bb      	str	r3, [r7, #40]	; 0x28
  uint32_t led_count=10;
 800025a:	230a      	movs	r3, #10
 800025c:	627b      	str	r3, [r7, #36]	; 0x24
	bool led_flg=false;
 800025e:	2300      	movs	r3, #0
 8000260:	623b      	str	r3, [r7, #32]

	uint32_t test_count = 0;
 8000262:	2300      	movs	r3, #0
 8000264:	61fb      	str	r3, [r7, #28]

  uint32_t led_index = 0;
 8000266:	2300      	movs	r3, #0
 8000268:	63fb      	str	r3, [r7, #60]	; 0x3c
  int32_t  led_index_pre = -1;
 800026a:	f04f 33ff 	mov.w	r3, #4294967295
 800026e:	61bb      	str	r3, [r7, #24]
  uint8_t led_color = 0;
 8000270:	2300      	movs	r3, #0
 8000272:	75fb      	strb	r3, [r7, #23]

	uint32_t led_mask= 0b1110000111;
 8000274:	f240 3387 	movw	r3, #903	; 0x387
 8000278:	613b      	str	r3, [r7, #16]
	uint32_t current_led=0;
 800027a:	2300      	movs	r3, #0
 800027c:	60fb      	str	r3, [r7, #12]
	uint32_t test2=0;
 800027e:	2300      	movs	r3, #0
 8000280:	60bb      	str	r3, [r7, #8]
	uint32_t test1=0;
 8000282:	2300      	movs	r3, #0
 8000284:	607b      	str	r3, [r7, #4]
  {
    /* USER CODE END WHILE */

    /* USER CODE BEGIN 3 */
		uint16_t i, j;
		for(j=0; j<256*5;) { // 5 cycles of all colors on wheel
 8000286:	2300      	movs	r3, #0
 8000288:	873b      	strh	r3, [r7, #56]	; 0x38
 800028a:	e095      	b.n	80003b8 <main+0x1a0>
			if(millis()-rainbow_pre_time >= rainbow_led_time)
 800028c:	f000 face 	bl	800082c <millis>
 8000290:	4602      	mov	r2, r0
 8000292:	6c3b      	ldr	r3, [r7, #64]	; 0x40
 8000294:	1ad3      	subs	r3, r2, r3
 8000296:	6aba      	ldr	r2, [r7, #40]	; 0x28
 8000298:	429a      	cmp	r2, r3
 800029a:	d822      	bhi.n	80002e2 <main+0xca>
			{
				rainbow_pre_time = millis();
 800029c:	f000 fac6 	bl	800082c <millis>
 80002a0:	6438      	str	r0, [r7, #64]	; 0x40
				j++;
 80002a2:	8f3b      	ldrh	r3, [r7, #56]	; 0x38
 80002a4:	3301      	adds	r3, #1
 80002a6:	873b      	strh	r3, [r7, #56]	; 0x38
				for(i=0; i< R_LED_CNT; i++) {
 80002a8:	2300      	movs	r3, #0
 80002aa:	877b      	strh	r3, [r7, #58]	; 0x3a
 80002ac:	e016      	b.n	80002dc <main+0xc4>
						setPixelColor(i, Wheel(((i * 256 / R_LED_CNT) + j) & 255));
 80002ae:	8f7b      	ldrh	r3, [r7, #58]	; 0x3a
 80002b0:	021b      	lsls	r3, r3, #8
 80002b2:	2b00      	cmp	r3, #0
 80002b4:	da00      	bge.n	80002b8 <main+0xa0>
 80002b6:	337f      	adds	r3, #127	; 0x7f
 80002b8:	11db      	asrs	r3, r3, #7
 80002ba:	b2da      	uxtb	r2, r3
 80002bc:	8f3b      	ldrh	r3, [r7, #56]	; 0x38
 80002be:	b2db      	uxtb	r3, r3
 80002c0:	4413      	add	r3, r2
 80002c2:	b2db      	uxtb	r3, r3
 80002c4:	4618      	mov	r0, r3
 80002c6:	f000 ff61 	bl	800118c <Wheel>
 80002ca:	4602      	mov	r2, r0
 80002cc:	8f7b      	ldrh	r3, [r7, #58]	; 0x3a
 80002ce:	4611      	mov	r1, r2
 80002d0:	4618      	mov	r0, r3
 80002d2:	f000 fed7 	bl	8001084 <setPixelColor>
				for(i=0; i< R_LED_CNT; i++) {
 80002d6:	8f7b      	ldrh	r3, [r7, #58]	; 0x3a
 80002d8:	3301      	adds	r3, #1
 80002da:	877b      	strh	r3, [r7, #58]	; 0x3a
 80002dc:	8f7b      	ldrh	r3, [r7, #58]	; 0x3a
 80002de:	2b7f      	cmp	r3, #127	; 0x7f
 80002e0:	d9e5      	bls.n	80002ae <main+0x96>
				}
			}
			if(millis()-pre_time >= led_time)
 80002e2:	f000 faa3 	bl	800082c <millis>
 80002e6:	4602      	mov	r2, r0
 80002e8:	6c7b      	ldr	r3, [r7, #68]	; 0x44
 80002ea:	1ad3      	subs	r3, r2, r3
 80002ec:	6afa      	ldr	r2, [r7, #44]	; 0x2c
 80002ee:	429a      	cmp	r2, r3
 80002f0:	d862      	bhi.n	80003b8 <main+0x1a0>
			{
				pre_time = millis();
 80002f2:	f000 fa9b 	bl	800082c <millis>
 80002f6:	6478      	str	r0, [r7, #68]	; 0x44
				test2 = rotateLeft(led_mask, led_index%B_LED_CNT);
 80002f8:	6938      	ldr	r0, [r7, #16]
 80002fa:	6bf9      	ldr	r1, [r7, #60]	; 0x3c
 80002fc:	4b31      	ldr	r3, [pc, #196]	; (80003c4 <main+0x1ac>)
 80002fe:	fba3 2301 	umull	r2, r3, r3, r1
 8000302:	091a      	lsrs	r2, r3, #4
 8000304:	4613      	mov	r3, r2
 8000306:	009b      	lsls	r3, r3, #2
 8000308:	4413      	add	r3, r2
 800030a:	009b      	lsls	r3, r3, #2
 800030c:	1aca      	subs	r2, r1, r3
 800030e:	4611      	mov	r1, r2
 8000310:	f000 fa94 	bl	800083c <rotateLeft>
 8000314:	4603      	mov	r3, r0
 8000316:	60bb      	str	r3, [r7, #8]
				test1 = rotateRight(led_mask, led_index%B_LED_CNT);
 8000318:	6938      	ldr	r0, [r7, #16]
 800031a:	6bf9      	ldr	r1, [r7, #60]	; 0x3c
 800031c:	4b29      	ldr	r3, [pc, #164]	; (80003c4 <main+0x1ac>)
 800031e:	fba3 2301 	umull	r2, r3, r3, r1
 8000322:	091a      	lsrs	r2, r3, #4
 8000324:	4613      	mov	r3, r2
 8000326:	009b      	lsls	r3, r3, #2
 8000328:	4413      	add	r3, r2
 800032a:	009b      	lsls	r3, r3, #2
 800032c:	1aca      	subs	r2, r1, r3
 800032e:	4611      	mov	r1, r2
 8000330:	f000 faae 	bl	8000890 <rotateRight>
 8000334:	4603      	mov	r3, r0
 8000336:	607b      	str	r3, [r7, #4]

				led_index++;
 8000338:	6bfb      	ldr	r3, [r7, #60]	; 0x3c
 800033a:	3301      	adds	r3, #1
 800033c:	63fb      	str	r3, [r7, #60]	; 0x3c
				for(uint32_t j=0; j<12; j++) {
 800033e:	2300      	movs	r3, #0
 8000340:	637b      	str	r3, [r7, #52]	; 0x34
 8000342:	e017      	b.n	8000374 <main+0x15c>
					if( test2 >> j & 0x01){
 8000344:	68ba      	ldr	r2, [r7, #8]
 8000346:	6b7b      	ldr	r3, [r7, #52]	; 0x34
 8000348:	fa22 f303 	lsr.w	r3, r2, r3
 800034c:	f003 0301 	and.w	r3, r3, #1
 8000350:	2b00      	cmp	r3, #0
 8000352:	d006      	beq.n	8000362 <main+0x14a>
							ws2812SetColor(j, 255, 255, 255);
 8000354:	23ff      	movs	r3, #255	; 0xff
 8000356:	22ff      	movs	r2, #255	; 0xff
 8000358:	21ff      	movs	r1, #255	; 0xff
 800035a:	6b78      	ldr	r0, [r7, #52]	; 0x34
 800035c:	f000 fd76 	bl	8000e4c <ws2812SetColor>
 8000360:	e005      	b.n	800036e <main+0x156>
					}else {
						ws2812SetColor(j, 0, 0, 0);
 8000362:	2300      	movs	r3, #0
 8000364:	2200      	movs	r2, #0
 8000366:	2100      	movs	r1, #0
 8000368:	6b78      	ldr	r0, [r7, #52]	; 0x34
 800036a:	f000 fd6f 	bl	8000e4c <ws2812SetColor>
				for(uint32_t j=0; j<12; j++) {
 800036e:	6b7b      	ldr	r3, [r7, #52]	; 0x34
 8000370:	3301      	adds	r3, #1
 8000372:	637b      	str	r3, [r7, #52]	; 0x34
 8000374:	6b7b      	ldr	r3, [r7, #52]	; 0x34
 8000376:	2b0b      	cmp	r3, #11
 8000378:	d9e4      	bls.n	8000344 <main+0x12c>
					}
				}
				for(uint32_t j=20; j>11; j--) {
 800037a:	2314      	movs	r3, #20
 800037c:	633b      	str	r3, [r7, #48]	; 0x30
 800037e:	e018      	b.n	80003b2 <main+0x19a>
					if( test1 >> (j-11) & 0x01){
 8000380:	6b3b      	ldr	r3, [r7, #48]	; 0x30
 8000382:	3b0b      	subs	r3, #11
 8000384:	687a      	ldr	r2, [r7, #4]
 8000386:	fa22 f303 	lsr.w	r3, r2, r3
 800038a:	f003 0301 	and.w	r3, r3, #1
 800038e:	2b00      	cmp	r3, #0
 8000390:	d006      	beq.n	80003a0 <main+0x188>
							ws2812SetColor(j, 255, 255, 255);
 8000392:	23ff      	movs	r3, #255	; 0xff
 8000394:	22ff      	movs	r2, #255	; 0xff
 8000396:	21ff      	movs	r1, #255	; 0xff
 8000398:	6b38      	ldr	r0, [r7, #48]	; 0x30
 800039a:	f000 fd57 	bl	8000e4c <ws2812SetColor>
 800039e:	e005      	b.n	80003ac <main+0x194>
					}else {
						ws2812SetColor(j, 0, 0, 0);
 80003a0:	2300      	movs	r3, #0
 80003a2:	2200      	movs	r2, #0
 80003a4:	2100      	movs	r1, #0
 80003a6:	6b38      	ldr	r0, [r7, #48]	; 0x30
 80003a8:	f000 fd50 	bl	8000e4c <ws2812SetColor>
				for(uint32_t j=20; j>11; j--) {
 80003ac:	6b3b      	ldr	r3, [r7, #48]	; 0x30
 80003ae:	3b01      	subs	r3, #1
 80003b0:	633b      	str	r3, [r7, #48]	; 0x30
 80003b2:	6b3b      	ldr	r3, [r7, #48]	; 0x30
 80003b4:	2b0b      	cmp	r3, #11
 80003b6:	d8e3      	bhi.n	8000380 <main+0x168>
		for(j=0; j<256*5;) { // 5 cycles of all colors on wheel
 80003b8:	8f3b      	ldrh	r3, [r7, #56]	; 0x38
 80003ba:	f5b3 6fa0 	cmp.w	r3, #1280	; 0x500
 80003be:	f4ff af65 	bcc.w	800028c <main+0x74>
  {
 80003c2:	e760      	b.n	8000286 <main+0x6e>
 80003c4:	cccccccd 	.word	0xcccccccd

080003c8 <SystemClock_Config>:
/**
  * @brief System Clock Configuration
  * @retval None
  */
void SystemClock_Config(void)
{
 80003c8:	b580      	push	{r7, lr}
 80003ca:	b0a4      	sub	sp, #144	; 0x90
 80003cc:	af00      	add	r7, sp, #0
  RCC_OscInitTypeDef RCC_OscInitStruct = {0};
 80003ce:	f107 0358 	add.w	r3, r7, #88	; 0x58
 80003d2:	2238      	movs	r2, #56	; 0x38
 80003d4:	2100      	movs	r1, #0
 80003d6:	4618      	mov	r0, r3
 80003d8:	f007 ff1e 	bl	8008218 <memset>
  RCC_ClkInitTypeDef RCC_ClkInitStruct = {0};
 80003dc:	f107 0344 	add.w	r3, r7, #68	; 0x44
 80003e0:	2200      	movs	r2, #0
 80003e2:	601a      	str	r2, [r3, #0]
 80003e4:	605a      	str	r2, [r3, #4]
 80003e6:	609a      	str	r2, [r3, #8]
 80003e8:	60da      	str	r2, [r3, #12]
 80003ea:	611a      	str	r2, [r3, #16]
  RCC_PeriphCLKInitTypeDef PeriphClkInit = {0};
 80003ec:	463b      	mov	r3, r7
 80003ee:	2244      	movs	r2, #68	; 0x44
 80003f0:	2100      	movs	r1, #0
 80003f2:	4618      	mov	r0, r3
 80003f4:	f007 ff10 	bl	8008218 <memset>

  /** Configure the main internal regulator output voltage 
  */
  HAL_PWREx_ControlVoltageScaling(PWR_REGULATOR_VOLTAGE_SCALE1_BOOST);
 80003f8:	2000      	movs	r0, #0
 80003fa:	f002 fbf7 	bl	8002bec <HAL_PWREx_ControlVoltageScaling>
  /** Initializes the CPU, AHB and APB busses clocks 
  */
  RCC_OscInitStruct.OscillatorType = RCC_OSCILLATORTYPE_HSI48|RCC_OSCILLATORTYPE_HSE;
 80003fe:	2321      	movs	r3, #33	; 0x21
 8000400:	65bb      	str	r3, [r7, #88]	; 0x58
  RCC_OscInitStruct.HSEState = RCC_HSE_ON;
 8000402:	f44f 3380 	mov.w	r3, #65536	; 0x10000
 8000406:	65fb      	str	r3, [r7, #92]	; 0x5c
  RCC_OscInitStruct.HSI48State = RCC_HSI48_ON;
 8000408:	2301      	movs	r3, #1
 800040a:	673b      	str	r3, [r7, #112]	; 0x70
  RCC_OscInitStruct.PLL.PLLState = RCC_PLL_ON;
 800040c:	2302      	movs	r3, #2
 800040e:	677b      	str	r3, [r7, #116]	; 0x74
  RCC_OscInitStruct.PLL.PLLSource = RCC_PLLSOURCE_HSE;
 8000410:	2303      	movs	r3, #3
 8000412:	67bb      	str	r3, [r7, #120]	; 0x78
  RCC_OscInitStruct.PLL.PLLM = RCC_PLLM_DIV4;
 8000414:	2304      	movs	r3, #4
 8000416:	67fb      	str	r3, [r7, #124]	; 0x7c
  RCC_OscInitStruct.PLL.PLLN = 85;
 8000418:	2355      	movs	r3, #85	; 0x55
 800041a:	f8c7 3080 	str.w	r3, [r7, #128]	; 0x80
  RCC_OscInitStruct.PLL.PLLP = RCC_PLLP_DIV2;
 800041e:	2302      	movs	r3, #2
 8000420:	f8c7 3084 	str.w	r3, [r7, #132]	; 0x84
  RCC_OscInitStruct.PLL.PLLQ = RCC_PLLQ_DIV2;
 8000424:	2302      	movs	r3, #2
 8000426:	f8c7 3088 	str.w	r3, [r7, #136]	; 0x88
  RCC_OscInitStruct.PLL.PLLR = RCC_PLLR_DIV2;
 800042a:	2302      	movs	r3, #2
 800042c:	f8c7 308c 	str.w	r3, [r7, #140]	; 0x8c
  if (HAL_RCC_OscConfig(&RCC_OscInitStruct) != HAL_OK)
 8000430:	f107 0358 	add.w	r3, r7, #88	; 0x58
 8000434:	4618      	mov	r0, r3
 8000436:	f002 fc7d 	bl	8002d34 <HAL_RCC_OscConfig>
 800043a:	4603      	mov	r3, r0
 800043c:	2b00      	cmp	r3, #0
 800043e:	d001      	beq.n	8000444 <SystemClock_Config+0x7c>
  {
    Error_Handler();
 8000440:	f000 fa54 	bl	80008ec <Error_Handler>
  }
  /** Initializes the CPU, AHB and APB busses clocks 
  */
  RCC_ClkInitStruct.ClockType = RCC_CLOCKTYPE_HCLK|RCC_CLOCKTYPE_SYSCLK
 8000444:	230f      	movs	r3, #15
 8000446:	647b      	str	r3, [r7, #68]	; 0x44
                              |RCC_CLOCKTYPE_PCLK1|RCC_CLOCKTYPE_PCLK2;
  RCC_ClkInitStruct.SYSCLKSource = RCC_SYSCLKSOURCE_PLLCLK;
 8000448:	2303      	movs	r3, #3
 800044a:	64bb      	str	r3, [r7, #72]	; 0x48
  RCC_ClkInitStruct.AHBCLKDivider = RCC_SYSCLK_DIV1;
 800044c:	2300      	movs	r3, #0
 800044e:	64fb      	str	r3, [r7, #76]	; 0x4c
  RCC_ClkInitStruct.APB1CLKDivider = RCC_HCLK_DIV1;
 8000450:	2300      	movs	r3, #0
 8000452:	653b      	str	r3, [r7, #80]	; 0x50
  RCC_ClkInitStruct.APB2CLKDivider = RCC_HCLK_DIV1;
 8000454:	2300      	movs	r3, #0
 8000456:	657b      	str	r3, [r7, #84]	; 0x54

  if (HAL_RCC_ClockConfig(&RCC_ClkInitStruct, FLASH_LATENCY_8) != HAL_OK)
 8000458:	f107 0344 	add.w	r3, r7, #68	; 0x44
 800045c:	2108      	movs	r1, #8
 800045e:	4618      	mov	r0, r3
 8000460:	f002 ff80 	bl	8003364 <HAL_RCC_ClockConfig>
 8000464:	4603      	mov	r3, r0
 8000466:	2b00      	cmp	r3, #0
 8000468:	d001      	beq.n	800046e <SystemClock_Config+0xa6>
  {
    Error_Handler();
 800046a:	f000 fa3f 	bl	80008ec <Error_Handler>
  }
  /** Initializes the peripherals clocks 
  */
  PeriphClkInit.PeriphClockSelection = RCC_PERIPHCLK_USB;
 800046e:	f44f 5300 	mov.w	r3, #8192	; 0x2000
 8000472:	603b      	str	r3, [r7, #0]
  PeriphClkInit.UsbClockSelection = RCC_USBCLKSOURCE_HSI48;
 8000474:	2300      	movs	r3, #0
 8000476:	637b      	str	r3, [r7, #52]	; 0x34
  if (HAL_RCCEx_PeriphCLKConfig(&PeriphClkInit) != HAL_OK)
 8000478:	463b      	mov	r3, r7
 800047a:	4618      	mov	r0, r3
 800047c:	f003 f952 	bl	8003724 <HAL_RCCEx_PeriphCLKConfig>
 8000480:	4603      	mov	r3, r0
 8000482:	2b00      	cmp	r3, #0
 8000484:	d001      	beq.n	800048a <SystemClock_Config+0xc2>
  {
    Error_Handler();
 8000486:	f000 fa31 	bl	80008ec <Error_Handler>
  }
}
 800048a:	bf00      	nop
 800048c:	3790      	adds	r7, #144	; 0x90
 800048e:	46bd      	mov	sp, r7
 8000490:	bd80      	pop	{r7, pc}
	...

08000494 <MX_SPI1_Init>:
  * @brief SPI1 Initialization Function
  * @param None
  * @retval None
  */
static void MX_SPI1_Init(void)
{
 8000494:	b580      	push	{r7, lr}
 8000496:	af00      	add	r7, sp, #0

  /* USER CODE BEGIN SPI1_Init 1 */

  /* USER CODE END SPI1_Init 1 */
  /* SPI1 parameter configuration*/
  hspi1.Instance = SPI1;
 8000498:	4b1b      	ldr	r3, [pc, #108]	; (8000508 <MX_SPI1_Init+0x74>)
 800049a:	4a1c      	ldr	r2, [pc, #112]	; (800050c <MX_SPI1_Init+0x78>)
 800049c:	601a      	str	r2, [r3, #0]
  hspi1.Init.Mode = SPI_MODE_MASTER;
 800049e:	4b1a      	ldr	r3, [pc, #104]	; (8000508 <MX_SPI1_Init+0x74>)
 80004a0:	f44f 7282 	mov.w	r2, #260	; 0x104
 80004a4:	605a      	str	r2, [r3, #4]
  hspi1.Init.Direction = SPI_DIRECTION_2LINES;
 80004a6:	4b18      	ldr	r3, [pc, #96]	; (8000508 <MX_SPI1_Init+0x74>)
 80004a8:	2200      	movs	r2, #0
 80004aa:	609a      	str	r2, [r3, #8]
  hspi1.Init.DataSize = SPI_DATASIZE_16BIT;
 80004ac:	4b16      	ldr	r3, [pc, #88]	; (8000508 <MX_SPI1_Init+0x74>)
 80004ae:	f44f 6270 	mov.w	r2, #3840	; 0xf00
 80004b2:	60da      	str	r2, [r3, #12]
  hspi1.Init.CLKPolarity = SPI_POLARITY_LOW;
 80004b4:	4b14      	ldr	r3, [pc, #80]	; (8000508 <MX_SPI1_Init+0x74>)
 80004b6:	2200      	movs	r2, #0
 80004b8:	611a      	str	r2, [r3, #16]
  hspi1.Init.CLKPhase = SPI_PHASE_1EDGE;
 80004ba:	4b13      	ldr	r3, [pc, #76]	; (8000508 <MX_SPI1_Init+0x74>)
 80004bc:	2200      	movs	r2, #0
 80004be:	615a      	str	r2, [r3, #20]
  hspi1.Init.NSS = SPI_NSS_SOFT;
 80004c0:	4b11      	ldr	r3, [pc, #68]	; (8000508 <MX_SPI1_Init+0x74>)
 80004c2:	f44f 7200 	mov.w	r2, #512	; 0x200
 80004c6:	619a      	str	r2, [r3, #24]
  hspi1.Init.BaudRatePrescaler = SPI_BAUDRATEPRESCALER_16;
 80004c8:	4b0f      	ldr	r3, [pc, #60]	; (8000508 <MX_SPI1_Init+0x74>)
 80004ca:	2218      	movs	r2, #24
 80004cc:	61da      	str	r2, [r3, #28]
  hspi1.Init.FirstBit = SPI_FIRSTBIT_MSB;
 80004ce:	4b0e      	ldr	r3, [pc, #56]	; (8000508 <MX_SPI1_Init+0x74>)
 80004d0:	2200      	movs	r2, #0
 80004d2:	621a      	str	r2, [r3, #32]
  hspi1.Init.TIMode = SPI_TIMODE_DISABLE;
 80004d4:	4b0c      	ldr	r3, [pc, #48]	; (8000508 <MX_SPI1_Init+0x74>)
 80004d6:	2200      	movs	r2, #0
 80004d8:	625a      	str	r2, [r3, #36]	; 0x24
  hspi1.Init.CRCCalculation = SPI_CRCCALCULATION_DISABLE;
 80004da:	4b0b      	ldr	r3, [pc, #44]	; (8000508 <MX_SPI1_Init+0x74>)
 80004dc:	2200      	movs	r2, #0
 80004de:	629a      	str	r2, [r3, #40]	; 0x28
  hspi1.Init.CRCPolynomial = 7;
 80004e0:	4b09      	ldr	r3, [pc, #36]	; (8000508 <MX_SPI1_Init+0x74>)
 80004e2:	2207      	movs	r2, #7
 80004e4:	62da      	str	r2, [r3, #44]	; 0x2c
  hspi1.Init.CRCLength = SPI_CRC_LENGTH_DATASIZE;
 80004e6:	4b08      	ldr	r3, [pc, #32]	; (8000508 <MX_SPI1_Init+0x74>)
 80004e8:	2200      	movs	r2, #0
 80004ea:	631a      	str	r2, [r3, #48]	; 0x30
  hspi1.Init.NSSPMode = SPI_NSS_PULSE_ENABLE;
 80004ec:	4b06      	ldr	r3, [pc, #24]	; (8000508 <MX_SPI1_Init+0x74>)
 80004ee:	2208      	movs	r2, #8
 80004f0:	635a      	str	r2, [r3, #52]	; 0x34
  if (HAL_SPI_Init(&hspi1) != HAL_OK)
 80004f2:	4805      	ldr	r0, [pc, #20]	; (8000508 <MX_SPI1_Init+0x74>)
 80004f4:	f003 fb06 	bl	8003b04 <HAL_SPI_Init>
 80004f8:	4603      	mov	r3, r0
 80004fa:	2b00      	cmp	r3, #0
 80004fc:	d001      	beq.n	8000502 <MX_SPI1_Init+0x6e>
  {
    Error_Handler();
 80004fe:	f000 f9f5 	bl	80008ec <Error_Handler>
  }
  /* USER CODE BEGIN SPI1_Init 2 */

  /* USER CODE END SPI1_Init 2 */

}
 8000502:	bf00      	nop
 8000504:	bd80      	pop	{r7, pc}
 8000506:	bf00      	nop
 8000508:	200016dc 	.word	0x200016dc
 800050c:	40013000 	.word	0x40013000

08000510 <MX_TIM2_Init>:
  * @brief TIM2 Initialization Function
  * @param None
  * @retval None
  */
static void MX_TIM2_Init(void)
{
 8000510:	b580      	push	{r7, lr}
 8000512:	b08a      	sub	sp, #40	; 0x28
 8000514:	af00      	add	r7, sp, #0

  /* USER CODE BEGIN TIM2_Init 0 */

  /* USER CODE END TIM2_Init 0 */

  TIM_MasterConfigTypeDef sMasterConfig = {0};
 8000516:	f107 031c 	add.w	r3, r7, #28
 800051a:	2200      	movs	r2, #0
 800051c:	601a      	str	r2, [r3, #0]
 800051e:	605a      	str	r2, [r3, #4]
 8000520:	609a      	str	r2, [r3, #8]
  TIM_OC_InitTypeDef sConfigOC = {0};
 8000522:	463b      	mov	r3, r7
 8000524:	2200      	movs	r2, #0
 8000526:	601a      	str	r2, [r3, #0]
 8000528:	605a      	str	r2, [r3, #4]
 800052a:	609a      	str	r2, [r3, #8]
 800052c:	60da      	str	r2, [r3, #12]
 800052e:	611a      	str	r2, [r3, #16]
 8000530:	615a      	str	r2, [r3, #20]
 8000532:	619a      	str	r2, [r3, #24]

  /* USER CODE BEGIN TIM2_Init 1 */

  /* USER CODE END TIM2_Init 1 */
  htim2.Instance = TIM2;
 8000534:	4b21      	ldr	r3, [pc, #132]	; (80005bc <MX_TIM2_Init+0xac>)
 8000536:	f04f 4280 	mov.w	r2, #1073741824	; 0x40000000
 800053a:	601a      	str	r2, [r3, #0]
  htim2.Init.Prescaler = 0;
 800053c:	4b1f      	ldr	r3, [pc, #124]	; (80005bc <MX_TIM2_Init+0xac>)
 800053e:	2200      	movs	r2, #0
 8000540:	605a      	str	r2, [r3, #4]
  htim2.Init.CounterMode = TIM_COUNTERMODE_UP;
 8000542:	4b1e      	ldr	r3, [pc, #120]	; (80005bc <MX_TIM2_Init+0xac>)
 8000544:	2200      	movs	r2, #0
 8000546:	609a      	str	r2, [r3, #8]
  htim2.Init.Period = 212;
 8000548:	4b1c      	ldr	r3, [pc, #112]	; (80005bc <MX_TIM2_Init+0xac>)
 800054a:	22d4      	movs	r2, #212	; 0xd4
 800054c:	60da      	str	r2, [r3, #12]
  htim2.Init.ClockDivision = TIM_CLOCKDIVISION_DIV1;
 800054e:	4b1b      	ldr	r3, [pc, #108]	; (80005bc <MX_TIM2_Init+0xac>)
 8000550:	2200      	movs	r2, #0
 8000552:	611a      	str	r2, [r3, #16]
  htim2.Init.AutoReloadPreload = TIM_AUTORELOAD_PRELOAD_DISABLE;
 8000554:	4b19      	ldr	r3, [pc, #100]	; (80005bc <MX_TIM2_Init+0xac>)
 8000556:	2200      	movs	r2, #0
 8000558:	619a      	str	r2, [r3, #24]
  if (HAL_TIM_PWM_Init(&htim2) != HAL_OK)
 800055a:	4818      	ldr	r0, [pc, #96]	; (80005bc <MX_TIM2_Init+0xac>)
 800055c:	f003 fbbb 	bl	8003cd6 <HAL_TIM_PWM_Init>
 8000560:	4603      	mov	r3, r0
 8000562:	2b00      	cmp	r3, #0
 8000564:	d001      	beq.n	800056a <MX_TIM2_Init+0x5a>
  {
    Error_Handler();
 8000566:	f000 f9c1 	bl	80008ec <Error_Handler>
  }
  sMasterConfig.MasterOutputTrigger = TIM_TRGO_RESET;
 800056a:	2300      	movs	r3, #0
 800056c:	61fb      	str	r3, [r7, #28]
  sMasterConfig.MasterSlaveMode = TIM_MASTERSLAVEMODE_DISABLE;
 800056e:	2300      	movs	r3, #0
 8000570:	627b      	str	r3, [r7, #36]	; 0x24
  if (HAL_TIMEx_MasterConfigSynchronization(&htim2, &sMasterConfig) != HAL_OK)
 8000572:	f107 031c 	add.w	r3, r7, #28
 8000576:	4619      	mov	r1, r3
 8000578:	4810      	ldr	r0, [pc, #64]	; (80005bc <MX_TIM2_Init+0xac>)
 800057a:	f004 fb93 	bl	8004ca4 <HAL_TIMEx_MasterConfigSynchronization>
 800057e:	4603      	mov	r3, r0
 8000580:	2b00      	cmp	r3, #0
 8000582:	d001      	beq.n	8000588 <MX_TIM2_Init+0x78>
  {
    Error_Handler();
 8000584:	f000 f9b2 	bl	80008ec <Error_Handler>
  }
  sConfigOC.OCMode = TIM_OCMODE_PWM1;
 8000588:	2360      	movs	r3, #96	; 0x60
 800058a:	603b      	str	r3, [r7, #0]
  sConfigOC.Pulse = 0;
 800058c:	2300      	movs	r3, #0
 800058e:	607b      	str	r3, [r7, #4]
  sConfigOC.OCPolarity = TIM_OCPOLARITY_HIGH;
 8000590:	2300      	movs	r3, #0
 8000592:	60bb      	str	r3, [r7, #8]
  sConfigOC.OCFastMode = TIM_OCFAST_DISABLE;
 8000594:	2300      	movs	r3, #0
 8000596:	613b      	str	r3, [r7, #16]
  if (HAL_TIM_PWM_ConfigChannel(&htim2, &sConfigOC, TIM_CHANNEL_1) != HAL_OK)
 8000598:	463b      	mov	r3, r7
 800059a:	2200      	movs	r2, #0
 800059c:	4619      	mov	r1, r3
 800059e:	4807      	ldr	r0, [pc, #28]	; (80005bc <MX_TIM2_Init+0xac>)
 80005a0:	f003 fdd4 	bl	800414c <HAL_TIM_PWM_ConfigChannel>
 80005a4:	4603      	mov	r3, r0
 80005a6:	2b00      	cmp	r3, #0
 80005a8:	d001      	beq.n	80005ae <MX_TIM2_Init+0x9e>
  {
    Error_Handler();
 80005aa:	f000 f99f 	bl	80008ec <Error_Handler>
  }
  /* USER CODE BEGIN TIM2_Init 2 */

  /* USER CODE END TIM2_Init 2 */
  HAL_TIM_MspPostInit(&htim2);
 80005ae:	4803      	ldr	r0, [pc, #12]	; (80005bc <MX_TIM2_Init+0xac>)
 80005b0:	f000 fb2e 	bl	8000c10 <HAL_TIM_MspPostInit>

}
 80005b4:	bf00      	nop
 80005b6:	3728      	adds	r7, #40	; 0x28
 80005b8:	46bd      	mov	sp, r7
 80005ba:	bd80      	pop	{r7, pc}
 80005bc:	20001740 	.word	0x20001740

080005c0 <MX_TIM17_Init>:
  * @brief TIM17 Initialization Function
  * @param None
  * @retval None
  */
static void MX_TIM17_Init(void)
{
 80005c0:	b580      	push	{r7, lr}
 80005c2:	b094      	sub	sp, #80	; 0x50
 80005c4:	af00      	add	r7, sp, #0

  /* USER CODE BEGIN TIM17_Init 0 */

  /* USER CODE END TIM17_Init 0 */

  TIM_OC_InitTypeDef sConfigOC = {0};
 80005c6:	f107 0334 	add.w	r3, r7, #52	; 0x34
 80005ca:	2200      	movs	r2, #0
 80005cc:	601a      	str	r2, [r3, #0]
 80005ce:	605a      	str	r2, [r3, #4]
 80005d0:	609a      	str	r2, [r3, #8]
 80005d2:	60da      	str	r2, [r3, #12]
 80005d4:	611a      	str	r2, [r3, #16]
 80005d6:	615a      	str	r2, [r3, #20]
 80005d8:	619a      	str	r2, [r3, #24]
  TIM_BreakDeadTimeConfigTypeDef sBreakDeadTimeConfig = {0};
 80005da:	463b      	mov	r3, r7
 80005dc:	2234      	movs	r2, #52	; 0x34
 80005de:	2100      	movs	r1, #0
 80005e0:	4618      	mov	r0, r3
 80005e2:	f007 fe19 	bl	8008218 <memset>

  /* USER CODE BEGIN TIM17_Init 1 */

  /* USER CODE END TIM17_Init 1 */
  htim17.Instance = TIM17;
 80005e6:	4b30      	ldr	r3, [pc, #192]	; (80006a8 <MX_TIM17_Init+0xe8>)
 80005e8:	4a30      	ldr	r2, [pc, #192]	; (80006ac <MX_TIM17_Init+0xec>)
 80005ea:	601a      	str	r2, [r3, #0]
  htim17.Init.Prescaler = 0;
 80005ec:	4b2e      	ldr	r3, [pc, #184]	; (80006a8 <MX_TIM17_Init+0xe8>)
 80005ee:	2200      	movs	r2, #0
 80005f0:	605a      	str	r2, [r3, #4]
  htim17.Init.CounterMode = TIM_COUNTERMODE_UP;
 80005f2:	4b2d      	ldr	r3, [pc, #180]	; (80006a8 <MX_TIM17_Init+0xe8>)
 80005f4:	2200      	movs	r2, #0
 80005f6:	609a      	str	r2, [r3, #8]
  htim17.Init.Period = 212;
 80005f8:	4b2b      	ldr	r3, [pc, #172]	; (80006a8 <MX_TIM17_Init+0xe8>)
 80005fa:	22d4      	movs	r2, #212	; 0xd4
 80005fc:	60da      	str	r2, [r3, #12]
  htim17.Init.ClockDivision = TIM_CLOCKDIVISION_DIV1;
 80005fe:	4b2a      	ldr	r3, [pc, #168]	; (80006a8 <MX_TIM17_Init+0xe8>)
 8000600:	2200      	movs	r2, #0
 8000602:	611a      	str	r2, [r3, #16]
  htim17.Init.RepetitionCounter = 0;
 8000604:	4b28      	ldr	r3, [pc, #160]	; (80006a8 <MX_TIM17_Init+0xe8>)
 8000606:	2200      	movs	r2, #0
 8000608:	615a      	str	r2, [r3, #20]
  htim17.Init.AutoReloadPreload = TIM_AUTORELOAD_PRELOAD_DISABLE;
 800060a:	4b27      	ldr	r3, [pc, #156]	; (80006a8 <MX_TIM17_Init+0xe8>)
 800060c:	2200      	movs	r2, #0
 800060e:	619a      	str	r2, [r3, #24]
  if (HAL_TIM_Base_Init(&htim17) != HAL_OK)
 8000610:	4825      	ldr	r0, [pc, #148]	; (80006a8 <MX_TIM17_Init+0xe8>)
 8000612:	f003 fb09 	bl	8003c28 <HAL_TIM_Base_Init>
 8000616:	4603      	mov	r3, r0
 8000618:	2b00      	cmp	r3, #0
 800061a:	d001      	beq.n	8000620 <MX_TIM17_Init+0x60>
  {
    Error_Handler();
 800061c:	f000 f966 	bl	80008ec <Error_Handler>
  }
  if (HAL_TIM_PWM_Init(&htim17) != HAL_OK)
 8000620:	4821      	ldr	r0, [pc, #132]	; (80006a8 <MX_TIM17_Init+0xe8>)
 8000622:	f003 fb58 	bl	8003cd6 <HAL_TIM_PWM_Init>
 8000626:	4603      	mov	r3, r0
 8000628:	2b00      	cmp	r3, #0
 800062a:	d001      	beq.n	8000630 <MX_TIM17_Init+0x70>
  {
    Error_Handler();
 800062c:	f000 f95e 	bl	80008ec <Error_Handler>
  }
  sConfigOC.OCMode = TIM_OCMODE_PWM1;
 8000630:	2360      	movs	r3, #96	; 0x60
 8000632:	637b      	str	r3, [r7, #52]	; 0x34
  sConfigOC.Pulse = 0;
 8000634:	2300      	movs	r3, #0
 8000636:	63bb      	str	r3, [r7, #56]	; 0x38
  sConfigOC.OCPolarity = TIM_OCPOLARITY_HIGH;
 8000638:	2300      	movs	r3, #0
 800063a:	63fb      	str	r3, [r7, #60]	; 0x3c
  sConfigOC.OCNPolarity = TIM_OCNPOLARITY_HIGH;
 800063c:	2300      	movs	r3, #0
 800063e:	643b      	str	r3, [r7, #64]	; 0x40
  sConfigOC.OCFastMode = TIM_OCFAST_DISABLE;
 8000640:	2300      	movs	r3, #0
 8000642:	647b      	str	r3, [r7, #68]	; 0x44
  sConfigOC.OCIdleState = TIM_OCIDLESTATE_RESET;
 8000644:	2300      	movs	r3, #0
 8000646:	64bb      	str	r3, [r7, #72]	; 0x48
  sConfigOC.OCNIdleState = TIM_OCNIDLESTATE_RESET;
 8000648:	2300      	movs	r3, #0
 800064a:	64fb      	str	r3, [r7, #76]	; 0x4c
  if (HAL_TIM_PWM_ConfigChannel(&htim17, &sConfigOC, TIM_CHANNEL_1) != HAL_OK)
 800064c:	f107 0334 	add.w	r3, r7, #52	; 0x34
 8000650:	2200      	movs	r2, #0
 8000652:	4619      	mov	r1, r3
 8000654:	4814      	ldr	r0, [pc, #80]	; (80006a8 <MX_TIM17_Init+0xe8>)
 8000656:	f003 fd79 	bl	800414c <HAL_TIM_PWM_ConfigChannel>
 800065a:	4603      	mov	r3, r0
 800065c:	2b00      	cmp	r3, #0
 800065e:	d001      	beq.n	8000664 <MX_TIM17_Init+0xa4>
  {
    Error_Handler();
 8000660:	f000 f944 	bl	80008ec <Error_Handler>
  }
  sBreakDeadTimeConfig.OffStateRunMode = TIM_OSSR_DISABLE;
 8000664:	2300      	movs	r3, #0
 8000666:	603b      	str	r3, [r7, #0]
  sBreakDeadTimeConfig.OffStateIDLEMode = TIM_OSSI_DISABLE;
 8000668:	2300      	movs	r3, #0
 800066a:	607b      	str	r3, [r7, #4]
  sBreakDeadTimeConfig.LockLevel = TIM_LOCKLEVEL_OFF;
 800066c:	2300      	movs	r3, #0
 800066e:	60bb      	str	r3, [r7, #8]
  sBreakDeadTimeConfig.DeadTime = 0;
 8000670:	2300      	movs	r3, #0
 8000672:	60fb      	str	r3, [r7, #12]
  sBreakDeadTimeConfig.BreakState = TIM_BREAK_DISABLE;
 8000674:	2300      	movs	r3, #0
 8000676:	613b      	str	r3, [r7, #16]
  sBreakDeadTimeConfig.BreakPolarity = TIM_BREAKPOLARITY_HIGH;
 8000678:	f44f 5300 	mov.w	r3, #8192	; 0x2000
 800067c:	617b      	str	r3, [r7, #20]
  sBreakDeadTimeConfig.BreakFilter = 0;
 800067e:	2300      	movs	r3, #0
 8000680:	61bb      	str	r3, [r7, #24]
  sBreakDeadTimeConfig.AutomaticOutput = TIM_AUTOMATICOUTPUT_DISABLE;
 8000682:	2300      	movs	r3, #0
 8000684:	633b      	str	r3, [r7, #48]	; 0x30
  if (HAL_TIMEx_ConfigBreakDeadTime(&htim17, &sBreakDeadTimeConfig) != HAL_OK)
 8000686:	463b      	mov	r3, r7
 8000688:	4619      	mov	r1, r3
 800068a:	4807      	ldr	r0, [pc, #28]	; (80006a8 <MX_TIM17_Init+0xe8>)
 800068c:	f004 fb8c 	bl	8004da8 <HAL_TIMEx_ConfigBreakDeadTime>
 8000690:	4603      	mov	r3, r0
 8000692:	2b00      	cmp	r3, #0
 8000694:	d001      	beq.n	800069a <MX_TIM17_Init+0xda>
  {
    Error_Handler();
 8000696:	f000 f929 	bl	80008ec <Error_Handler>
  }
  /* USER CODE BEGIN TIM17_Init 2 */

  /* USER CODE END TIM17_Init 2 */
  HAL_TIM_MspPostInit(&htim17);
 800069a:	4803      	ldr	r0, [pc, #12]	; (80006a8 <MX_TIM17_Init+0xe8>)
 800069c:	f000 fab8 	bl	8000c10 <HAL_TIM_MspPostInit>

}
 80006a0:	bf00      	nop
 80006a2:	3750      	adds	r7, #80	; 0x50
 80006a4:	46bd      	mov	sp, r7
 80006a6:	bd80      	pop	{r7, pc}
 80006a8:	20001688 	.word	0x20001688
 80006ac:	40014800 	.word	0x40014800

080006b0 <MX_DMA_Init>:

/** 
  * Enable DMA controller clock
  */
static void MX_DMA_Init(void) 
{
 80006b0:	b580      	push	{r7, lr}
 80006b2:	b084      	sub	sp, #16
 80006b4:	af00      	add	r7, sp, #0

  /* DMA controller clock enable */
  __HAL_RCC_DMAMUX1_CLK_ENABLE();
 80006b6:	4b24      	ldr	r3, [pc, #144]	; (8000748 <MX_DMA_Init+0x98>)
 80006b8:	6c9b      	ldr	r3, [r3, #72]	; 0x48
 80006ba:	4a23      	ldr	r2, [pc, #140]	; (8000748 <MX_DMA_Init+0x98>)
 80006bc:	f043 0304 	orr.w	r3, r3, #4
 80006c0:	6493      	str	r3, [r2, #72]	; 0x48
 80006c2:	4b21      	ldr	r3, [pc, #132]	; (8000748 <MX_DMA_Init+0x98>)
 80006c4:	6c9b      	ldr	r3, [r3, #72]	; 0x48
 80006c6:	f003 0304 	and.w	r3, r3, #4
 80006ca:	60fb      	str	r3, [r7, #12]
 80006cc:	68fb      	ldr	r3, [r7, #12]
  __HAL_RCC_DMA1_CLK_ENABLE();
 80006ce:	4b1e      	ldr	r3, [pc, #120]	; (8000748 <MX_DMA_Init+0x98>)
 80006d0:	6c9b      	ldr	r3, [r3, #72]	; 0x48
 80006d2:	4a1d      	ldr	r2, [pc, #116]	; (8000748 <MX_DMA_Init+0x98>)
 80006d4:	f043 0301 	orr.w	r3, r3, #1
 80006d8:	6493      	str	r3, [r2, #72]	; 0x48
 80006da:	4b1b      	ldr	r3, [pc, #108]	; (8000748 <MX_DMA_Init+0x98>)
 80006dc:	6c9b      	ldr	r3, [r3, #72]	; 0x48
 80006de:	f003 0301 	and.w	r3, r3, #1
 80006e2:	60bb      	str	r3, [r7, #8]
 80006e4:	68bb      	ldr	r3, [r7, #8]
  __HAL_RCC_DMA2_CLK_ENABLE();
 80006e6:	4b18      	ldr	r3, [pc, #96]	; (8000748 <MX_DMA_Init+0x98>)
 80006e8:	6c9b      	ldr	r3, [r3, #72]	; 0x48
 80006ea:	4a17      	ldr	r2, [pc, #92]	; (8000748 <MX_DMA_Init+0x98>)
 80006ec:	f043 0302 	orr.w	r3, r3, #2
 80006f0:	6493      	str	r3, [r2, #72]	; 0x48
 80006f2:	4b15      	ldr	r3, [pc, #84]	; (8000748 <MX_DMA_Init+0x98>)
 80006f4:	6c9b      	ldr	r3, [r3, #72]	; 0x48
 80006f6:	f003 0302 	and.w	r3, r3, #2
 80006fa:	607b      	str	r3, [r7, #4]
 80006fc:	687b      	ldr	r3, [r7, #4]

  /* DMA interrupt init */
  /* DMA1_Channel1_IRQn interrupt configuration */
  HAL_NVIC_SetPriority(DMA1_Channel1_IRQn, 0, 0);
 80006fe:	2200      	movs	r2, #0
 8000700:	2100      	movs	r1, #0
 8000702:	200b      	movs	r0, #11
 8000704:	f000 ff1b 	bl	800153e <HAL_NVIC_SetPriority>
  HAL_NVIC_EnableIRQ(DMA1_Channel1_IRQn);
 8000708:	200b      	movs	r0, #11
 800070a:	f000 ff32 	bl	8001572 <HAL_NVIC_EnableIRQ>
  /* DMA1_Channel2_IRQn interrupt configuration */
  HAL_NVIC_SetPriority(DMA1_Channel2_IRQn, 0, 0);
 800070e:	2200      	movs	r2, #0
 8000710:	2100      	movs	r1, #0
 8000712:	200c      	movs	r0, #12
 8000714:	f000 ff13 	bl	800153e <HAL_NVIC_SetPriority>
  HAL_NVIC_EnableIRQ(DMA1_Channel2_IRQn);
 8000718:	200c      	movs	r0, #12
 800071a:	f000 ff2a 	bl	8001572 <HAL_NVIC_EnableIRQ>
  /* DMA2_Channel1_IRQn interrupt configuration */
  HAL_NVIC_SetPriority(DMA2_Channel1_IRQn, 0, 0);
 800071e:	2200      	movs	r2, #0
 8000720:	2100      	movs	r1, #0
 8000722:	2038      	movs	r0, #56	; 0x38
 8000724:	f000 ff0b 	bl	800153e <HAL_NVIC_SetPriority>
  HAL_NVIC_EnableIRQ(DMA2_Channel1_IRQn);
 8000728:	2038      	movs	r0, #56	; 0x38
 800072a:	f000 ff22 	bl	8001572 <HAL_NVIC_EnableIRQ>
  /* DMA2_Channel2_IRQn interrupt configuration */
  HAL_NVIC_SetPriority(DMA2_Channel2_IRQn, 0, 0);
 800072e:	2200      	movs	r2, #0
 8000730:	2100      	movs	r1, #0
 8000732:	2039      	movs	r0, #57	; 0x39
 8000734:	f000 ff03 	bl	800153e <HAL_NVIC_SetPriority>
  HAL_NVIC_EnableIRQ(DMA2_Channel2_IRQn);
 8000738:	2039      	movs	r0, #57	; 0x39
 800073a:	f000 ff1a 	bl	8001572 <HAL_NVIC_EnableIRQ>

}
 800073e:	bf00      	nop
 8000740:	3710      	adds	r7, #16
 8000742:	46bd      	mov	sp, r7
 8000744:	bd80      	pop	{r7, pc}
 8000746:	bf00      	nop
 8000748:	40021000 	.word	0x40021000

0800074c <MX_GPIO_Init>:
  * @brief GPIO Initialization Function
  * @param None
  * @retval None
  */
static void MX_GPIO_Init(void)
{
 800074c:	b580      	push	{r7, lr}
 800074e:	b08a      	sub	sp, #40	; 0x28
 8000750:	af00      	add	r7, sp, #0
  GPIO_InitTypeDef GPIO_InitStruct = {0};
 8000752:	f107 0314 	add.w	r3, r7, #20
 8000756:	2200      	movs	r2, #0
 8000758:	601a      	str	r2, [r3, #0]
 800075a:	605a      	str	r2, [r3, #4]
 800075c:	609a      	str	r2, [r3, #8]
 800075e:	60da      	str	r2, [r3, #12]
 8000760:	611a      	str	r2, [r3, #16]

  /* GPIO Ports Clock Enable */
  __HAL_RCC_GPIOC_CLK_ENABLE();
 8000762:	4b2f      	ldr	r3, [pc, #188]	; (8000820 <MX_GPIO_Init+0xd4>)
 8000764:	6cdb      	ldr	r3, [r3, #76]	; 0x4c
 8000766:	4a2e      	ldr	r2, [pc, #184]	; (8000820 <MX_GPIO_Init+0xd4>)
 8000768:	f043 0304 	orr.w	r3, r3, #4
 800076c:	64d3      	str	r3, [r2, #76]	; 0x4c
 800076e:	4b2c      	ldr	r3, [pc, #176]	; (8000820 <MX_GPIO_Init+0xd4>)
 8000770:	6cdb      	ldr	r3, [r3, #76]	; 0x4c
 8000772:	f003 0304 	and.w	r3, r3, #4
 8000776:	613b      	str	r3, [r7, #16]
 8000778:	693b      	ldr	r3, [r7, #16]
  __HAL_RCC_GPIOF_CLK_ENABLE();
 800077a:	4b29      	ldr	r3, [pc, #164]	; (8000820 <MX_GPIO_Init+0xd4>)
 800077c:	6cdb      	ldr	r3, [r3, #76]	; 0x4c
 800077e:	4a28      	ldr	r2, [pc, #160]	; (8000820 <MX_GPIO_Init+0xd4>)
 8000780:	f043 0320 	orr.w	r3, r3, #32
 8000784:	64d3      	str	r3, [r2, #76]	; 0x4c
 8000786:	4b26      	ldr	r3, [pc, #152]	; (8000820 <MX_GPIO_Init+0xd4>)
 8000788:	6cdb      	ldr	r3, [r3, #76]	; 0x4c
 800078a:	f003 0320 	and.w	r3, r3, #32
 800078e:	60fb      	str	r3, [r7, #12]
 8000790:	68fb      	ldr	r3, [r7, #12]
  __HAL_RCC_GPIOA_CLK_ENABLE();
 8000792:	4b23      	ldr	r3, [pc, #140]	; (8000820 <MX_GPIO_Init+0xd4>)
 8000794:	6cdb      	ldr	r3, [r3, #76]	; 0x4c
 8000796:	4a22      	ldr	r2, [pc, #136]	; (8000820 <MX_GPIO_Init+0xd4>)
 8000798:	f043 0301 	orr.w	r3, r3, #1
 800079c:	64d3      	str	r3, [r2, #76]	; 0x4c
 800079e:	4b20      	ldr	r3, [pc, #128]	; (8000820 <MX_GPIO_Init+0xd4>)
 80007a0:	6cdb      	ldr	r3, [r3, #76]	; 0x4c
 80007a2:	f003 0301 	and.w	r3, r3, #1
 80007a6:	60bb      	str	r3, [r7, #8]
 80007a8:	68bb      	ldr	r3, [r7, #8]
  __HAL_RCC_GPIOB_CLK_ENABLE();
 80007aa:	4b1d      	ldr	r3, [pc, #116]	; (8000820 <MX_GPIO_Init+0xd4>)
 80007ac:	6cdb      	ldr	r3, [r3, #76]	; 0x4c
 80007ae:	4a1c      	ldr	r2, [pc, #112]	; (8000820 <MX_GPIO_Init+0xd4>)
 80007b0:	f043 0302 	orr.w	r3, r3, #2
 80007b4:	64d3      	str	r3, [r2, #76]	; 0x4c
 80007b6:	4b1a      	ldr	r3, [pc, #104]	; (8000820 <MX_GPIO_Init+0xd4>)
 80007b8:	6cdb      	ldr	r3, [r3, #76]	; 0x4c
 80007ba:	f003 0302 	and.w	r3, r3, #2
 80007be:	607b      	str	r3, [r7, #4]
 80007c0:	687b      	ldr	r3, [r7, #4]

  /*Configure GPIO pin Output Level */
  HAL_GPIO_WritePin(LED_R_GPIO_Port, LED_R_Pin, GPIO_PIN_RESET);
 80007c2:	2200      	movs	r2, #0
 80007c4:	f44f 5100 	mov.w	r1, #8192	; 0x2000
 80007c8:	4816      	ldr	r0, [pc, #88]	; (8000824 <MX_GPIO_Init+0xd8>)
 80007ca:	f001 fae1 	bl	8001d90 <HAL_GPIO_WritePin>

  /*Configure GPIO pin Output Level */
  HAL_GPIO_WritePin(LED_G_GPIO_Port, LED_G_Pin, GPIO_PIN_RESET);
 80007ce:	2200      	movs	r2, #0
 80007d0:	f44f 7100 	mov.w	r1, #512	; 0x200
 80007d4:	4814      	ldr	r0, [pc, #80]	; (8000828 <MX_GPIO_Init+0xdc>)
 80007d6:	f001 fadb 	bl	8001d90 <HAL_GPIO_WritePin>

  /*Configure GPIO pin : LED_R_Pin */
  GPIO_InitStruct.Pin = LED_R_Pin;
 80007da:	f44f 5300 	mov.w	r3, #8192	; 0x2000
 80007de:	617b      	str	r3, [r7, #20]
  GPIO_InitStruct.Mode = GPIO_MODE_OUTPUT_PP;
 80007e0:	2301      	movs	r3, #1
 80007e2:	61bb      	str	r3, [r7, #24]
  GPIO_InitStruct.Pull = GPIO_NOPULL;
 80007e4:	2300      	movs	r3, #0
 80007e6:	61fb      	str	r3, [r7, #28]
  GPIO_InitStruct.Speed = GPIO_SPEED_FREQ_LOW;
 80007e8:	2300      	movs	r3, #0
 80007ea:	623b      	str	r3, [r7, #32]
  HAL_GPIO_Init(LED_R_GPIO_Port, &GPIO_InitStruct);
 80007ec:	f107 0314 	add.w	r3, r7, #20
 80007f0:	4619      	mov	r1, r3
 80007f2:	480c      	ldr	r0, [pc, #48]	; (8000824 <MX_GPIO_Init+0xd8>)
 80007f4:	f001 f94a 	bl	8001a8c <HAL_GPIO_Init>

  /*Configure GPIO pin : LED_G_Pin */
  GPIO_InitStruct.Pin = LED_G_Pin;
 80007f8:	f44f 7300 	mov.w	r3, #512	; 0x200
 80007fc:	617b      	str	r3, [r7, #20]
  GPIO_InitStruct.Mode = GPIO_MODE_OUTPUT_PP;
 80007fe:	2301      	movs	r3, #1
 8000800:	61bb      	str	r3, [r7, #24]
  GPIO_InitStruct.Pull = GPIO_NOPULL;
 8000802:	2300      	movs	r3, #0
 8000804:	61fb      	str	r3, [r7, #28]
  GPIO_InitStruct.Speed = GPIO_SPEED_FREQ_VERY_HIGH;
 8000806:	2303      	movs	r3, #3
 8000808:	623b      	str	r3, [r7, #32]
  HAL_GPIO_Init(LED_G_GPIO_Port, &GPIO_InitStruct);
 800080a:	f107 0314 	add.w	r3, r7, #20
 800080e:	4619      	mov	r1, r3
 8000810:	4805      	ldr	r0, [pc, #20]	; (8000828 <MX_GPIO_Init+0xdc>)
 8000812:	f001 f93b 	bl	8001a8c <HAL_GPIO_Init>

}
 8000816:	bf00      	nop
 8000818:	3728      	adds	r7, #40	; 0x28
 800081a:	46bd      	mov	sp, r7
 800081c:	bd80      	pop	{r7, pc}
 800081e:	bf00      	nop
 8000820:	40021000 	.word	0x40021000
 8000824:	48000800 	.word	0x48000800
 8000828:	48000400 	.word	0x48000400

0800082c <millis>:
{
  HAL_Delay(ms);
}

uint32_t millis(void)
{
 800082c:	b580      	push	{r7, lr}
 800082e:	af00      	add	r7, sp, #0
  return HAL_GetTick();
 8000830:	f000 fd9e 	bl	8001370 <HAL_GetTick>
 8000834:	4603      	mov	r3, r0
}
 8000836:	4618      	mov	r0, r3
 8000838:	bd80      	pop	{r7, pc}
	...

0800083c <rotateLeft>:
 *
 * @num         Number to rotate.
 * @rotation    Number of times to rotate left.
 */
int rotateLeft(int num, unsigned int rotation)
{
 800083c:	b480      	push	{r7}
 800083e:	b085      	sub	sp, #20
 8000840:	af00      	add	r7, sp, #0
 8000842:	6078      	str	r0, [r7, #4]
 8000844:	6039      	str	r1, [r7, #0]
    int DROPPED_MSB;

    // The effective rotation
    rotation %= INT_BITS;
 8000846:	683a      	ldr	r2, [r7, #0]
 8000848:	4b10      	ldr	r3, [pc, #64]	; (800088c <rotateLeft+0x50>)
 800084a:	fba3 1302 	umull	r1, r3, r3, r2
 800084e:	0919      	lsrs	r1, r3, #4
 8000850:	460b      	mov	r3, r1
 8000852:	009b      	lsls	r3, r3, #2
 8000854:	440b      	add	r3, r1
 8000856:	009b      	lsls	r3, r3, #2
 8000858:	1ad3      	subs	r3, r2, r3
 800085a:	603b      	str	r3, [r7, #0]


    // Loop till rotation becomes 0
    while(rotation--)
 800085c:	e009      	b.n	8000872 <rotateLeft+0x36>
    {
        // Get MSB of num before it gets dropped
        DROPPED_MSB = (num >> INT_BITS) & 1;
 800085e:	687b      	ldr	r3, [r7, #4]
 8000860:	151b      	asrs	r3, r3, #20
 8000862:	f003 0301 	and.w	r3, r3, #1
 8000866:	60fb      	str	r3, [r7, #12]

        // Left rotate num by 1 and
        // Set its dropped MSB as new LSB
        num = (num << 1) | DROPPED_MSB;
 8000868:	687b      	ldr	r3, [r7, #4]
 800086a:	005b      	lsls	r3, r3, #1
 800086c:	68fa      	ldr	r2, [r7, #12]
 800086e:	4313      	orrs	r3, r2
 8000870:	607b      	str	r3, [r7, #4]
    while(rotation--)
 8000872:	683b      	ldr	r3, [r7, #0]
 8000874:	1e5a      	subs	r2, r3, #1
 8000876:	603a      	str	r2, [r7, #0]
 8000878:	2b00      	cmp	r3, #0
 800087a:	d1f0      	bne.n	800085e <rotateLeft+0x22>
    }

    return num;
 800087c:	687b      	ldr	r3, [r7, #4]
}
 800087e:	4618      	mov	r0, r3
 8000880:	3714      	adds	r7, #20
 8000882:	46bd      	mov	sp, r7
 8000884:	f85d 7b04 	ldr.w	r7, [sp], #4
 8000888:	4770      	bx	lr
 800088a:	bf00      	nop
 800088c:	cccccccd 	.word	0xcccccccd

08000890 <rotateRight>:
 *
 * @num         Number to rotate.
 * @rotation    Number of times to rotate right.
 */
int rotateRight(int num, unsigned int rotation)
{
 8000890:	b480      	push	{r7}
 8000892:	b085      	sub	sp, #20
 8000894:	af00      	add	r7, sp, #0
 8000896:	6078      	str	r0, [r7, #4]
 8000898:	6039      	str	r1, [r7, #0]
    int DROPPED_LSB;

    // The effective rotation
    rotation %= INT_BITS;
 800089a:	683a      	ldr	r2, [r7, #0]
 800089c:	4b12      	ldr	r3, [pc, #72]	; (80008e8 <rotateRight+0x58>)
 800089e:	fba3 1302 	umull	r1, r3, r3, r2
 80008a2:	0919      	lsrs	r1, r3, #4
 80008a4:	460b      	mov	r3, r1
 80008a6:	009b      	lsls	r3, r3, #2
 80008a8:	440b      	add	r3, r1
 80008aa:	009b      	lsls	r3, r3, #2
 80008ac:	1ad3      	subs	r3, r2, r3
 80008ae:	603b      	str	r3, [r7, #0]


    // Loop till rotation becomes 0
    while(rotation--)
 80008b0:	e00d      	b.n	80008ce <rotateRight+0x3e>
    {
        // Get LSB of num before it gets dropped
        DROPPED_LSB = num & 1;
 80008b2:	687b      	ldr	r3, [r7, #4]
 80008b4:	f003 0301 	and.w	r3, r3, #1
 80008b8:	60fb      	str	r3, [r7, #12]

        // Right shift num by 1 and
        // Clear its MSB
        num = (num >> 1) & (~(1 << INT_BITS));
 80008ba:	687b      	ldr	r3, [r7, #4]
 80008bc:	105b      	asrs	r3, r3, #1
 80008be:	f423 1380 	bic.w	r3, r3, #1048576	; 0x100000
 80008c2:	607b      	str	r3, [r7, #4]

        // Set its dropped LSB as new MSB
        num = num | (DROPPED_LSB << INT_BITS);
 80008c4:	68fb      	ldr	r3, [r7, #12]
 80008c6:	051b      	lsls	r3, r3, #20
 80008c8:	687a      	ldr	r2, [r7, #4]
 80008ca:	4313      	orrs	r3, r2
 80008cc:	607b      	str	r3, [r7, #4]
    while(rotation--)
 80008ce:	683b      	ldr	r3, [r7, #0]
 80008d0:	1e5a      	subs	r2, r3, #1
 80008d2:	603a      	str	r2, [r7, #0]
 80008d4:	2b00      	cmp	r3, #0
 80008d6:	d1ec      	bne.n	80008b2 <rotateRight+0x22>
    }

    return num;
 80008d8:	687b      	ldr	r3, [r7, #4]
}
 80008da:	4618      	mov	r0, r3
 80008dc:	3714      	adds	r7, #20
 80008de:	46bd      	mov	sp, r7
 80008e0:	f85d 7b04 	ldr.w	r7, [sp], #4
 80008e4:	4770      	bx	lr
 80008e6:	bf00      	nop
 80008e8:	cccccccd 	.word	0xcccccccd

080008ec <Error_Handler>:
/**
  * @brief  This function is executed in case of error occurrence.
  * @retval None
  */
void Error_Handler(void)
{
 80008ec:	b480      	push	{r7}
 80008ee:	af00      	add	r7, sp, #0
  /* USER CODE BEGIN Error_Handler_Debug */
  /* User can add his own implementation to report the HAL error return state */

  /* USER CODE END Error_Handler_Debug */
}
 80008f0:	bf00      	nop
 80008f2:	46bd      	mov	sp, r7
 80008f4:	f85d 7b04 	ldr.w	r7, [sp], #4
 80008f8:	4770      	bx	lr
	...

080008fc <LL_PWR_DisableUCPDDeadBattery>:
  *         control to the UCPD (which should therefore be initialized before doing the disable).
  * @rmtoll CR3          UCPD_DBDIS           LL_PWR_DisableUCPDDeadBattery
  * @retval None
  */
__STATIC_INLINE void LL_PWR_DisableUCPDDeadBattery(void)
{
 80008fc:	b480      	push	{r7}
 80008fe:	af00      	add	r7, sp, #0
  SET_BIT(PWR->CR3, PWR_CR3_UCPD_DBDIS);
 8000900:	4b05      	ldr	r3, [pc, #20]	; (8000918 <LL_PWR_DisableUCPDDeadBattery+0x1c>)
 8000902:	689b      	ldr	r3, [r3, #8]
 8000904:	4a04      	ldr	r2, [pc, #16]	; (8000918 <LL_PWR_DisableUCPDDeadBattery+0x1c>)
 8000906:	f443 4380 	orr.w	r3, r3, #16384	; 0x4000
 800090a:	6093      	str	r3, [r2, #8]
}
 800090c:	bf00      	nop
 800090e:	46bd      	mov	sp, r7
 8000910:	f85d 7b04 	ldr.w	r7, [sp], #4
 8000914:	4770      	bx	lr
 8000916:	bf00      	nop
 8000918:	40007000 	.word	0x40007000

0800091c <HAL_MspInit>:
void HAL_TIM_MspPostInit(TIM_HandleTypeDef *htim);
                                        /**
  * Initializes the Global MSP.
  */
void HAL_MspInit(void)
{
 800091c:	b580      	push	{r7, lr}
 800091e:	b082      	sub	sp, #8
 8000920:	af00      	add	r7, sp, #0
  /* USER CODE BEGIN MspInit 0 */

  /* USER CODE END MspInit 0 */

  __HAL_RCC_SYSCFG_CLK_ENABLE();
 8000922:	4b0f      	ldr	r3, [pc, #60]	; (8000960 <HAL_MspInit+0x44>)
 8000924:	6e1b      	ldr	r3, [r3, #96]	; 0x60
 8000926:	4a0e      	ldr	r2, [pc, #56]	; (8000960 <HAL_MspInit+0x44>)
 8000928:	f043 0301 	orr.w	r3, r3, #1
 800092c:	6613      	str	r3, [r2, #96]	; 0x60
 800092e:	4b0c      	ldr	r3, [pc, #48]	; (8000960 <HAL_MspInit+0x44>)
 8000930:	6e1b      	ldr	r3, [r3, #96]	; 0x60
 8000932:	f003 0301 	and.w	r3, r3, #1
 8000936:	607b      	str	r3, [r7, #4]
 8000938:	687b      	ldr	r3, [r7, #4]
  __HAL_RCC_PWR_CLK_ENABLE();
 800093a:	4b09      	ldr	r3, [pc, #36]	; (8000960 <HAL_MspInit+0x44>)
 800093c:	6d9b      	ldr	r3, [r3, #88]	; 0x58
 800093e:	4a08      	ldr	r2, [pc, #32]	; (8000960 <HAL_MspInit+0x44>)
 8000940:	f043 5380 	orr.w	r3, r3, #268435456	; 0x10000000
 8000944:	6593      	str	r3, [r2, #88]	; 0x58
 8000946:	4b06      	ldr	r3, [pc, #24]	; (8000960 <HAL_MspInit+0x44>)
 8000948:	6d9b      	ldr	r3, [r3, #88]	; 0x58
 800094a:	f003 5380 	and.w	r3, r3, #268435456	; 0x10000000
 800094e:	603b      	str	r3, [r7, #0]
 8000950:	683b      	ldr	r3, [r7, #0]

  /* System interrupt init*/

  /** Disable the internal Pull-Up in Dead Battery pins of UCPD peripheral 
  */
  LL_PWR_DisableDeadBatteryPD();
 8000952:	f7ff ffd3 	bl	80008fc <LL_PWR_DisableUCPDDeadBattery>

  /* USER CODE BEGIN MspInit 1 */

  /* USER CODE END MspInit 1 */
}
 8000956:	bf00      	nop
 8000958:	3708      	adds	r7, #8
 800095a:	46bd      	mov	sp, r7
 800095c:	bd80      	pop	{r7, pc}
 800095e:	bf00      	nop
 8000960:	40021000 	.word	0x40021000

08000964 <HAL_SPI_MspInit>:
* This function configures the hardware resources used in this example
* @param hspi: SPI handle pointer
* @retval None
*/
void HAL_SPI_MspInit(SPI_HandleTypeDef* hspi)
{
 8000964:	b580      	push	{r7, lr}
 8000966:	b08a      	sub	sp, #40	; 0x28
 8000968:	af00      	add	r7, sp, #0
 800096a:	6078      	str	r0, [r7, #4]
  GPIO_InitTypeDef GPIO_InitStruct = {0};
 800096c:	f107 0314 	add.w	r3, r7, #20
 8000970:	2200      	movs	r2, #0
 8000972:	601a      	str	r2, [r3, #0]
 8000974:	605a      	str	r2, [r3, #4]
 8000976:	609a      	str	r2, [r3, #8]
 8000978:	60da      	str	r2, [r3, #12]
 800097a:	611a      	str	r2, [r3, #16]
  if(hspi->Instance==SPI1)
 800097c:	687b      	ldr	r3, [r7, #4]
 800097e:	681b      	ldr	r3, [r3, #0]
 8000980:	4a51      	ldr	r2, [pc, #324]	; (8000ac8 <HAL_SPI_MspInit+0x164>)
 8000982:	4293      	cmp	r3, r2
 8000984:	f040 809b 	bne.w	8000abe <HAL_SPI_MspInit+0x15a>
  {
  /* USER CODE BEGIN SPI1_MspInit 0 */

  /* USER CODE END SPI1_MspInit 0 */
    /* Peripheral clock enable */
    __HAL_RCC_SPI1_CLK_ENABLE();
 8000988:	4b50      	ldr	r3, [pc, #320]	; (8000acc <HAL_SPI_MspInit+0x168>)
 800098a:	6e1b      	ldr	r3, [r3, #96]	; 0x60
 800098c:	4a4f      	ldr	r2, [pc, #316]	; (8000acc <HAL_SPI_MspInit+0x168>)
 800098e:	f443 5380 	orr.w	r3, r3, #4096	; 0x1000
 8000992:	6613      	str	r3, [r2, #96]	; 0x60
 8000994:	4b4d      	ldr	r3, [pc, #308]	; (8000acc <HAL_SPI_MspInit+0x168>)
 8000996:	6e1b      	ldr	r3, [r3, #96]	; 0x60
 8000998:	f403 5380 	and.w	r3, r3, #4096	; 0x1000
 800099c:	613b      	str	r3, [r7, #16]
 800099e:	693b      	ldr	r3, [r7, #16]
  
    __HAL_RCC_GPIOA_CLK_ENABLE();
 80009a0:	4b4a      	ldr	r3, [pc, #296]	; (8000acc <HAL_SPI_MspInit+0x168>)
 80009a2:	6cdb      	ldr	r3, [r3, #76]	; 0x4c
 80009a4:	4a49      	ldr	r2, [pc, #292]	; (8000acc <HAL_SPI_MspInit+0x168>)
 80009a6:	f043 0301 	orr.w	r3, r3, #1
 80009aa:	64d3      	str	r3, [r2, #76]	; 0x4c
 80009ac:	4b47      	ldr	r3, [pc, #284]	; (8000acc <HAL_SPI_MspInit+0x168>)
 80009ae:	6cdb      	ldr	r3, [r3, #76]	; 0x4c
 80009b0:	f003 0301 	and.w	r3, r3, #1
 80009b4:	60fb      	str	r3, [r7, #12]
 80009b6:	68fb      	ldr	r3, [r7, #12]
    __HAL_RCC_GPIOB_CLK_ENABLE();
 80009b8:	4b44      	ldr	r3, [pc, #272]	; (8000acc <HAL_SPI_MspInit+0x168>)
 80009ba:	6cdb      	ldr	r3, [r3, #76]	; 0x4c
 80009bc:	4a43      	ldr	r2, [pc, #268]	; (8000acc <HAL_SPI_MspInit+0x168>)
 80009be:	f043 0302 	orr.w	r3, r3, #2
 80009c2:	64d3      	str	r3, [r2, #76]	; 0x4c
 80009c4:	4b41      	ldr	r3, [pc, #260]	; (8000acc <HAL_SPI_MspInit+0x168>)
 80009c6:	6cdb      	ldr	r3, [r3, #76]	; 0x4c
 80009c8:	f003 0302 	and.w	r3, r3, #2
 80009cc:	60bb      	str	r3, [r7, #8]
 80009ce:	68bb      	ldr	r3, [r7, #8]
    /**SPI1 GPIO Configuration    
    PA5     ------> SPI1_SCK
    PA6     ------> SPI1_MISO
    PB5     ------> SPI1_MOSI 
    */
    GPIO_InitStruct.Pin = GPIO_PIN_5|GPIO_PIN_6;
 80009d0:	2360      	movs	r3, #96	; 0x60
 80009d2:	617b      	str	r3, [r7, #20]
    GPIO_InitStruct.Mode = GPIO_MODE_AF_PP;
 80009d4:	2302      	movs	r3, #2
 80009d6:	61bb      	str	r3, [r7, #24]
    GPIO_InitStruct.Pull = GPIO_NOPULL;
 80009d8:	2300      	movs	r3, #0
 80009da:	61fb      	str	r3, [r7, #28]
    GPIO_InitStruct.Speed = GPIO_SPEED_FREQ_VERY_HIGH;
 80009dc:	2303      	movs	r3, #3
 80009de:	623b      	str	r3, [r7, #32]
    GPIO_InitStruct.Alternate = GPIO_AF5_SPI1;
 80009e0:	2305      	movs	r3, #5
 80009e2:	627b      	str	r3, [r7, #36]	; 0x24
    HAL_GPIO_Init(GPIOA, &GPIO_InitStruct);
 80009e4:	f107 0314 	add.w	r3, r7, #20
 80009e8:	4619      	mov	r1, r3
 80009ea:	f04f 4090 	mov.w	r0, #1207959552	; 0x48000000
 80009ee:	f001 f84d 	bl	8001a8c <HAL_GPIO_Init>

    GPIO_InitStruct.Pin = GPIO_PIN_5;
 80009f2:	2320      	movs	r3, #32
 80009f4:	617b      	str	r3, [r7, #20]
    GPIO_InitStruct.Mode = GPIO_MODE_AF_PP;
 80009f6:	2302      	movs	r3, #2
 80009f8:	61bb      	str	r3, [r7, #24]
    GPIO_InitStruct.Pull = GPIO_NOPULL;
 80009fa:	2300      	movs	r3, #0
 80009fc:	61fb      	str	r3, [r7, #28]
    GPIO_InitStruct.Speed = GPIO_SPEED_FREQ_VERY_HIGH;
 80009fe:	2303      	movs	r3, #3
 8000a00:	623b      	str	r3, [r7, #32]
    GPIO_InitStruct.Alternate = GPIO_AF5_SPI1;
 8000a02:	2305      	movs	r3, #5
 8000a04:	627b      	str	r3, [r7, #36]	; 0x24
    HAL_GPIO_Init(GPIOB, &GPIO_InitStruct);
 8000a06:	f107 0314 	add.w	r3, r7, #20
 8000a0a:	4619      	mov	r1, r3
 8000a0c:	4830      	ldr	r0, [pc, #192]	; (8000ad0 <HAL_SPI_MspInit+0x16c>)
 8000a0e:	f001 f83d 	bl	8001a8c <HAL_GPIO_Init>

    /* SPI1 DMA Init */
    /* SPI1_RX Init */
    hdma_spi1_rx.Instance = DMA2_Channel1;
 8000a12:	4b30      	ldr	r3, [pc, #192]	; (8000ad4 <HAL_SPI_MspInit+0x170>)
 8000a14:	4a30      	ldr	r2, [pc, #192]	; (8000ad8 <HAL_SPI_MspInit+0x174>)
 8000a16:	601a      	str	r2, [r3, #0]
    hdma_spi1_rx.Init.Request = DMA_REQUEST_SPI1_RX;
 8000a18:	4b2e      	ldr	r3, [pc, #184]	; (8000ad4 <HAL_SPI_MspInit+0x170>)
 8000a1a:	220a      	movs	r2, #10
 8000a1c:	605a      	str	r2, [r3, #4]
    hdma_spi1_rx.Init.Direction = DMA_PERIPH_TO_MEMORY;
 8000a1e:	4b2d      	ldr	r3, [pc, #180]	; (8000ad4 <HAL_SPI_MspInit+0x170>)
 8000a20:	2200      	movs	r2, #0
 8000a22:	609a      	str	r2, [r3, #8]
    hdma_spi1_rx.Init.PeriphInc = DMA_PINC_DISABLE;
 8000a24:	4b2b      	ldr	r3, [pc, #172]	; (8000ad4 <HAL_SPI_MspInit+0x170>)
 8000a26:	2200      	movs	r2, #0
 8000a28:	60da      	str	r2, [r3, #12]
    hdma_spi1_rx.Init.MemInc = DMA_MINC_ENABLE;
 8000a2a:	4b2a      	ldr	r3, [pc, #168]	; (8000ad4 <HAL_SPI_MspInit+0x170>)
 8000a2c:	2280      	movs	r2, #128	; 0x80
 8000a2e:	611a      	str	r2, [r3, #16]
    hdma_spi1_rx.Init.PeriphDataAlignment = DMA_PDATAALIGN_HALFWORD;
 8000a30:	4b28      	ldr	r3, [pc, #160]	; (8000ad4 <HAL_SPI_MspInit+0x170>)
 8000a32:	f44f 7280 	mov.w	r2, #256	; 0x100
 8000a36:	615a      	str	r2, [r3, #20]
    hdma_spi1_rx.Init.MemDataAlignment = DMA_MDATAALIGN_HALFWORD;
 8000a38:	4b26      	ldr	r3, [pc, #152]	; (8000ad4 <HAL_SPI_MspInit+0x170>)
 8000a3a:	f44f 6280 	mov.w	r2, #1024	; 0x400
 8000a3e:	619a      	str	r2, [r3, #24]
    hdma_spi1_rx.Init.Mode = DMA_NORMAL;
 8000a40:	4b24      	ldr	r3, [pc, #144]	; (8000ad4 <HAL_SPI_MspInit+0x170>)
 8000a42:	2200      	movs	r2, #0
 8000a44:	61da      	str	r2, [r3, #28]
    hdma_spi1_rx.Init.Priority = DMA_PRIORITY_LOW;
 8000a46:	4b23      	ldr	r3, [pc, #140]	; (8000ad4 <HAL_SPI_MspInit+0x170>)
 8000a48:	2200      	movs	r2, #0
 8000a4a:	621a      	str	r2, [r3, #32]
    if (HAL_DMA_Init(&hdma_spi1_rx) != HAL_OK)
 8000a4c:	4821      	ldr	r0, [pc, #132]	; (8000ad4 <HAL_SPI_MspInit+0x170>)
 8000a4e:	f000 fdab 	bl	80015a8 <HAL_DMA_Init>
 8000a52:	4603      	mov	r3, r0
 8000a54:	2b00      	cmp	r3, #0
 8000a56:	d001      	beq.n	8000a5c <HAL_SPI_MspInit+0xf8>
    {
      Error_Handler();
 8000a58:	f7ff ff48 	bl	80008ec <Error_Handler>
    }

    __HAL_LINKDMA(hspi,hdmarx,hdma_spi1_rx);
 8000a5c:	687b      	ldr	r3, [r7, #4]
 8000a5e:	4a1d      	ldr	r2, [pc, #116]	; (8000ad4 <HAL_SPI_MspInit+0x170>)
 8000a60:	659a      	str	r2, [r3, #88]	; 0x58
 8000a62:	4a1c      	ldr	r2, [pc, #112]	; (8000ad4 <HAL_SPI_MspInit+0x170>)
 8000a64:	687b      	ldr	r3, [r7, #4]
 8000a66:	6293      	str	r3, [r2, #40]	; 0x28

    /* SPI1_TX Init */
    hdma_spi1_tx.Instance = DMA2_Channel2;
 8000a68:	4b1c      	ldr	r3, [pc, #112]	; (8000adc <HAL_SPI_MspInit+0x178>)
 8000a6a:	4a1d      	ldr	r2, [pc, #116]	; (8000ae0 <HAL_SPI_MspInit+0x17c>)
 8000a6c:	601a      	str	r2, [r3, #0]
    hdma_spi1_tx.Init.Request = DMA_REQUEST_SPI1_TX;
 8000a6e:	4b1b      	ldr	r3, [pc, #108]	; (8000adc <HAL_SPI_MspInit+0x178>)
 8000a70:	220b      	movs	r2, #11
 8000a72:	605a      	str	r2, [r3, #4]
    hdma_spi1_tx.Init.Direction = DMA_MEMORY_TO_PERIPH;
 8000a74:	4b19      	ldr	r3, [pc, #100]	; (8000adc <HAL_SPI_MspInit+0x178>)
 8000a76:	2210      	movs	r2, #16
 8000a78:	609a      	str	r2, [r3, #8]
    hdma_spi1_tx.Init.PeriphInc = DMA_PINC_DISABLE;
 8000a7a:	4b18      	ldr	r3, [pc, #96]	; (8000adc <HAL_SPI_MspInit+0x178>)
 8000a7c:	2200      	movs	r2, #0
 8000a7e:	60da      	str	r2, [r3, #12]
    hdma_spi1_tx.Init.MemInc = DMA_MINC_ENABLE;
 8000a80:	4b16      	ldr	r3, [pc, #88]	; (8000adc <HAL_SPI_MspInit+0x178>)
 8000a82:	2280      	movs	r2, #128	; 0x80
 8000a84:	611a      	str	r2, [r3, #16]
    hdma_spi1_tx.Init.PeriphDataAlignment = DMA_PDATAALIGN_HALFWORD;
 8000a86:	4b15      	ldr	r3, [pc, #84]	; (8000adc <HAL_SPI_MspInit+0x178>)
 8000a88:	f44f 7280 	mov.w	r2, #256	; 0x100
 8000a8c:	615a      	str	r2, [r3, #20]
    hdma_spi1_tx.Init.MemDataAlignment = DMA_MDATAALIGN_HALFWORD;
 8000a8e:	4b13      	ldr	r3, [pc, #76]	; (8000adc <HAL_SPI_MspInit+0x178>)
 8000a90:	f44f 6280 	mov.w	r2, #1024	; 0x400
 8000a94:	619a      	str	r2, [r3, #24]
    hdma_spi1_tx.Init.Mode = DMA_NORMAL;
 8000a96:	4b11      	ldr	r3, [pc, #68]	; (8000adc <HAL_SPI_MspInit+0x178>)
 8000a98:	2200      	movs	r2, #0
 8000a9a:	61da      	str	r2, [r3, #28]
    hdma_spi1_tx.Init.Priority = DMA_PRIORITY_LOW;
 8000a9c:	4b0f      	ldr	r3, [pc, #60]	; (8000adc <HAL_SPI_MspInit+0x178>)
 8000a9e:	2200      	movs	r2, #0
 8000aa0:	621a      	str	r2, [r3, #32]
    if (HAL_DMA_Init(&hdma_spi1_tx) != HAL_OK)
 8000aa2:	480e      	ldr	r0, [pc, #56]	; (8000adc <HAL_SPI_MspInit+0x178>)
 8000aa4:	f000 fd80 	bl	80015a8 <HAL_DMA_Init>
 8000aa8:	4603      	mov	r3, r0
 8000aaa:	2b00      	cmp	r3, #0
 8000aac:	d001      	beq.n	8000ab2 <HAL_SPI_MspInit+0x14e>
    {
      Error_Handler();
 8000aae:	f7ff ff1d 	bl	80008ec <Error_Handler>
    }

    __HAL_LINKDMA(hspi,hdmatx,hdma_spi1_tx);
 8000ab2:	687b      	ldr	r3, [r7, #4]
 8000ab4:	4a09      	ldr	r2, [pc, #36]	; (8000adc <HAL_SPI_MspInit+0x178>)
 8000ab6:	655a      	str	r2, [r3, #84]	; 0x54
 8000ab8:	4a08      	ldr	r2, [pc, #32]	; (8000adc <HAL_SPI_MspInit+0x178>)
 8000aba:	687b      	ldr	r3, [r7, #4]
 8000abc:	6293      	str	r3, [r2, #40]	; 0x28
  /* USER CODE BEGIN SPI1_MspInit 1 */

  /* USER CODE END SPI1_MspInit 1 */
  }

}
 8000abe:	bf00      	nop
 8000ac0:	3728      	adds	r7, #40	; 0x28
 8000ac2:	46bd      	mov	sp, r7
 8000ac4:	bd80      	pop	{r7, pc}
 8000ac6:	bf00      	nop
 8000ac8:	40013000 	.word	0x40013000
 8000acc:	40021000 	.word	0x40021000
 8000ad0:	48000400 	.word	0x48000400
 8000ad4:	2000178c 	.word	0x2000178c
 8000ad8:	40020408 	.word	0x40020408
 8000adc:	20001850 	.word	0x20001850
 8000ae0:	4002041c 	.word	0x4002041c

08000ae4 <HAL_TIM_PWM_MspInit>:
* This function configures the hardware resources used in this example
* @param htim_pwm: TIM_PWM handle pointer
* @retval None
*/
void HAL_TIM_PWM_MspInit(TIM_HandleTypeDef* htim_pwm)
{
 8000ae4:	b580      	push	{r7, lr}
 8000ae6:	b084      	sub	sp, #16
 8000ae8:	af00      	add	r7, sp, #0
 8000aea:	6078      	str	r0, [r7, #4]
  if(htim_pwm->Instance==TIM2)
 8000aec:	687b      	ldr	r3, [r7, #4]
 8000aee:	681b      	ldr	r3, [r3, #0]
 8000af0:	f1b3 4f80 	cmp.w	r3, #1073741824	; 0x40000000
 8000af4:	d135      	bne.n	8000b62 <HAL_TIM_PWM_MspInit+0x7e>
  {
  /* USER CODE BEGIN TIM2_MspInit 0 */

  /* USER CODE END TIM2_MspInit 0 */
    /* Peripheral clock enable */
    __HAL_RCC_TIM2_CLK_ENABLE();
 8000af6:	4b1d      	ldr	r3, [pc, #116]	; (8000b6c <HAL_TIM_PWM_MspInit+0x88>)
 8000af8:	6d9b      	ldr	r3, [r3, #88]	; 0x58
 8000afa:	4a1c      	ldr	r2, [pc, #112]	; (8000b6c <HAL_TIM_PWM_MspInit+0x88>)
 8000afc:	f043 0301 	orr.w	r3, r3, #1
 8000b00:	6593      	str	r3, [r2, #88]	; 0x58
 8000b02:	4b1a      	ldr	r3, [pc, #104]	; (8000b6c <HAL_TIM_PWM_MspInit+0x88>)
 8000b04:	6d9b      	ldr	r3, [r3, #88]	; 0x58
 8000b06:	f003 0301 	and.w	r3, r3, #1
 8000b0a:	60fb      	str	r3, [r7, #12]
 8000b0c:	68fb      	ldr	r3, [r7, #12]
  
    /* TIM2 DMA Init */
    /* TIM2_CH1 Init */
    hdma_tim2_ch1.Instance = DMA1_Channel1;
 8000b0e:	4b18      	ldr	r3, [pc, #96]	; (8000b70 <HAL_TIM_PWM_MspInit+0x8c>)
 8000b10:	4a18      	ldr	r2, [pc, #96]	; (8000b74 <HAL_TIM_PWM_MspInit+0x90>)
 8000b12:	601a      	str	r2, [r3, #0]
    hdma_tim2_ch1.Init.Request = DMA_REQUEST_TIM2_CH1;
 8000b14:	4b16      	ldr	r3, [pc, #88]	; (8000b70 <HAL_TIM_PWM_MspInit+0x8c>)
 8000b16:	2238      	movs	r2, #56	; 0x38
 8000b18:	605a      	str	r2, [r3, #4]
    hdma_tim2_ch1.Init.Direction = DMA_MEMORY_TO_PERIPH;
 8000b1a:	4b15      	ldr	r3, [pc, #84]	; (8000b70 <HAL_TIM_PWM_MspInit+0x8c>)
 8000b1c:	2210      	movs	r2, #16
 8000b1e:	609a      	str	r2, [r3, #8]
    hdma_tim2_ch1.Init.PeriphInc = DMA_PINC_DISABLE;
 8000b20:	4b13      	ldr	r3, [pc, #76]	; (8000b70 <HAL_TIM_PWM_MspInit+0x8c>)
 8000b22:	2200      	movs	r2, #0
 8000b24:	60da      	str	r2, [r3, #12]
    hdma_tim2_ch1.Init.MemInc = DMA_MINC_ENABLE;
 8000b26:	4b12      	ldr	r3, [pc, #72]	; (8000b70 <HAL_TIM_PWM_MspInit+0x8c>)
 8000b28:	2280      	movs	r2, #128	; 0x80
 8000b2a:	611a      	str	r2, [r3, #16]
    hdma_tim2_ch1.Init.PeriphDataAlignment = DMA_PDATAALIGN_WORD;
 8000b2c:	4b10      	ldr	r3, [pc, #64]	; (8000b70 <HAL_TIM_PWM_MspInit+0x8c>)
 8000b2e:	f44f 7200 	mov.w	r2, #512	; 0x200
 8000b32:	615a      	str	r2, [r3, #20]
    hdma_tim2_ch1.Init.MemDataAlignment = DMA_MDATAALIGN_BYTE;
 8000b34:	4b0e      	ldr	r3, [pc, #56]	; (8000b70 <HAL_TIM_PWM_MspInit+0x8c>)
 8000b36:	2200      	movs	r2, #0
 8000b38:	619a      	str	r2, [r3, #24]
    hdma_tim2_ch1.Init.Mode = DMA_CIRCULAR;
 8000b3a:	4b0d      	ldr	r3, [pc, #52]	; (8000b70 <HAL_TIM_PWM_MspInit+0x8c>)
 8000b3c:	2220      	movs	r2, #32
 8000b3e:	61da      	str	r2, [r3, #28]
    hdma_tim2_ch1.Init.Priority = DMA_PRIORITY_LOW;
 8000b40:	4b0b      	ldr	r3, [pc, #44]	; (8000b70 <HAL_TIM_PWM_MspInit+0x8c>)
 8000b42:	2200      	movs	r2, #0
 8000b44:	621a      	str	r2, [r3, #32]
    if (HAL_DMA_Init(&hdma_tim2_ch1) != HAL_OK)
 8000b46:	480a      	ldr	r0, [pc, #40]	; (8000b70 <HAL_TIM_PWM_MspInit+0x8c>)
 8000b48:	f000 fd2e 	bl	80015a8 <HAL_DMA_Init>
 8000b4c:	4603      	mov	r3, r0
 8000b4e:	2b00      	cmp	r3, #0
 8000b50:	d001      	beq.n	8000b56 <HAL_TIM_PWM_MspInit+0x72>
    {
      Error_Handler();
 8000b52:	f7ff fecb 	bl	80008ec <Error_Handler>
    }

    __HAL_LINKDMA(htim_pwm,hdma[TIM_DMA_ID_CC1],hdma_tim2_ch1);
 8000b56:	687b      	ldr	r3, [r7, #4]
 8000b58:	4a05      	ldr	r2, [pc, #20]	; (8000b70 <HAL_TIM_PWM_MspInit+0x8c>)
 8000b5a:	625a      	str	r2, [r3, #36]	; 0x24
 8000b5c:	4a04      	ldr	r2, [pc, #16]	; (8000b70 <HAL_TIM_PWM_MspInit+0x8c>)
 8000b5e:	687b      	ldr	r3, [r7, #4]
 8000b60:	6293      	str	r3, [r2, #40]	; 0x28
  /* USER CODE BEGIN TIM2_MspInit 1 */

  /* USER CODE END TIM2_MspInit 1 */
  }

}
 8000b62:	bf00      	nop
 8000b64:	3710      	adds	r7, #16
 8000b66:	46bd      	mov	sp, r7
 8000b68:	bd80      	pop	{r7, pc}
 8000b6a:	bf00      	nop
 8000b6c:	40021000 	.word	0x40021000
 8000b70:	20001628 	.word	0x20001628
 8000b74:	40020008 	.word	0x40020008

08000b78 <HAL_TIM_Base_MspInit>:
* This function configures the hardware resources used in this example
* @param htim_base: TIM_Base handle pointer
* @retval None
*/
void HAL_TIM_Base_MspInit(TIM_HandleTypeDef* htim_base)
{
 8000b78:	b580      	push	{r7, lr}
 8000b7a:	b084      	sub	sp, #16
 8000b7c:	af00      	add	r7, sp, #0
 8000b7e:	6078      	str	r0, [r7, #4]
  if(htim_base->Instance==TIM17)
 8000b80:	687b      	ldr	r3, [r7, #4]
 8000b82:	681b      	ldr	r3, [r3, #0]
 8000b84:	4a1e      	ldr	r2, [pc, #120]	; (8000c00 <HAL_TIM_Base_MspInit+0x88>)
 8000b86:	4293      	cmp	r3, r2
 8000b88:	d135      	bne.n	8000bf6 <HAL_TIM_Base_MspInit+0x7e>
  {
  /* USER CODE BEGIN TIM17_MspInit 0 */

  /* USER CODE END TIM17_MspInit 0 */
    /* Peripheral clock enable */
    __HAL_RCC_TIM17_CLK_ENABLE();
 8000b8a:	4b1e      	ldr	r3, [pc, #120]	; (8000c04 <HAL_TIM_Base_MspInit+0x8c>)
 8000b8c:	6e1b      	ldr	r3, [r3, #96]	; 0x60
 8000b8e:	4a1d      	ldr	r2, [pc, #116]	; (8000c04 <HAL_TIM_Base_MspInit+0x8c>)
 8000b90:	f443 2380 	orr.w	r3, r3, #262144	; 0x40000
 8000b94:	6613      	str	r3, [r2, #96]	; 0x60
 8000b96:	4b1b      	ldr	r3, [pc, #108]	; (8000c04 <HAL_TIM_Base_MspInit+0x8c>)
 8000b98:	6e1b      	ldr	r3, [r3, #96]	; 0x60
 8000b9a:	f403 2380 	and.w	r3, r3, #262144	; 0x40000
 8000b9e:	60fb      	str	r3, [r7, #12]
 8000ba0:	68fb      	ldr	r3, [r7, #12]
  
    /* TIM17 DMA Init */
    /* TIM17_CH1 Init */
    hdma_tim17_ch1.Instance = DMA1_Channel2;
 8000ba2:	4b19      	ldr	r3, [pc, #100]	; (8000c08 <HAL_TIM_Base_MspInit+0x90>)
 8000ba4:	4a19      	ldr	r2, [pc, #100]	; (8000c0c <HAL_TIM_Base_MspInit+0x94>)
 8000ba6:	601a      	str	r2, [r3, #0]
    hdma_tim17_ch1.Init.Request = DMA_REQUEST_TIM17_CH1;
 8000ba8:	4b17      	ldr	r3, [pc, #92]	; (8000c08 <HAL_TIM_Base_MspInit+0x90>)
 8000baa:	2254      	movs	r2, #84	; 0x54
 8000bac:	605a      	str	r2, [r3, #4]
    hdma_tim17_ch1.Init.Direction = DMA_MEMORY_TO_PERIPH;
 8000bae:	4b16      	ldr	r3, [pc, #88]	; (8000c08 <HAL_TIM_Base_MspInit+0x90>)
 8000bb0:	2210      	movs	r2, #16
 8000bb2:	609a      	str	r2, [r3, #8]
    hdma_tim17_ch1.Init.PeriphInc = DMA_PINC_DISABLE;
 8000bb4:	4b14      	ldr	r3, [pc, #80]	; (8000c08 <HAL_TIM_Base_MspInit+0x90>)
 8000bb6:	2200      	movs	r2, #0
 8000bb8:	60da      	str	r2, [r3, #12]
    hdma_tim17_ch1.Init.MemInc = DMA_MINC_ENABLE;
 8000bba:	4b13      	ldr	r3, [pc, #76]	; (8000c08 <HAL_TIM_Base_MspInit+0x90>)
 8000bbc:	2280      	movs	r2, #128	; 0x80
 8000bbe:	611a      	str	r2, [r3, #16]
    hdma_tim17_ch1.Init.PeriphDataAlignment = DMA_PDATAALIGN_WORD;
 8000bc0:	4b11      	ldr	r3, [pc, #68]	; (8000c08 <HAL_TIM_Base_MspInit+0x90>)
 8000bc2:	f44f 7200 	mov.w	r2, #512	; 0x200
 8000bc6:	615a      	str	r2, [r3, #20]
    hdma_tim17_ch1.Init.MemDataAlignment = DMA_MDATAALIGN_BYTE;
 8000bc8:	4b0f      	ldr	r3, [pc, #60]	; (8000c08 <HAL_TIM_Base_MspInit+0x90>)
 8000bca:	2200      	movs	r2, #0
 8000bcc:	619a      	str	r2, [r3, #24]
    hdma_tim17_ch1.Init.Mode = DMA_CIRCULAR;
 8000bce:	4b0e      	ldr	r3, [pc, #56]	; (8000c08 <HAL_TIM_Base_MspInit+0x90>)
 8000bd0:	2220      	movs	r2, #32
 8000bd2:	61da      	str	r2, [r3, #28]
    hdma_tim17_ch1.Init.Priority = DMA_PRIORITY_LOW;
 8000bd4:	4b0c      	ldr	r3, [pc, #48]	; (8000c08 <HAL_TIM_Base_MspInit+0x90>)
 8000bd6:	2200      	movs	r2, #0
 8000bd8:	621a      	str	r2, [r3, #32]
    if (HAL_DMA_Init(&hdma_tim17_ch1) != HAL_OK)
 8000bda:	480b      	ldr	r0, [pc, #44]	; (8000c08 <HAL_TIM_Base_MspInit+0x90>)
 8000bdc:	f000 fce4 	bl	80015a8 <HAL_DMA_Init>
 8000be0:	4603      	mov	r3, r0
 8000be2:	2b00      	cmp	r3, #0
 8000be4:	d001      	beq.n	8000bea <HAL_TIM_Base_MspInit+0x72>
    {
      Error_Handler();
 8000be6:	f7ff fe81 	bl	80008ec <Error_Handler>
    }

    __HAL_LINKDMA(htim_base,hdma[TIM_DMA_ID_CC1],hdma_tim17_ch1);
 8000bea:	687b      	ldr	r3, [r7, #4]
 8000bec:	4a06      	ldr	r2, [pc, #24]	; (8000c08 <HAL_TIM_Base_MspInit+0x90>)
 8000bee:	625a      	str	r2, [r3, #36]	; 0x24
 8000bf0:	4a05      	ldr	r2, [pc, #20]	; (8000c08 <HAL_TIM_Base_MspInit+0x90>)
 8000bf2:	687b      	ldr	r3, [r7, #4]
 8000bf4:	6293      	str	r3, [r2, #40]	; 0x28
  /* USER CODE BEGIN TIM17_MspInit 1 */

  /* USER CODE END TIM17_MspInit 1 */
  }

}
 8000bf6:	bf00      	nop
 8000bf8:	3710      	adds	r7, #16
 8000bfa:	46bd      	mov	sp, r7
 8000bfc:	bd80      	pop	{r7, pc}
 8000bfe:	bf00      	nop
 8000c00:	40014800 	.word	0x40014800
 8000c04:	40021000 	.word	0x40021000
 8000c08:	200017f0 	.word	0x200017f0
 8000c0c:	4002001c 	.word	0x4002001c

08000c10 <HAL_TIM_MspPostInit>:

void HAL_TIM_MspPostInit(TIM_HandleTypeDef* htim)
{
 8000c10:	b580      	push	{r7, lr}
 8000c12:	b08a      	sub	sp, #40	; 0x28
 8000c14:	af00      	add	r7, sp, #0
 8000c16:	6078      	str	r0, [r7, #4]
  GPIO_InitTypeDef GPIO_InitStruct = {0};
 8000c18:	f107 0314 	add.w	r3, r7, #20
 8000c1c:	2200      	movs	r2, #0
 8000c1e:	601a      	str	r2, [r3, #0]
 8000c20:	605a      	str	r2, [r3, #4]
 8000c22:	609a      	str	r2, [r3, #8]
 8000c24:	60da      	str	r2, [r3, #12]
 8000c26:	611a      	str	r2, [r3, #16]
  if(htim->Instance==TIM2)
 8000c28:	687b      	ldr	r3, [r7, #4]
 8000c2a:	681b      	ldr	r3, [r3, #0]
 8000c2c:	f1b3 4f80 	cmp.w	r3, #1073741824	; 0x40000000
 8000c30:	d11d      	bne.n	8000c6e <HAL_TIM_MspPostInit+0x5e>
  {
  /* USER CODE BEGIN TIM2_MspPostInit 0 */

  /* USER CODE END TIM2_MspPostInit 0 */
    __HAL_RCC_GPIOA_CLK_ENABLE();
 8000c32:	4b22      	ldr	r3, [pc, #136]	; (8000cbc <HAL_TIM_MspPostInit+0xac>)
 8000c34:	6cdb      	ldr	r3, [r3, #76]	; 0x4c
 8000c36:	4a21      	ldr	r2, [pc, #132]	; (8000cbc <HAL_TIM_MspPostInit+0xac>)
 8000c38:	f043 0301 	orr.w	r3, r3, #1
 8000c3c:	64d3      	str	r3, [r2, #76]	; 0x4c
 8000c3e:	4b1f      	ldr	r3, [pc, #124]	; (8000cbc <HAL_TIM_MspPostInit+0xac>)
 8000c40:	6cdb      	ldr	r3, [r3, #76]	; 0x4c
 8000c42:	f003 0301 	and.w	r3, r3, #1
 8000c46:	613b      	str	r3, [r7, #16]
 8000c48:	693b      	ldr	r3, [r7, #16]
    /**TIM2 GPIO Configuration    
    PA0     ------> TIM2_CH1 
    */
    GPIO_InitStruct.Pin = GPIO_PIN_0;
 8000c4a:	2301      	movs	r3, #1
 8000c4c:	617b      	str	r3, [r7, #20]
    GPIO_InitStruct.Mode = GPIO_MODE_AF_PP;
 8000c4e:	2302      	movs	r3, #2
 8000c50:	61bb      	str	r3, [r7, #24]
    GPIO_InitStruct.Pull = GPIO_NOPULL;
 8000c52:	2300      	movs	r3, #0
 8000c54:	61fb      	str	r3, [r7, #28]
    GPIO_InitStruct.Speed = GPIO_SPEED_FREQ_VERY_HIGH;
 8000c56:	2303      	movs	r3, #3
 8000c58:	623b      	str	r3, [r7, #32]
    GPIO_InitStruct.Alternate = GPIO_AF1_TIM2;
 8000c5a:	2301      	movs	r3, #1
 8000c5c:	627b      	str	r3, [r7, #36]	; 0x24
    HAL_GPIO_Init(GPIOA, &GPIO_InitStruct);
 8000c5e:	f107 0314 	add.w	r3, r7, #20
 8000c62:	4619      	mov	r1, r3
 8000c64:	f04f 4090 	mov.w	r0, #1207959552	; 0x48000000
 8000c68:	f000 ff10 	bl	8001a8c <HAL_GPIO_Init>
  /* USER CODE BEGIN TIM17_MspPostInit 1 */

  /* USER CODE END TIM17_MspPostInit 1 */
  }

}
 8000c6c:	e021      	b.n	8000cb2 <HAL_TIM_MspPostInit+0xa2>
  else if(htim->Instance==TIM17)
 8000c6e:	687b      	ldr	r3, [r7, #4]
 8000c70:	681b      	ldr	r3, [r3, #0]
 8000c72:	4a13      	ldr	r2, [pc, #76]	; (8000cc0 <HAL_TIM_MspPostInit+0xb0>)
 8000c74:	4293      	cmp	r3, r2
 8000c76:	d11c      	bne.n	8000cb2 <HAL_TIM_MspPostInit+0xa2>
    __HAL_RCC_GPIOA_CLK_ENABLE();
 8000c78:	4b10      	ldr	r3, [pc, #64]	; (8000cbc <HAL_TIM_MspPostInit+0xac>)
 8000c7a:	6cdb      	ldr	r3, [r3, #76]	; 0x4c
 8000c7c:	4a0f      	ldr	r2, [pc, #60]	; (8000cbc <HAL_TIM_MspPostInit+0xac>)
 8000c7e:	f043 0301 	orr.w	r3, r3, #1
 8000c82:	64d3      	str	r3, [r2, #76]	; 0x4c
 8000c84:	4b0d      	ldr	r3, [pc, #52]	; (8000cbc <HAL_TIM_MspPostInit+0xac>)
 8000c86:	6cdb      	ldr	r3, [r3, #76]	; 0x4c
 8000c88:	f003 0301 	and.w	r3, r3, #1
 8000c8c:	60fb      	str	r3, [r7, #12]
 8000c8e:	68fb      	ldr	r3, [r7, #12]
    GPIO_InitStruct.Pin = GPIO_PIN_7;
 8000c90:	2380      	movs	r3, #128	; 0x80
 8000c92:	617b      	str	r3, [r7, #20]
    GPIO_InitStruct.Mode = GPIO_MODE_AF_PP;
 8000c94:	2302      	movs	r3, #2
 8000c96:	61bb      	str	r3, [r7, #24]
    GPIO_InitStruct.Pull = GPIO_NOPULL;
 8000c98:	2300      	movs	r3, #0
 8000c9a:	61fb      	str	r3, [r7, #28]
    GPIO_InitStruct.Speed = GPIO_SPEED_FREQ_VERY_HIGH;
 8000c9c:	2303      	movs	r3, #3
 8000c9e:	623b      	str	r3, [r7, #32]
    GPIO_InitStruct.Alternate = GPIO_AF1_TIM17;
 8000ca0:	2301      	movs	r3, #1
 8000ca2:	627b      	str	r3, [r7, #36]	; 0x24
    HAL_GPIO_Init(GPIOA, &GPIO_InitStruct);
 8000ca4:	f107 0314 	add.w	r3, r7, #20
 8000ca8:	4619      	mov	r1, r3
 8000caa:	f04f 4090 	mov.w	r0, #1207959552	; 0x48000000
 8000cae:	f000 feed 	bl	8001a8c <HAL_GPIO_Init>
}
 8000cb2:	bf00      	nop
 8000cb4:	3728      	adds	r7, #40	; 0x28
 8000cb6:	46bd      	mov	sp, r7
 8000cb8:	bd80      	pop	{r7, pc}
 8000cba:	bf00      	nop
 8000cbc:	40021000 	.word	0x40021000
 8000cc0:	40014800 	.word	0x40014800

08000cc4 <NMI_Handler>:
/******************************************************************************/
/**
  * @brief This function handles Non maskable interrupt.
  */
void NMI_Handler(void)
{
 8000cc4:	b480      	push	{r7}
 8000cc6:	af00      	add	r7, sp, #0

  /* USER CODE END NonMaskableInt_IRQn 0 */
  /* USER CODE BEGIN NonMaskableInt_IRQn 1 */

  /* USER CODE END NonMaskableInt_IRQn 1 */
}
 8000cc8:	bf00      	nop
 8000cca:	46bd      	mov	sp, r7
 8000ccc:	f85d 7b04 	ldr.w	r7, [sp], #4
 8000cd0:	4770      	bx	lr

08000cd2 <HardFault_Handler>:

/**
  * @brief This function handles Hard fault interrupt.
  */
void HardFault_Handler(void)
{
 8000cd2:	b480      	push	{r7}
 8000cd4:	af00      	add	r7, sp, #0
  /* USER CODE BEGIN HardFault_IRQn 0 */

  /* USER CODE END HardFault_IRQn 0 */
  while (1)
 8000cd6:	e7fe      	b.n	8000cd6 <HardFault_Handler+0x4>

08000cd8 <MemManage_Handler>:

/**
  * @brief This function handles Memory management fault.
  */
void MemManage_Handler(void)
{
 8000cd8:	b480      	push	{r7}
 8000cda:	af00      	add	r7, sp, #0
  /* USER CODE BEGIN MemoryManagement_IRQn 0 */

  /* USER CODE END MemoryManagement_IRQn 0 */
  while (1)
 8000cdc:	e7fe      	b.n	8000cdc <MemManage_Handler+0x4>

08000cde <BusFault_Handler>:

/**
  * @brief This function handles Prefetch fault, memory access fault.
  */
void BusFault_Handler(void)
{
 8000cde:	b480      	push	{r7}
 8000ce0:	af00      	add	r7, sp, #0
  /* USER CODE BEGIN BusFault_IRQn 0 */

  /* USER CODE END BusFault_IRQn 0 */
  while (1)
 8000ce2:	e7fe      	b.n	8000ce2 <BusFault_Handler+0x4>

08000ce4 <UsageFault_Handler>:

/**
  * @brief This function handles Undefined instruction or illegal state.
  */
void UsageFault_Handler(void)
{
 8000ce4:	b480      	push	{r7}
 8000ce6:	af00      	add	r7, sp, #0
  /* USER CODE BEGIN UsageFault_IRQn 0 */

  /* USER CODE END UsageFault_IRQn 0 */
  while (1)
 8000ce8:	e7fe      	b.n	8000ce8 <UsageFault_Handler+0x4>

08000cea <SVC_Handler>:

/**
  * @brief This function handles System service call via SWI instruction.
  */
void SVC_Handler(void)
{
 8000cea:	b480      	push	{r7}
 8000cec:	af00      	add	r7, sp, #0

  /* USER CODE END SVCall_IRQn 0 */
  /* USER CODE BEGIN SVCall_IRQn 1 */

  /* USER CODE END SVCall_IRQn 1 */
}
 8000cee:	bf00      	nop
 8000cf0:	46bd      	mov	sp, r7
 8000cf2:	f85d 7b04 	ldr.w	r7, [sp], #4
 8000cf6:	4770      	bx	lr

08000cf8 <DebugMon_Handler>:

/**
  * @brief This function handles Debug monitor.
  */
void DebugMon_Handler(void)
{
 8000cf8:	b480      	push	{r7}
 8000cfa:	af00      	add	r7, sp, #0

  /* USER CODE END DebugMonitor_IRQn 0 */
  /* USER CODE BEGIN DebugMonitor_IRQn 1 */

  /* USER CODE END DebugMonitor_IRQn 1 */
}
 8000cfc:	bf00      	nop
 8000cfe:	46bd      	mov	sp, r7
 8000d00:	f85d 7b04 	ldr.w	r7, [sp], #4
 8000d04:	4770      	bx	lr

08000d06 <PendSV_Handler>:

/**
  * @brief This function handles Pendable request for system service.
  */
void PendSV_Handler(void)
{
 8000d06:	b480      	push	{r7}
 8000d08:	af00      	add	r7, sp, #0

  /* USER CODE END PendSV_IRQn 0 */
  /* USER CODE BEGIN PendSV_IRQn 1 */

  /* USER CODE END PendSV_IRQn 1 */
}
 8000d0a:	bf00      	nop
 8000d0c:	46bd      	mov	sp, r7
 8000d0e:	f85d 7b04 	ldr.w	r7, [sp], #4
 8000d12:	4770      	bx	lr

08000d14 <SysTick_Handler>:

/**
  * @brief This function handles System tick timer.
  */
void SysTick_Handler(void)
{
 8000d14:	b580      	push	{r7, lr}
 8000d16:	af00      	add	r7, sp, #0
  /* USER CODE BEGIN SysTick_IRQn 0 */

  /* USER CODE END SysTick_IRQn 0 */
  HAL_IncTick();
 8000d18:	f000 fb18 	bl	800134c <HAL_IncTick>
  /* USER CODE BEGIN SysTick_IRQn 1 */

  /* USER CODE END SysTick_IRQn 1 */
}
 8000d1c:	bf00      	nop
 8000d1e:	bd80      	pop	{r7, pc}

08000d20 <DMA1_Channel1_IRQHandler>:

/**
  * @brief This function handles DMA1 channel1 global interrupt.
  */
void DMA1_Channel1_IRQHandler(void)
{
 8000d20:	b580      	push	{r7, lr}
 8000d22:	af00      	add	r7, sp, #0
  /* USER CODE BEGIN DMA1_Channel1_IRQn 0 */

  /* USER CODE END DMA1_Channel1_IRQn 0 */
  HAL_DMA_IRQHandler(&hdma_tim2_ch1);
 8000d24:	4802      	ldr	r0, [pc, #8]	; (8000d30 <DMA1_Channel1_IRQHandler+0x10>)
 8000d26:	f000 fd62 	bl	80017ee <HAL_DMA_IRQHandler>
  /* USER CODE BEGIN DMA1_Channel1_IRQn 1 */

  /* USER CODE END DMA1_Channel1_IRQn 1 */
}
 8000d2a:	bf00      	nop
 8000d2c:	bd80      	pop	{r7, pc}
 8000d2e:	bf00      	nop
 8000d30:	20001628 	.word	0x20001628

08000d34 <DMA1_Channel2_IRQHandler>:

/**
  * @brief This function handles DMA1 channel2 global interrupt.
  */
void DMA1_Channel2_IRQHandler(void)
{
 8000d34:	b580      	push	{r7, lr}
 8000d36:	af00      	add	r7, sp, #0
  /* USER CODE BEGIN DMA1_Channel2_IRQn 0 */

  /* USER CODE END DMA1_Channel2_IRQn 0 */
  HAL_DMA_IRQHandler(&hdma_tim17_ch1);
 8000d38:	4802      	ldr	r0, [pc, #8]	; (8000d44 <DMA1_Channel2_IRQHandler+0x10>)
 8000d3a:	f000 fd58 	bl	80017ee <HAL_DMA_IRQHandler>
  /* USER CODE BEGIN DMA1_Channel2_IRQn 1 */

  /* USER CODE END DMA1_Channel2_IRQn 1 */
}
 8000d3e:	bf00      	nop
 8000d40:	bd80      	pop	{r7, pc}
 8000d42:	bf00      	nop
 8000d44:	200017f0 	.word	0x200017f0

08000d48 <USB_LP_IRQHandler>:

/**
  * @brief This function handles USB low priority interrupt remap.
  */
void USB_LP_IRQHandler(void)
{
 8000d48:	b580      	push	{r7, lr}
 8000d4a:	af00      	add	r7, sp, #0
  /* USER CODE BEGIN USB_LP_IRQn 0 */

  /* USER CODE END USB_LP_IRQn 0 */
  HAL_PCD_IRQHandler(&hpcd_USB_FS);
 8000d4c:	4802      	ldr	r0, [pc, #8]	; (8000d58 <USB_LP_IRQHandler+0x10>)
 8000d4e:	f001 f914 	bl	8001f7a <HAL_PCD_IRQHandler>
  /* USER CODE BEGIN USB_LP_IRQn 1 */

  /* USER CODE END USB_LP_IRQn 1 */
}
 8000d52:	bf00      	nop
 8000d54:	bd80      	pop	{r7, pc}
 8000d56:	bf00      	nop
 8000d58:	20002550 	.word	0x20002550

08000d5c <DMA2_Channel1_IRQHandler>:

/**
  * @brief This function handles DMA2 channel1 global interrupt.
  */
void DMA2_Channel1_IRQHandler(void)
{
 8000d5c:	b580      	push	{r7, lr}
 8000d5e:	af00      	add	r7, sp, #0
  /* USER CODE BEGIN DMA2_Channel1_IRQn 0 */

  /* USER CODE END DMA2_Channel1_IRQn 0 */
  HAL_DMA_IRQHandler(&hdma_spi1_rx);
 8000d60:	4802      	ldr	r0, [pc, #8]	; (8000d6c <DMA2_Channel1_IRQHandler+0x10>)
 8000d62:	f000 fd44 	bl	80017ee <HAL_DMA_IRQHandler>
  /* USER CODE BEGIN DMA2_Channel1_IRQn 1 */

  /* USER CODE END DMA2_Channel1_IRQn 1 */
}
 8000d66:	bf00      	nop
 8000d68:	bd80      	pop	{r7, pc}
 8000d6a:	bf00      	nop
 8000d6c:	2000178c 	.word	0x2000178c

08000d70 <DMA2_Channel2_IRQHandler>:

/**
  * @brief This function handles DMA2 channel2 global interrupt.
  */
void DMA2_Channel2_IRQHandler(void)
{
 8000d70:	b580      	push	{r7, lr}
 8000d72:	af00      	add	r7, sp, #0
  /* USER CODE BEGIN DMA2_Channel2_IRQn 0 */

  /* USER CODE END DMA2_Channel2_IRQn 0 */
  HAL_DMA_IRQHandler(&hdma_spi1_tx);
 8000d74:	4802      	ldr	r0, [pc, #8]	; (8000d80 <DMA2_Channel2_IRQHandler+0x10>)
 8000d76:	f000 fd3a 	bl	80017ee <HAL_DMA_IRQHandler>
  /* USER CODE BEGIN DMA2_Channel2_IRQn 1 */

  /* USER CODE END DMA2_Channel2_IRQn 1 */
}
 8000d7a:	bf00      	nop
 8000d7c:	bd80      	pop	{r7, pc}
 8000d7e:	bf00      	nop
 8000d80:	20001850 	.word	0x20001850

08000d84 <SystemInit>:
  * @param  None
  * @retval None
  */

void SystemInit(void)
{
 8000d84:	b480      	push	{r7}
 8000d86:	af00      	add	r7, sp, #0
  /* FPU settings ------------------------------------------------------------*/
  #if (__FPU_PRESENT == 1) && (__FPU_USED == 1)
    SCB->CPACR |= ((3UL << (10*2))|(3UL << (11*2)));  /* set CP10 and CP11 Full Access */
 8000d88:	4b08      	ldr	r3, [pc, #32]	; (8000dac <SystemInit+0x28>)
 8000d8a:	f8d3 3088 	ldr.w	r3, [r3, #136]	; 0x88
 8000d8e:	4a07      	ldr	r2, [pc, #28]	; (8000dac <SystemInit+0x28>)
 8000d90:	f443 0370 	orr.w	r3, r3, #15728640	; 0xf00000
 8000d94:	f8c2 3088 	str.w	r3, [r2, #136]	; 0x88

  /* Configure the Vector Table location add offset address ------------------*/
#ifdef VECT_TAB_SRAM
  SCB->VTOR = SRAM_BASE | VECT_TAB_OFFSET; /* Vector Table Relocation in Internal SRAM */
#else
  SCB->VTOR = FLASH_BASE | VECT_TAB_OFFSET; /* Vector Table Relocation in Internal FLASH */
 8000d98:	4b04      	ldr	r3, [pc, #16]	; (8000dac <SystemInit+0x28>)
 8000d9a:	f04f 6200 	mov.w	r2, #134217728	; 0x8000000
 8000d9e:	609a      	str	r2, [r3, #8]
#endif
}
 8000da0:	bf00      	nop
 8000da2:	46bd      	mov	sp, r7
 8000da4:	f85d 7b04 	ldr.w	r7, [sp], #4
 8000da8:	4770      	bx	lr
 8000daa:	bf00      	nop
 8000dac:	e000ed00 	.word	0xe000ed00

08000db0 <ws2812Init>:
extern TIM_HandleTypeDef htim17;



bool ws2812Init(void)
{
 8000db0:	b580      	push	{r7, lr}
 8000db2:	af00      	add	r7, sp, #0
  memset(led_buf, 0, sizeof(led_buf));
 8000db4:	f240 6232 	movw	r2, #1586	; 0x632
 8000db8:	2100      	movs	r1, #0
 8000dba:	4806      	ldr	r0, [pc, #24]	; (8000dd4 <ws2812Init+0x24>)
 8000dbc:	f007 fa2c 	bl	8008218 <memset>
  memset(led_buf_rainbow, 0, sizeof(led_buf));
 8000dc0:	f240 6232 	movw	r2, #1586	; 0x632
 8000dc4:	2100      	movs	r1, #0
 8000dc6:	4804      	ldr	r0, [pc, #16]	; (8000dd8 <ws2812Init+0x28>)
 8000dc8:	f007 fa26 	bl	8008218 <memset>

  return true;
 8000dcc:	2301      	movs	r3, #1
}
 8000dce:	4618      	mov	r0, r3
 8000dd0:	bd80      	pop	{r7, pc}
 8000dd2:	bf00      	nop
 8000dd4:	2000019c 	.word	0x2000019c
 8000dd8:	200007d0 	.word	0x200007d0

08000ddc <ws2812Begin>:

void ws2812Begin(uint32_t break_led_cnt, uint32_t ranbow_led_cnt)
{
 8000ddc:	b580      	push	{r7, lr}
 8000dde:	b082      	sub	sp, #8
 8000de0:	af00      	add	r7, sp, #0
 8000de2:	6078      	str	r0, [r7, #4]
 8000de4:	6039      	str	r1, [r7, #0]
  ws2812.break_led_cnt = break_led_cnt;
 8000de6:	687b      	ldr	r3, [r7, #4]
 8000de8:	b29a      	uxth	r2, r3
 8000dea:	4b13      	ldr	r3, [pc, #76]	; (8000e38 <ws2812Begin+0x5c>)
 8000dec:	801a      	strh	r2, [r3, #0]
  ws2812.ranbow_led_cnt = ranbow_led_cnt;
 8000dee:	683b      	ldr	r3, [r7, #0]
 8000df0:	b29a      	uxth	r2, r3
 8000df2:	4b11      	ldr	r3, [pc, #68]	; (8000e38 <ws2812Begin+0x5c>)
 8000df4:	805a      	strh	r2, [r3, #2]


  HAL_TIM_PWM_Start_DMA(&htim2, TIM_CHANNEL_1, (uint32_t *)led_buf, (50 + 24 *  ws2812.break_led_cnt) * 1);
 8000df6:	4b10      	ldr	r3, [pc, #64]	; (8000e38 <ws2812Begin+0x5c>)
 8000df8:	881b      	ldrh	r3, [r3, #0]
 8000dfa:	461a      	mov	r2, r3
 8000dfc:	0052      	lsls	r2, r2, #1
 8000dfe:	4413      	add	r3, r2
 8000e00:	00db      	lsls	r3, r3, #3
 8000e02:	b29b      	uxth	r3, r3
 8000e04:	3332      	adds	r3, #50	; 0x32
 8000e06:	b29b      	uxth	r3, r3
 8000e08:	4a0c      	ldr	r2, [pc, #48]	; (8000e3c <ws2812Begin+0x60>)
 8000e0a:	2100      	movs	r1, #0
 8000e0c:	480c      	ldr	r0, [pc, #48]	; (8000e40 <ws2812Begin+0x64>)
 8000e0e:	f002 ffb9 	bl	8003d84 <HAL_TIM_PWM_Start_DMA>
  HAL_TIM_PWM_Start_DMA(&htim17, TIM_CHANNEL_1, (uint32_t *)led_buf_rainbow, (50 + 24 *  ws2812.ranbow_led_cnt) * 1);
 8000e12:	4b09      	ldr	r3, [pc, #36]	; (8000e38 <ws2812Begin+0x5c>)
 8000e14:	885b      	ldrh	r3, [r3, #2]
 8000e16:	461a      	mov	r2, r3
 8000e18:	0052      	lsls	r2, r2, #1
 8000e1a:	4413      	add	r3, r2
 8000e1c:	00db      	lsls	r3, r3, #3
 8000e1e:	b29b      	uxth	r3, r3
 8000e20:	3332      	adds	r3, #50	; 0x32
 8000e22:	b29b      	uxth	r3, r3
 8000e24:	4a07      	ldr	r2, [pc, #28]	; (8000e44 <ws2812Begin+0x68>)
 8000e26:	2100      	movs	r1, #0
 8000e28:	4807      	ldr	r0, [pc, #28]	; (8000e48 <ws2812Begin+0x6c>)
 8000e2a:	f002 ffab 	bl	8003d84 <HAL_TIM_PWM_Start_DMA>
}
 8000e2e:	bf00      	nop
 8000e30:	3708      	adds	r7, #8
 8000e32:	46bd      	mov	sp, r7
 8000e34:	bd80      	pop	{r7, pc}
 8000e36:	bf00      	nop
 8000e38:	200018b4 	.word	0x200018b4
 8000e3c:	2000019c 	.word	0x2000019c
 8000e40:	20001740 	.word	0x20001740
 8000e44:	200007d0 	.word	0x200007d0
 8000e48:	20001688 	.word	0x20001688

08000e4c <ws2812SetColor>:

void ws2812SetColor(uint32_t index, uint8_t red, uint8_t green, uint8_t blue)
{
 8000e4c:	b480      	push	{r7}
 8000e4e:	b08b      	sub	sp, #44	; 0x2c
 8000e50:	af00      	add	r7, sp, #0
 8000e52:	6078      	str	r0, [r7, #4]
 8000e54:	4608      	mov	r0, r1
 8000e56:	4611      	mov	r1, r2
 8000e58:	461a      	mov	r2, r3
 8000e5a:	4603      	mov	r3, r0
 8000e5c:	70fb      	strb	r3, [r7, #3]
 8000e5e:	460b      	mov	r3, r1
 8000e60:	70bb      	strb	r3, [r7, #2]
 8000e62:	4613      	mov	r3, r2
 8000e64:	707b      	strb	r3, [r7, #1]
  uint8_t b_bit[8];

  uint32_t offset;


  for (int i=0; i<8; i++)
 8000e66:	2300      	movs	r3, #0
 8000e68:	627b      	str	r3, [r7, #36]	; 0x24
 8000e6a:	e03e      	b.n	8000eea <ws2812SetColor+0x9e>
  {
    if (red & (1<<7))
 8000e6c:	f997 3003 	ldrsb.w	r3, [r7, #3]
 8000e70:	2b00      	cmp	r3, #0
 8000e72:	da06      	bge.n	8000e82 <ws2812SetColor+0x36>
    {
      r_bit[i] = BIT_HIGH;
 8000e74:	f107 0218 	add.w	r2, r7, #24
 8000e78:	6a7b      	ldr	r3, [r7, #36]	; 0x24
 8000e7a:	4413      	add	r3, r2
 8000e7c:	2287      	movs	r2, #135	; 0x87
 8000e7e:	701a      	strb	r2, [r3, #0]
 8000e80:	e005      	b.n	8000e8e <ws2812SetColor+0x42>
    }
    else
    {
      r_bit[i] = BIT_LOW;
 8000e82:	f107 0218 	add.w	r2, r7, #24
 8000e86:	6a7b      	ldr	r3, [r7, #36]	; 0x24
 8000e88:	4413      	add	r3, r2
 8000e8a:	2243      	movs	r2, #67	; 0x43
 8000e8c:	701a      	strb	r2, [r3, #0]
    }
    red <<= 1;
 8000e8e:	78fb      	ldrb	r3, [r7, #3]
 8000e90:	005b      	lsls	r3, r3, #1
 8000e92:	70fb      	strb	r3, [r7, #3]

    if (green & (1<<7))
 8000e94:	f997 3002 	ldrsb.w	r3, [r7, #2]
 8000e98:	2b00      	cmp	r3, #0
 8000e9a:	da06      	bge.n	8000eaa <ws2812SetColor+0x5e>
    {
      g_bit[i] = BIT_HIGH;
 8000e9c:	f107 0210 	add.w	r2, r7, #16
 8000ea0:	6a7b      	ldr	r3, [r7, #36]	; 0x24
 8000ea2:	4413      	add	r3, r2
 8000ea4:	2287      	movs	r2, #135	; 0x87
 8000ea6:	701a      	strb	r2, [r3, #0]
 8000ea8:	e005      	b.n	8000eb6 <ws2812SetColor+0x6a>
    }
    else
    {
      g_bit[i] = BIT_LOW;
 8000eaa:	f107 0210 	add.w	r2, r7, #16
 8000eae:	6a7b      	ldr	r3, [r7, #36]	; 0x24
 8000eb0:	4413      	add	r3, r2
 8000eb2:	2243      	movs	r2, #67	; 0x43
 8000eb4:	701a      	strb	r2, [r3, #0]
    }
    green <<= 1;
 8000eb6:	78bb      	ldrb	r3, [r7, #2]
 8000eb8:	005b      	lsls	r3, r3, #1
 8000eba:	70bb      	strb	r3, [r7, #2]

    if (blue & (1<<7))
 8000ebc:	f997 3001 	ldrsb.w	r3, [r7, #1]
 8000ec0:	2b00      	cmp	r3, #0
 8000ec2:	da06      	bge.n	8000ed2 <ws2812SetColor+0x86>
    {
      b_bit[i] = BIT_HIGH;
 8000ec4:	f107 0208 	add.w	r2, r7, #8
 8000ec8:	6a7b      	ldr	r3, [r7, #36]	; 0x24
 8000eca:	4413      	add	r3, r2
 8000ecc:	2287      	movs	r2, #135	; 0x87
 8000ece:	701a      	strb	r2, [r3, #0]
 8000ed0:	e005      	b.n	8000ede <ws2812SetColor+0x92>
    }
    else
    {
      b_bit[i] = BIT_LOW;
 8000ed2:	f107 0208 	add.w	r2, r7, #8
 8000ed6:	6a7b      	ldr	r3, [r7, #36]	; 0x24
 8000ed8:	4413      	add	r3, r2
 8000eda:	2243      	movs	r2, #67	; 0x43
 8000edc:	701a      	strb	r2, [r3, #0]
    }
    blue <<= 1;
 8000ede:	787b      	ldrb	r3, [r7, #1]
 8000ee0:	005b      	lsls	r3, r3, #1
 8000ee2:	707b      	strb	r3, [r7, #1]
  for (int i=0; i<8; i++)
 8000ee4:	6a7b      	ldr	r3, [r7, #36]	; 0x24
 8000ee6:	3301      	adds	r3, #1
 8000ee8:	627b      	str	r3, [r7, #36]	; 0x24
 8000eea:	6a7b      	ldr	r3, [r7, #36]	; 0x24
 8000eec:	2b07      	cmp	r3, #7
 8000eee:	ddbd      	ble.n	8000e6c <ws2812SetColor+0x20>
  }

  offset = 50;
 8000ef0:	2332      	movs	r3, #50	; 0x32
 8000ef2:	623b      	str	r3, [r7, #32]

  memcpy(&led_buf[offset + index*24 + 8*0], g_bit, 8*1);
 8000ef4:	687a      	ldr	r2, [r7, #4]
 8000ef6:	4613      	mov	r3, r2
 8000ef8:	005b      	lsls	r3, r3, #1
 8000efa:	4413      	add	r3, r2
 8000efc:	00db      	lsls	r3, r3, #3
 8000efe:	461a      	mov	r2, r3
 8000f00:	6a3b      	ldr	r3, [r7, #32]
 8000f02:	4413      	add	r3, r2
 8000f04:	4a17      	ldr	r2, [pc, #92]	; (8000f64 <ws2812SetColor+0x118>)
 8000f06:	4413      	add	r3, r2
 8000f08:	461a      	mov	r2, r3
 8000f0a:	f107 0310 	add.w	r3, r7, #16
 8000f0e:	cb03      	ldmia	r3!, {r0, r1}
 8000f10:	6010      	str	r0, [r2, #0]
 8000f12:	6051      	str	r1, [r2, #4]
  memcpy(&led_buf[offset + index*24 + 8*1], r_bit, 8*1);
 8000f14:	687a      	ldr	r2, [r7, #4]
 8000f16:	4613      	mov	r3, r2
 8000f18:	005b      	lsls	r3, r3, #1
 8000f1a:	4413      	add	r3, r2
 8000f1c:	00db      	lsls	r3, r3, #3
 8000f1e:	461a      	mov	r2, r3
 8000f20:	6a3b      	ldr	r3, [r7, #32]
 8000f22:	4413      	add	r3, r2
 8000f24:	3308      	adds	r3, #8
 8000f26:	4a0f      	ldr	r2, [pc, #60]	; (8000f64 <ws2812SetColor+0x118>)
 8000f28:	4413      	add	r3, r2
 8000f2a:	461a      	mov	r2, r3
 8000f2c:	f107 0318 	add.w	r3, r7, #24
 8000f30:	cb03      	ldmia	r3!, {r0, r1}
 8000f32:	6010      	str	r0, [r2, #0]
 8000f34:	6051      	str	r1, [r2, #4]
  memcpy(&led_buf[offset + index*24 + 8*2], b_bit, 8*1);
 8000f36:	687a      	ldr	r2, [r7, #4]
 8000f38:	4613      	mov	r3, r2
 8000f3a:	005b      	lsls	r3, r3, #1
 8000f3c:	4413      	add	r3, r2
 8000f3e:	00db      	lsls	r3, r3, #3
 8000f40:	461a      	mov	r2, r3
 8000f42:	6a3b      	ldr	r3, [r7, #32]
 8000f44:	4413      	add	r3, r2
 8000f46:	3310      	adds	r3, #16
 8000f48:	4a06      	ldr	r2, [pc, #24]	; (8000f64 <ws2812SetColor+0x118>)
 8000f4a:	4413      	add	r3, r2
 8000f4c:	461a      	mov	r2, r3
 8000f4e:	f107 0308 	add.w	r3, r7, #8
 8000f52:	cb03      	ldmia	r3!, {r0, r1}
 8000f54:	6010      	str	r0, [r2, #0]
 8000f56:	6051      	str	r1, [r2, #4]
}
 8000f58:	bf00      	nop
 8000f5a:	372c      	adds	r7, #44	; 0x2c
 8000f5c:	46bd      	mov	sp, r7
 8000f5e:	f85d 7b04 	ldr.w	r7, [sp], #4
 8000f62:	4770      	bx	lr
 8000f64:	2000019c 	.word	0x2000019c

08000f68 <ws2812SetRanbowColor>:

void ws2812SetRanbowColor(uint32_t index, uint8_t red, uint8_t green, uint8_t blue)
{
 8000f68:	b480      	push	{r7}
 8000f6a:	b08b      	sub	sp, #44	; 0x2c
 8000f6c:	af00      	add	r7, sp, #0
 8000f6e:	6078      	str	r0, [r7, #4]
 8000f70:	4608      	mov	r0, r1
 8000f72:	4611      	mov	r1, r2
 8000f74:	461a      	mov	r2, r3
 8000f76:	4603      	mov	r3, r0
 8000f78:	70fb      	strb	r3, [r7, #3]
 8000f7a:	460b      	mov	r3, r1
 8000f7c:	70bb      	strb	r3, [r7, #2]
 8000f7e:	4613      	mov	r3, r2
 8000f80:	707b      	strb	r3, [r7, #1]
  uint8_t b_bit[8];

  uint32_t offset;


  for (int i=0; i<8; i++)
 8000f82:	2300      	movs	r3, #0
 8000f84:	627b      	str	r3, [r7, #36]	; 0x24
 8000f86:	e03e      	b.n	8001006 <ws2812SetRanbowColor+0x9e>
  {
    if (red & (1<<7))
 8000f88:	f997 3003 	ldrsb.w	r3, [r7, #3]
 8000f8c:	2b00      	cmp	r3, #0
 8000f8e:	da06      	bge.n	8000f9e <ws2812SetRanbowColor+0x36>
    {
      r_bit[i] = BIT_HIGH;
 8000f90:	f107 0218 	add.w	r2, r7, #24
 8000f94:	6a7b      	ldr	r3, [r7, #36]	; 0x24
 8000f96:	4413      	add	r3, r2
 8000f98:	2287      	movs	r2, #135	; 0x87
 8000f9a:	701a      	strb	r2, [r3, #0]
 8000f9c:	e005      	b.n	8000faa <ws2812SetRanbowColor+0x42>
    }
    else
    {
      r_bit[i] = BIT_LOW;
 8000f9e:	f107 0218 	add.w	r2, r7, #24
 8000fa2:	6a7b      	ldr	r3, [r7, #36]	; 0x24
 8000fa4:	4413      	add	r3, r2
 8000fa6:	2243      	movs	r2, #67	; 0x43
 8000fa8:	701a      	strb	r2, [r3, #0]
    }
    red <<= 1;
 8000faa:	78fb      	ldrb	r3, [r7, #3]
 8000fac:	005b      	lsls	r3, r3, #1
 8000fae:	70fb      	strb	r3, [r7, #3]

    if (green & (1<<7))
 8000fb0:	f997 3002 	ldrsb.w	r3, [r7, #2]
 8000fb4:	2b00      	cmp	r3, #0
 8000fb6:	da06      	bge.n	8000fc6 <ws2812SetRanbowColor+0x5e>
    {
      g_bit[i] = BIT_HIGH;
 8000fb8:	f107 0210 	add.w	r2, r7, #16
 8000fbc:	6a7b      	ldr	r3, [r7, #36]	; 0x24
 8000fbe:	4413      	add	r3, r2
 8000fc0:	2287      	movs	r2, #135	; 0x87
 8000fc2:	701a      	strb	r2, [r3, #0]
 8000fc4:	e005      	b.n	8000fd2 <ws2812SetRanbowColor+0x6a>
    }
    else
    {
      g_bit[i] = BIT_LOW;
 8000fc6:	f107 0210 	add.w	r2, r7, #16
 8000fca:	6a7b      	ldr	r3, [r7, #36]	; 0x24
 8000fcc:	4413      	add	r3, r2
 8000fce:	2243      	movs	r2, #67	; 0x43
 8000fd0:	701a      	strb	r2, [r3, #0]
    }
    green <<= 1;
 8000fd2:	78bb      	ldrb	r3, [r7, #2]
 8000fd4:	005b      	lsls	r3, r3, #1
 8000fd6:	70bb      	strb	r3, [r7, #2]

    if (blue & (1<<7))
 8000fd8:	f997 3001 	ldrsb.w	r3, [r7, #1]
 8000fdc:	2b00      	cmp	r3, #0
 8000fde:	da06      	bge.n	8000fee <ws2812SetRanbowColor+0x86>
    {
      b_bit[i] = BIT_HIGH;
 8000fe0:	f107 0208 	add.w	r2, r7, #8
 8000fe4:	6a7b      	ldr	r3, [r7, #36]	; 0x24
 8000fe6:	4413      	add	r3, r2
 8000fe8:	2287      	movs	r2, #135	; 0x87
 8000fea:	701a      	strb	r2, [r3, #0]
 8000fec:	e005      	b.n	8000ffa <ws2812SetRanbowColor+0x92>
    }
    else
    {
      b_bit[i] = BIT_LOW;
 8000fee:	f107 0208 	add.w	r2, r7, #8
 8000ff2:	6a7b      	ldr	r3, [r7, #36]	; 0x24
 8000ff4:	4413      	add	r3, r2
 8000ff6:	2243      	movs	r2, #67	; 0x43
 8000ff8:	701a      	strb	r2, [r3, #0]
    }
    blue <<= 1;
 8000ffa:	787b      	ldrb	r3, [r7, #1]
 8000ffc:	005b      	lsls	r3, r3, #1
 8000ffe:	707b      	strb	r3, [r7, #1]
  for (int i=0; i<8; i++)
 8001000:	6a7b      	ldr	r3, [r7, #36]	; 0x24
 8001002:	3301      	adds	r3, #1
 8001004:	627b      	str	r3, [r7, #36]	; 0x24
 8001006:	6a7b      	ldr	r3, [r7, #36]	; 0x24
 8001008:	2b07      	cmp	r3, #7
 800100a:	ddbd      	ble.n	8000f88 <ws2812SetRanbowColor+0x20>
  }

  offset = 50;
 800100c:	2332      	movs	r3, #50	; 0x32
 800100e:	623b      	str	r3, [r7, #32]

  memcpy(&led_buf_rainbow[offset + index*24 + 8*0], g_bit, 8*1);
 8001010:	687a      	ldr	r2, [r7, #4]
 8001012:	4613      	mov	r3, r2
 8001014:	005b      	lsls	r3, r3, #1
 8001016:	4413      	add	r3, r2
 8001018:	00db      	lsls	r3, r3, #3
 800101a:	461a      	mov	r2, r3
 800101c:	6a3b      	ldr	r3, [r7, #32]
 800101e:	4413      	add	r3, r2
 8001020:	4a17      	ldr	r2, [pc, #92]	; (8001080 <ws2812SetRanbowColor+0x118>)
 8001022:	4413      	add	r3, r2
 8001024:	461a      	mov	r2, r3
 8001026:	f107 0310 	add.w	r3, r7, #16
 800102a:	cb03      	ldmia	r3!, {r0, r1}
 800102c:	6010      	str	r0, [r2, #0]
 800102e:	6051      	str	r1, [r2, #4]
  memcpy(&led_buf_rainbow[offset + index*24 + 8*1], r_bit, 8*1);
 8001030:	687a      	ldr	r2, [r7, #4]
 8001032:	4613      	mov	r3, r2
 8001034:	005b      	lsls	r3, r3, #1
 8001036:	4413      	add	r3, r2
 8001038:	00db      	lsls	r3, r3, #3
 800103a:	461a      	mov	r2, r3
 800103c:	6a3b      	ldr	r3, [r7, #32]
 800103e:	4413      	add	r3, r2
 8001040:	3308      	adds	r3, #8
 8001042:	4a0f      	ldr	r2, [pc, #60]	; (8001080 <ws2812SetRanbowColor+0x118>)
 8001044:	4413      	add	r3, r2
 8001046:	461a      	mov	r2, r3
 8001048:	f107 0318 	add.w	r3, r7, #24
 800104c:	cb03      	ldmia	r3!, {r0, r1}
 800104e:	6010      	str	r0, [r2, #0]
 8001050:	6051      	str	r1, [r2, #4]
  memcpy(&led_buf_rainbow[offset + index*24 + 8*2], b_bit, 8*1);
 8001052:	687a      	ldr	r2, [r7, #4]
 8001054:	4613      	mov	r3, r2
 8001056:	005b      	lsls	r3, r3, #1
 8001058:	4413      	add	r3, r2
 800105a:	00db      	lsls	r3, r3, #3
 800105c:	461a      	mov	r2, r3
 800105e:	6a3b      	ldr	r3, [r7, #32]
 8001060:	4413      	add	r3, r2
 8001062:	3310      	adds	r3, #16
 8001064:	4a06      	ldr	r2, [pc, #24]	; (8001080 <ws2812SetRanbowColor+0x118>)
 8001066:	4413      	add	r3, r2
 8001068:	461a      	mov	r2, r3
 800106a:	f107 0308 	add.w	r3, r7, #8
 800106e:	cb03      	ldmia	r3!, {r0, r1}
 8001070:	6010      	str	r0, [r2, #0]
 8001072:	6051      	str	r1, [r2, #4]
}
 8001074:	bf00      	nop
 8001076:	372c      	adds	r7, #44	; 0x2c
 8001078:	46bd      	mov	sp, r7
 800107a:	f85d 7b04 	ldr.w	r7, [sp], #4
 800107e:	4770      	bx	lr
 8001080:	200007d0 	.word	0x200007d0

08001084 <setPixelColor>:
    }
    brightness = newBrightness;
  }
}

void setPixelColor(uint16_t n, uint32_t c) {
 8001084:	b580      	push	{r7, lr}
 8001086:	b084      	sub	sp, #16
 8001088:	af00      	add	r7, sp, #0
 800108a:	4603      	mov	r3, r0
 800108c:	6039      	str	r1, [r7, #0]
 800108e:	80fb      	strh	r3, [r7, #6]
  if(n < ws2812.ranbow_led_cnt) {
 8001090:	4b37      	ldr	r3, [pc, #220]	; (8001170 <setPixelColor+0xec>)
 8001092:	885b      	ldrh	r3, [r3, #2]
 8001094:	88fa      	ldrh	r2, [r7, #6]
 8001096:	429a      	cmp	r2, r3
 8001098:	d266      	bcs.n	8001168 <setPixelColor+0xe4>
    uint8_t *p,
      r = (uint8_t)(c >> 16),
 800109a:	683b      	ldr	r3, [r7, #0]
 800109c:	0c1b      	lsrs	r3, r3, #16
 800109e:	72fb      	strb	r3, [r7, #11]
      g = (uint8_t)(c >>  8),
 80010a0:	683b      	ldr	r3, [r7, #0]
 80010a2:	0a1b      	lsrs	r3, r3, #8
 80010a4:	72bb      	strb	r3, [r7, #10]
      b = (uint8_t)c;
 80010a6:	683b      	ldr	r3, [r7, #0]
 80010a8:	727b      	strb	r3, [r7, #9]
    if(brightness) { // See notes in setBrightness()
 80010aa:	4b32      	ldr	r3, [pc, #200]	; (8001174 <setPixelColor+0xf0>)
 80010ac:	781b      	ldrb	r3, [r3, #0]
 80010ae:	2b00      	cmp	r3, #0
 80010b0:	d014      	beq.n	80010dc <setPixelColor+0x58>
      r = (r * brightness) >> 8;
 80010b2:	7afb      	ldrb	r3, [r7, #11]
 80010b4:	4a2f      	ldr	r2, [pc, #188]	; (8001174 <setPixelColor+0xf0>)
 80010b6:	7812      	ldrb	r2, [r2, #0]
 80010b8:	fb02 f303 	mul.w	r3, r2, r3
 80010bc:	121b      	asrs	r3, r3, #8
 80010be:	72fb      	strb	r3, [r7, #11]
      g = (g * brightness) >> 8;
 80010c0:	7abb      	ldrb	r3, [r7, #10]
 80010c2:	4a2c      	ldr	r2, [pc, #176]	; (8001174 <setPixelColor+0xf0>)
 80010c4:	7812      	ldrb	r2, [r2, #0]
 80010c6:	fb02 f303 	mul.w	r3, r2, r3
 80010ca:	121b      	asrs	r3, r3, #8
 80010cc:	72bb      	strb	r3, [r7, #10]
      b = (b * brightness) >> 8;
 80010ce:	7a7b      	ldrb	r3, [r7, #9]
 80010d0:	4a28      	ldr	r2, [pc, #160]	; (8001174 <setPixelColor+0xf0>)
 80010d2:	7812      	ldrb	r2, [r2, #0]
 80010d4:	fb02 f303 	mul.w	r3, r2, r3
 80010d8:	121b      	asrs	r3, r3, #8
 80010da:	727b      	strb	r3, [r7, #9]
    }
    if(wOffset == rOffset) {
 80010dc:	4b26      	ldr	r3, [pc, #152]	; (8001178 <setPixelColor+0xf4>)
 80010de:	781a      	ldrb	r2, [r3, #0]
 80010e0:	4b26      	ldr	r3, [pc, #152]	; (800117c <setPixelColor+0xf8>)
 80010e2:	781b      	ldrb	r3, [r3, #0]
 80010e4:	429a      	cmp	r2, r3
 80010e6:	d108      	bne.n	80010fa <setPixelColor+0x76>
      p = &pixels[n * 3];
 80010e8:	4b25      	ldr	r3, [pc, #148]	; (8001180 <setPixelColor+0xfc>)
 80010ea:	6819      	ldr	r1, [r3, #0]
 80010ec:	88fa      	ldrh	r2, [r7, #6]
 80010ee:	4613      	mov	r3, r2
 80010f0:	005b      	lsls	r3, r3, #1
 80010f2:	4413      	add	r3, r2
 80010f4:	440b      	add	r3, r1
 80010f6:	60fb      	str	r3, [r7, #12]
 80010f8:	e01b      	b.n	8001132 <setPixelColor+0xae>
    } else {
      p = &pixels[n * 4];
 80010fa:	4b21      	ldr	r3, [pc, #132]	; (8001180 <setPixelColor+0xfc>)
 80010fc:	681b      	ldr	r3, [r3, #0]
 80010fe:	88fa      	ldrh	r2, [r7, #6]
 8001100:	0092      	lsls	r2, r2, #2
 8001102:	4413      	add	r3, r2
 8001104:	60fb      	str	r3, [r7, #12]
      uint8_t w = (uint8_t)(c >> 24);
 8001106:	683b      	ldr	r3, [r7, #0]
 8001108:	0e1b      	lsrs	r3, r3, #24
 800110a:	723b      	strb	r3, [r7, #8]
      p[wOffset] = brightness ? ((w * brightness) >> 8) : w;
 800110c:	4b19      	ldr	r3, [pc, #100]	; (8001174 <setPixelColor+0xf0>)
 800110e:	781b      	ldrb	r3, [r3, #0]
 8001110:	2b00      	cmp	r3, #0
 8001112:	d007      	beq.n	8001124 <setPixelColor+0xa0>
 8001114:	7a3b      	ldrb	r3, [r7, #8]
 8001116:	4a17      	ldr	r2, [pc, #92]	; (8001174 <setPixelColor+0xf0>)
 8001118:	7812      	ldrb	r2, [r2, #0]
 800111a:	fb02 f303 	mul.w	r3, r2, r3
 800111e:	121b      	asrs	r3, r3, #8
 8001120:	b2db      	uxtb	r3, r3
 8001122:	e000      	b.n	8001126 <setPixelColor+0xa2>
 8001124:	7a3b      	ldrb	r3, [r7, #8]
 8001126:	4a14      	ldr	r2, [pc, #80]	; (8001178 <setPixelColor+0xf4>)
 8001128:	7812      	ldrb	r2, [r2, #0]
 800112a:	4611      	mov	r1, r2
 800112c:	68fa      	ldr	r2, [r7, #12]
 800112e:	440a      	add	r2, r1
 8001130:	7013      	strb	r3, [r2, #0]
    }
    p[rOffset] = r;
 8001132:	4b12      	ldr	r3, [pc, #72]	; (800117c <setPixelColor+0xf8>)
 8001134:	781b      	ldrb	r3, [r3, #0]
 8001136:	461a      	mov	r2, r3
 8001138:	68fb      	ldr	r3, [r7, #12]
 800113a:	4413      	add	r3, r2
 800113c:	7afa      	ldrb	r2, [r7, #11]
 800113e:	701a      	strb	r2, [r3, #0]
    p[gOffset] = g;
 8001140:	4b10      	ldr	r3, [pc, #64]	; (8001184 <setPixelColor+0x100>)
 8001142:	781b      	ldrb	r3, [r3, #0]
 8001144:	461a      	mov	r2, r3
 8001146:	68fb      	ldr	r3, [r7, #12]
 8001148:	4413      	add	r3, r2
 800114a:	7aba      	ldrb	r2, [r7, #10]
 800114c:	701a      	strb	r2, [r3, #0]
    p[bOffset] = b;
 800114e:	4b0e      	ldr	r3, [pc, #56]	; (8001188 <setPixelColor+0x104>)
 8001150:	781b      	ldrb	r3, [r3, #0]
 8001152:	461a      	mov	r2, r3
 8001154:	68fb      	ldr	r3, [r7, #12]
 8001156:	4413      	add	r3, r2
 8001158:	7a7a      	ldrb	r2, [r7, #9]
 800115a:	701a      	strb	r2, [r3, #0]
    ws2812SetRanbowColor(n, r, g , b);
 800115c:	88f8      	ldrh	r0, [r7, #6]
 800115e:	7a7b      	ldrb	r3, [r7, #9]
 8001160:	7aba      	ldrb	r2, [r7, #10]
 8001162:	7af9      	ldrb	r1, [r7, #11]
 8001164:	f7ff ff00 	bl	8000f68 <ws2812SetRanbowColor>
  }

}
 8001168:	bf00      	nop
 800116a:	3710      	adds	r7, #16
 800116c:	46bd      	mov	sp, r7
 800116e:	bd80      	pop	{r7, pc}
 8001170:	200018b4 	.word	0x200018b4
 8001174:	200017ec 	.word	0x200017ec
 8001178:	200016d4 	.word	0x200016d4
 800117c:	200018b0 	.word	0x200018b0
 8001180:	20001624 	.word	0x20001624
 8001184:	200016d8 	.word	0x200016d8
 8001188:	200017ed 	.word	0x200017ed

0800118c <Wheel>:

uint32_t Wheel(uint8_t WheelPos) {
 800118c:	b580      	push	{r7, lr}
 800118e:	b082      	sub	sp, #8
 8001190:	af00      	add	r7, sp, #0
 8001192:	4603      	mov	r3, r0
 8001194:	71fb      	strb	r3, [r7, #7]
  WheelPos = 255 - WheelPos;
 8001196:	79fb      	ldrb	r3, [r7, #7]
 8001198:	43db      	mvns	r3, r3
 800119a:	71fb      	strb	r3, [r7, #7]
  if(WheelPos < 85) {
 800119c:	79fb      	ldrb	r3, [r7, #7]
 800119e:	2b54      	cmp	r3, #84	; 0x54
 80011a0:	d811      	bhi.n	80011c6 <Wheel+0x3a>
    return Color(255 - WheelPos * 3, 0, WheelPos * 3);
 80011a2:	79fb      	ldrb	r3, [r7, #7]
 80011a4:	461a      	mov	r2, r3
 80011a6:	009b      	lsls	r3, r3, #2
 80011a8:	1ad3      	subs	r3, r2, r3
 80011aa:	b2db      	uxtb	r3, r3
 80011ac:	3b01      	subs	r3, #1
 80011ae:	b2d8      	uxtb	r0, r3
 80011b0:	79fb      	ldrb	r3, [r7, #7]
 80011b2:	461a      	mov	r2, r3
 80011b4:	0052      	lsls	r2, r2, #1
 80011b6:	4413      	add	r3, r2
 80011b8:	b2db      	uxtb	r3, r3
 80011ba:	461a      	mov	r2, r3
 80011bc:	2100      	movs	r1, #0
 80011be:	f000 f832 	bl	8001226 <Color>
 80011c2:	4603      	mov	r3, r0
 80011c4:	e02b      	b.n	800121e <Wheel+0x92>
  }
  if(WheelPos < 170) {
 80011c6:	79fb      	ldrb	r3, [r7, #7]
 80011c8:	2ba9      	cmp	r3, #169	; 0xa9
 80011ca:	d814      	bhi.n	80011f6 <Wheel+0x6a>
  		WheelPos -= 85;
 80011cc:	79fb      	ldrb	r3, [r7, #7]
 80011ce:	3b55      	subs	r3, #85	; 0x55
 80011d0:	71fb      	strb	r3, [r7, #7]
    return Color(0, WheelPos * 3, 255 - WheelPos * 3);
 80011d2:	79fb      	ldrb	r3, [r7, #7]
 80011d4:	461a      	mov	r2, r3
 80011d6:	0052      	lsls	r2, r2, #1
 80011d8:	4413      	add	r3, r2
 80011da:	b2d9      	uxtb	r1, r3
 80011dc:	79fb      	ldrb	r3, [r7, #7]
 80011de:	461a      	mov	r2, r3
 80011e0:	009b      	lsls	r3, r3, #2
 80011e2:	1ad3      	subs	r3, r2, r3
 80011e4:	b2db      	uxtb	r3, r3
 80011e6:	3b01      	subs	r3, #1
 80011e8:	b2db      	uxtb	r3, r3
 80011ea:	461a      	mov	r2, r3
 80011ec:	2000      	movs	r0, #0
 80011ee:	f000 f81a 	bl	8001226 <Color>
 80011f2:	4603      	mov	r3, r0
 80011f4:	e013      	b.n	800121e <Wheel+0x92>
  }
  WheelPos -= 170;
 80011f6:	79fb      	ldrb	r3, [r7, #7]
 80011f8:	3356      	adds	r3, #86	; 0x56
 80011fa:	71fb      	strb	r3, [r7, #7]
  return Color(WheelPos * 3, 255 - WheelPos * 3, 0);
 80011fc:	79fb      	ldrb	r3, [r7, #7]
 80011fe:	461a      	mov	r2, r3
 8001200:	0052      	lsls	r2, r2, #1
 8001202:	4413      	add	r3, r2
 8001204:	b2d8      	uxtb	r0, r3
 8001206:	79fb      	ldrb	r3, [r7, #7]
 8001208:	461a      	mov	r2, r3
 800120a:	009b      	lsls	r3, r3, #2
 800120c:	1ad3      	subs	r3, r2, r3
 800120e:	b2db      	uxtb	r3, r3
 8001210:	3b01      	subs	r3, #1
 8001212:	b2db      	uxtb	r3, r3
 8001214:	2200      	movs	r2, #0
 8001216:	4619      	mov	r1, r3
 8001218:	f000 f805 	bl	8001226 <Color>
 800121c:	4603      	mov	r3, r0
}
 800121e:	4618      	mov	r0, r3
 8001220:	3708      	adds	r7, #8
 8001222:	46bd      	mov	sp, r7
 8001224:	bd80      	pop	{r7, pc}

08001226 <Color>:

uint32_t Color(uint8_t r, uint8_t g, uint8_t b) {
 8001226:	b480      	push	{r7}
 8001228:	b083      	sub	sp, #12
 800122a:	af00      	add	r7, sp, #0
 800122c:	4603      	mov	r3, r0
 800122e:	71fb      	strb	r3, [r7, #7]
 8001230:	460b      	mov	r3, r1
 8001232:	71bb      	strb	r3, [r7, #6]
 8001234:	4613      	mov	r3, r2
 8001236:	717b      	strb	r3, [r7, #5]
  return ((uint32_t)r << 16) | ((uint32_t)g <<  8) | b;
 8001238:	79fb      	ldrb	r3, [r7, #7]
 800123a:	041a      	lsls	r2, r3, #16
 800123c:	79bb      	ldrb	r3, [r7, #6]
 800123e:	021b      	lsls	r3, r3, #8
 8001240:	431a      	orrs	r2, r3
 8001242:	797b      	ldrb	r3, [r7, #5]
 8001244:	4313      	orrs	r3, r2
}
 8001246:	4618      	mov	r0, r3
 8001248:	370c      	adds	r7, #12
 800124a:	46bd      	mov	sp, r7
 800124c:	f85d 7b04 	ldr.w	r7, [sp], #4
 8001250:	4770      	bx	lr
	...

08001254 <Reset_Handler>:

    .section	.text.Reset_Handler
	.weak	Reset_Handler
	.type	Reset_Handler, %function
Reset_Handler:
  ldr   r0, =_estack
 8001254:	480d      	ldr	r0, [pc, #52]	; (800128c <LoopForever+0x2>)
  mov   sp, r0          /* set stack pointer */
 8001256:	4685      	mov	sp, r0

/* Copy the data segment initializers from flash to SRAM */
  ldr r0, =_sdata
 8001258:	480d      	ldr	r0, [pc, #52]	; (8001290 <LoopForever+0x6>)
  ldr r1, =_edata
 800125a:	490e      	ldr	r1, [pc, #56]	; (8001294 <LoopForever+0xa>)
  ldr r2, =_sidata
 800125c:	4a0e      	ldr	r2, [pc, #56]	; (8001298 <LoopForever+0xe>)
  movs r3, #0
 800125e:	2300      	movs	r3, #0
  b	LoopCopyDataInit
 8001260:	e002      	b.n	8001268 <LoopCopyDataInit>

08001262 <CopyDataInit>:

CopyDataInit:
  ldr r4, [r2, r3]
 8001262:	58d4      	ldr	r4, [r2, r3]
  str r4, [r0, r3]
 8001264:	50c4      	str	r4, [r0, r3]
  adds r3, r3, #4
 8001266:	3304      	adds	r3, #4

08001268 <LoopCopyDataInit>:

LoopCopyDataInit:
  adds r4, r0, r3
 8001268:	18c4      	adds	r4, r0, r3
  cmp r4, r1
 800126a:	428c      	cmp	r4, r1
  bcc CopyDataInit
 800126c:	d3f9      	bcc.n	8001262 <CopyDataInit>
  
/* Zero fill the bss segment. */
  ldr r2, =_sbss
 800126e:	4a0b      	ldr	r2, [pc, #44]	; (800129c <LoopForever+0x12>)
  ldr r4, =_ebss
 8001270:	4c0b      	ldr	r4, [pc, #44]	; (80012a0 <LoopForever+0x16>)
  movs r3, #0
 8001272:	2300      	movs	r3, #0
  b LoopFillZerobss
 8001274:	e001      	b.n	800127a <LoopFillZerobss>

08001276 <FillZerobss>:

FillZerobss:
  str  r3, [r2]
 8001276:	6013      	str	r3, [r2, #0]
  adds r2, r2, #4
 8001278:	3204      	adds	r2, #4

0800127a <LoopFillZerobss>:

LoopFillZerobss:
  cmp r2, r4
 800127a:	42a2      	cmp	r2, r4
  bcc FillZerobss
 800127c:	d3fb      	bcc.n	8001276 <FillZerobss>

/* Call the clock system intitialization function.*/
    bl  SystemInit
 800127e:	f7ff fd81 	bl	8000d84 <SystemInit>
/* Call static constructors */
    bl __libc_init_array
 8001282:	f006 ffa5 	bl	80081d0 <__libc_init_array>
/* Call the application's entry point.*/
	bl	main
 8001286:	f7fe ffc7 	bl	8000218 <main>

0800128a <LoopForever>:

LoopForever:
    b LoopForever
 800128a:	e7fe      	b.n	800128a <LoopForever>
  ldr   r0, =_estack
 800128c:	20008000 	.word	0x20008000
  ldr r0, =_sdata
 8001290:	20000000 	.word	0x20000000
  ldr r1, =_edata
 8001294:	20000180 	.word	0x20000180
  ldr r2, =_sidata
 8001298:	080082a0 	.word	0x080082a0
  ldr r2, =_sbss
 800129c:	20000180 	.word	0x20000180
  ldr r4, =_ebss
 80012a0:	200027c4 	.word	0x200027c4

080012a4 <ADC1_2_IRQHandler>:
 * @retval : None
*/
    .section	.text.Default_Handler,"ax",%progbits
Default_Handler:
Infinite_Loop:
	b	Infinite_Loop
 80012a4:	e7fe      	b.n	80012a4 <ADC1_2_IRQHandler>

080012a6 <HAL_Init>:
  *         each 1ms in the SysTick_Handler() interrupt handler.
  *
  * @retval HAL status
  */
HAL_StatusTypeDef HAL_Init(void)
{
 80012a6:	b580      	push	{r7, lr}
 80012a8:	b082      	sub	sp, #8
 80012aa:	af00      	add	r7, sp, #0
  HAL_StatusTypeDef  status = HAL_OK;
 80012ac:	2300      	movs	r3, #0
 80012ae:	71fb      	strb	r3, [r7, #7]
#if (PREFETCH_ENABLE != 0U)
  __HAL_FLASH_PREFETCH_BUFFER_ENABLE();
#endif /* PREFETCH_ENABLE */

  /* Set Interrupt Group Priority */
  HAL_NVIC_SetPriorityGrouping(NVIC_PRIORITYGROUP_4);
 80012b0:	2003      	movs	r0, #3
 80012b2:	f000 f939 	bl	8001528 <HAL_NVIC_SetPriorityGrouping>

  /* Use SysTick as time base source and configure 1ms tick (default clock after Reset is HSI) */
  if (HAL_InitTick(TICK_INT_PRIORITY) != HAL_OK)
 80012b6:	2000      	movs	r0, #0
 80012b8:	f000 f80e 	bl	80012d8 <HAL_InitTick>
 80012bc:	4603      	mov	r3, r0
 80012be:	2b00      	cmp	r3, #0
 80012c0:	d002      	beq.n	80012c8 <HAL_Init+0x22>
  {
    status = HAL_ERROR;
 80012c2:	2301      	movs	r3, #1
 80012c4:	71fb      	strb	r3, [r7, #7]
 80012c6:	e001      	b.n	80012cc <HAL_Init+0x26>
  }
  else
  {
    /* Init the low level hardware */
    HAL_MspInit();
 80012c8:	f7ff fb28 	bl	800091c <HAL_MspInit>
  }

  /* Return function status */
  return status;
 80012cc:	79fb      	ldrb	r3, [r7, #7]

}
 80012ce:	4618      	mov	r0, r3
 80012d0:	3708      	adds	r7, #8
 80012d2:	46bd      	mov	sp, r7
 80012d4:	bd80      	pop	{r7, pc}
	...

080012d8 <HAL_InitTick>:
  *       implementation  in user file.
  * @param TickPriority: Tick interrupt priority.
  * @retval HAL status
  */
__weak HAL_StatusTypeDef HAL_InitTick(uint32_t TickPriority)
{
 80012d8:	b580      	push	{r7, lr}
 80012da:	b084      	sub	sp, #16
 80012dc:	af00      	add	r7, sp, #0
 80012de:	6078      	str	r0, [r7, #4]
  HAL_StatusTypeDef  status = HAL_OK;
 80012e0:	2300      	movs	r3, #0
 80012e2:	73fb      	strb	r3, [r7, #15]

  if (uwTickFreq != 0U)
 80012e4:	4b16      	ldr	r3, [pc, #88]	; (8001340 <HAL_InitTick+0x68>)
 80012e6:	681b      	ldr	r3, [r3, #0]
 80012e8:	2b00      	cmp	r3, #0
 80012ea:	d022      	beq.n	8001332 <HAL_InitTick+0x5a>
  {
    /* Configure the SysTick to have interrupt in 1ms time basis*/
    if (HAL_SYSTICK_Config(SystemCoreClock / (1000U / uwTickFreq)) == 0U)
 80012ec:	4b15      	ldr	r3, [pc, #84]	; (8001344 <HAL_InitTick+0x6c>)
 80012ee:	681a      	ldr	r2, [r3, #0]
 80012f0:	4b13      	ldr	r3, [pc, #76]	; (8001340 <HAL_InitTick+0x68>)
 80012f2:	681b      	ldr	r3, [r3, #0]
 80012f4:	f44f 717a 	mov.w	r1, #1000	; 0x3e8
 80012f8:	fbb1 f3f3 	udiv	r3, r1, r3
 80012fc:	fbb2 f3f3 	udiv	r3, r2, r3
 8001300:	4618      	mov	r0, r3
 8001302:	f000 f944 	bl	800158e <HAL_SYSTICK_Config>
 8001306:	4603      	mov	r3, r0
 8001308:	2b00      	cmp	r3, #0
 800130a:	d10f      	bne.n	800132c <HAL_InitTick+0x54>
    {
      /* Configure the SysTick IRQ priority */
      if (TickPriority < (1UL << __NVIC_PRIO_BITS))
 800130c:	687b      	ldr	r3, [r7, #4]
 800130e:	2b0f      	cmp	r3, #15
 8001310:	d809      	bhi.n	8001326 <HAL_InitTick+0x4e>
      {
        HAL_NVIC_SetPriority(SysTick_IRQn, TickPriority, 0U);
 8001312:	2200      	movs	r2, #0
 8001314:	6879      	ldr	r1, [r7, #4]
 8001316:	f04f 30ff 	mov.w	r0, #4294967295
 800131a:	f000 f910 	bl	800153e <HAL_NVIC_SetPriority>
        uwTickPrio = TickPriority;
 800131e:	4a0a      	ldr	r2, [pc, #40]	; (8001348 <HAL_InitTick+0x70>)
 8001320:	687b      	ldr	r3, [r7, #4]
 8001322:	6013      	str	r3, [r2, #0]
 8001324:	e007      	b.n	8001336 <HAL_InitTick+0x5e>
      }
      else
      {
        status = HAL_ERROR;
 8001326:	2301      	movs	r3, #1
 8001328:	73fb      	strb	r3, [r7, #15]
 800132a:	e004      	b.n	8001336 <HAL_InitTick+0x5e>
      }
    }
    else
    {
      status = HAL_ERROR;
 800132c:	2301      	movs	r3, #1
 800132e:	73fb      	strb	r3, [r7, #15]
 8001330:	e001      	b.n	8001336 <HAL_InitTick+0x5e>
    }
  }
  else
  {
    status = HAL_ERROR;
 8001332:	2301      	movs	r3, #1
 8001334:	73fb      	strb	r3, [r7, #15]
  }

  /* Return function status */
  return status;
 8001336:	7bfb      	ldrb	r3, [r7, #15]
}
 8001338:	4618      	mov	r0, r3
 800133a:	3710      	adds	r7, #16
 800133c:	46bd      	mov	sp, r7
 800133e:	bd80      	pop	{r7, pc}
 8001340:	20000008 	.word	0x20000008
 8001344:	20000000 	.word	0x20000000
 8001348:	20000004 	.word	0x20000004

0800134c <HAL_IncTick>:
  * @note This function is declared as __weak to be overwritten in case of other
  *      implementations in user file.
  * @retval None
  */
__weak void HAL_IncTick(void)
{
 800134c:	b480      	push	{r7}
 800134e:	af00      	add	r7, sp, #0
  uwTick += uwTickFreq;
 8001350:	4b05      	ldr	r3, [pc, #20]	; (8001368 <HAL_IncTick+0x1c>)
 8001352:	681a      	ldr	r2, [r3, #0]
 8001354:	4b05      	ldr	r3, [pc, #20]	; (800136c <HAL_IncTick+0x20>)
 8001356:	681b      	ldr	r3, [r3, #0]
 8001358:	4413      	add	r3, r2
 800135a:	4a03      	ldr	r2, [pc, #12]	; (8001368 <HAL_IncTick+0x1c>)
 800135c:	6013      	str	r3, [r2, #0]
}
 800135e:	bf00      	nop
 8001360:	46bd      	mov	sp, r7
 8001362:	f85d 7b04 	ldr.w	r7, [sp], #4
 8001366:	4770      	bx	lr
 8001368:	200018b8 	.word	0x200018b8
 800136c:	20000008 	.word	0x20000008

08001370 <HAL_GetTick>:
  * @note This function is declared as __weak to be overwritten in case of other
  *       implementations in user file.
  * @retval tick value
  */
__weak uint32_t HAL_GetTick(void)
{
 8001370:	b480      	push	{r7}
 8001372:	af00      	add	r7, sp, #0
  return uwTick;
 8001374:	4b03      	ldr	r3, [pc, #12]	; (8001384 <HAL_GetTick+0x14>)
 8001376:	681b      	ldr	r3, [r3, #0]
}
 8001378:	4618      	mov	r0, r3
 800137a:	46bd      	mov	sp, r7
 800137c:	f85d 7b04 	ldr.w	r7, [sp], #4
 8001380:	4770      	bx	lr
 8001382:	bf00      	nop
 8001384:	200018b8 	.word	0x200018b8

08001388 <__NVIC_SetPriorityGrouping>:
 8001388:	b480      	push	{r7}
 800138a:	b085      	sub	sp, #20
 800138c:	af00      	add	r7, sp, #0
 800138e:	6078      	str	r0, [r7, #4]
 8001390:	687b      	ldr	r3, [r7, #4]
 8001392:	f003 0307 	and.w	r3, r3, #7
 8001396:	60fb      	str	r3, [r7, #12]
 8001398:	4b0c      	ldr	r3, [pc, #48]	; (80013cc <__NVIC_SetPriorityGrouping+0x44>)
 800139a:	68db      	ldr	r3, [r3, #12]
 800139c:	60bb      	str	r3, [r7, #8]
 800139e:	68ba      	ldr	r2, [r7, #8]
 80013a0:	f64f 03ff 	movw	r3, #63743	; 0xf8ff
 80013a4:	4013      	ands	r3, r2
 80013a6:	60bb      	str	r3, [r7, #8]
 80013a8:	68fb      	ldr	r3, [r7, #12]
 80013aa:	021a      	lsls	r2, r3, #8
 80013ac:	68bb      	ldr	r3, [r7, #8]
 80013ae:	4313      	orrs	r3, r2
 80013b0:	f043 63bf 	orr.w	r3, r3, #100139008	; 0x5f80000
 80013b4:	f443 3300 	orr.w	r3, r3, #131072	; 0x20000
 80013b8:	60bb      	str	r3, [r7, #8]
 80013ba:	4a04      	ldr	r2, [pc, #16]	; (80013cc <__NVIC_SetPriorityGrouping+0x44>)
 80013bc:	68bb      	ldr	r3, [r7, #8]
 80013be:	60d3      	str	r3, [r2, #12]
 80013c0:	bf00      	nop
 80013c2:	3714      	adds	r7, #20
 80013c4:	46bd      	mov	sp, r7
 80013c6:	f85d 7b04 	ldr.w	r7, [sp], #4
 80013ca:	4770      	bx	lr
 80013cc:	e000ed00 	.word	0xe000ed00

080013d0 <__NVIC_GetPriorityGrouping>:
 80013d0:	b480      	push	{r7}
 80013d2:	af00      	add	r7, sp, #0
 80013d4:	4b04      	ldr	r3, [pc, #16]	; (80013e8 <__NVIC_GetPriorityGrouping+0x18>)
 80013d6:	68db      	ldr	r3, [r3, #12]
 80013d8:	0a1b      	lsrs	r3, r3, #8
 80013da:	f003 0307 	and.w	r3, r3, #7
 80013de:	4618      	mov	r0, r3
 80013e0:	46bd      	mov	sp, r7
 80013e2:	f85d 7b04 	ldr.w	r7, [sp], #4
 80013e6:	4770      	bx	lr
 80013e8:	e000ed00 	.word	0xe000ed00

080013ec <__NVIC_EnableIRQ>:
 80013ec:	b480      	push	{r7}
 80013ee:	b083      	sub	sp, #12
 80013f0:	af00      	add	r7, sp, #0
 80013f2:	4603      	mov	r3, r0
 80013f4:	71fb      	strb	r3, [r7, #7]
 80013f6:	f997 3007 	ldrsb.w	r3, [r7, #7]
 80013fa:	2b00      	cmp	r3, #0
 80013fc:	db0b      	blt.n	8001416 <__NVIC_EnableIRQ+0x2a>
 80013fe:	79fb      	ldrb	r3, [r7, #7]
 8001400:	f003 021f 	and.w	r2, r3, #31
 8001404:	4907      	ldr	r1, [pc, #28]	; (8001424 <__NVIC_EnableIRQ+0x38>)
 8001406:	f997 3007 	ldrsb.w	r3, [r7, #7]
 800140a:	095b      	lsrs	r3, r3, #5
 800140c:	2001      	movs	r0, #1
 800140e:	fa00 f202 	lsl.w	r2, r0, r2
 8001412:	f841 2023 	str.w	r2, [r1, r3, lsl #2]
 8001416:	bf00      	nop
 8001418:	370c      	adds	r7, #12
 800141a:	46bd      	mov	sp, r7
 800141c:	f85d 7b04 	ldr.w	r7, [sp], #4
 8001420:	4770      	bx	lr
 8001422:	bf00      	nop
 8001424:	e000e100 	.word	0xe000e100

08001428 <__NVIC_SetPriority>:
 8001428:	b480      	push	{r7}
 800142a:	b083      	sub	sp, #12
 800142c:	af00      	add	r7, sp, #0
 800142e:	4603      	mov	r3, r0
 8001430:	6039      	str	r1, [r7, #0]
 8001432:	71fb      	strb	r3, [r7, #7]
 8001434:	f997 3007 	ldrsb.w	r3, [r7, #7]
 8001438:	2b00      	cmp	r3, #0
 800143a:	db0a      	blt.n	8001452 <__NVIC_SetPriority+0x2a>
 800143c:	683b      	ldr	r3, [r7, #0]
 800143e:	b2da      	uxtb	r2, r3
 8001440:	490c      	ldr	r1, [pc, #48]	; (8001474 <__NVIC_SetPriority+0x4c>)
 8001442:	f997 3007 	ldrsb.w	r3, [r7, #7]
 8001446:	0112      	lsls	r2, r2, #4
 8001448:	b2d2      	uxtb	r2, r2
 800144a:	440b      	add	r3, r1
 800144c:	f883 2300 	strb.w	r2, [r3, #768]	; 0x300
 8001450:	e00a      	b.n	8001468 <__NVIC_SetPriority+0x40>
 8001452:	683b      	ldr	r3, [r7, #0]
 8001454:	b2da      	uxtb	r2, r3
 8001456:	4908      	ldr	r1, [pc, #32]	; (8001478 <__NVIC_SetPriority+0x50>)
 8001458:	79fb      	ldrb	r3, [r7, #7]
 800145a:	f003 030f 	and.w	r3, r3, #15
 800145e:	3b04      	subs	r3, #4
 8001460:	0112      	lsls	r2, r2, #4
 8001462:	b2d2      	uxtb	r2, r2
 8001464:	440b      	add	r3, r1
 8001466:	761a      	strb	r2, [r3, #24]
 8001468:	bf00      	nop
 800146a:	370c      	adds	r7, #12
 800146c:	46bd      	mov	sp, r7
 800146e:	f85d 7b04 	ldr.w	r7, [sp], #4
 8001472:	4770      	bx	lr
 8001474:	e000e100 	.word	0xe000e100
 8001478:	e000ed00 	.word	0xe000ed00

0800147c <NVIC_EncodePriority>:
 800147c:	b480      	push	{r7}
 800147e:	b089      	sub	sp, #36	; 0x24
 8001480:	af00      	add	r7, sp, #0
 8001482:	60f8      	str	r0, [r7, #12]
 8001484:	60b9      	str	r1, [r7, #8]
 8001486:	607a      	str	r2, [r7, #4]
 8001488:	68fb      	ldr	r3, [r7, #12]
 800148a:	f003 0307 	and.w	r3, r3, #7
 800148e:	61fb      	str	r3, [r7, #28]
 8001490:	69fb      	ldr	r3, [r7, #28]
 8001492:	f1c3 0307 	rsb	r3, r3, #7
 8001496:	2b04      	cmp	r3, #4
 8001498:	bf28      	it	cs
 800149a:	2304      	movcs	r3, #4
 800149c:	61bb      	str	r3, [r7, #24]
 800149e:	69fb      	ldr	r3, [r7, #28]
 80014a0:	3304      	adds	r3, #4
 80014a2:	2b06      	cmp	r3, #6
 80014a4:	d902      	bls.n	80014ac <NVIC_EncodePriority+0x30>
 80014a6:	69fb      	ldr	r3, [r7, #28]
 80014a8:	3b03      	subs	r3, #3
 80014aa:	e000      	b.n	80014ae <NVIC_EncodePriority+0x32>
 80014ac:	2300      	movs	r3, #0
 80014ae:	617b      	str	r3, [r7, #20]
 80014b0:	f04f 32ff 	mov.w	r2, #4294967295
 80014b4:	69bb      	ldr	r3, [r7, #24]
 80014b6:	fa02 f303 	lsl.w	r3, r2, r3
 80014ba:	43da      	mvns	r2, r3
 80014bc:	68bb      	ldr	r3, [r7, #8]
 80014be:	401a      	ands	r2, r3
 80014c0:	697b      	ldr	r3, [r7, #20]
 80014c2:	409a      	lsls	r2, r3
 80014c4:	f04f 31ff 	mov.w	r1, #4294967295
 80014c8:	697b      	ldr	r3, [r7, #20]
 80014ca:	fa01 f303 	lsl.w	r3, r1, r3
 80014ce:	43d9      	mvns	r1, r3
 80014d0:	687b      	ldr	r3, [r7, #4]
 80014d2:	400b      	ands	r3, r1
 80014d4:	4313      	orrs	r3, r2
 80014d6:	4618      	mov	r0, r3
 80014d8:	3724      	adds	r7, #36	; 0x24
 80014da:	46bd      	mov	sp, r7
 80014dc:	f85d 7b04 	ldr.w	r7, [sp], #4
 80014e0:	4770      	bx	lr
	...

080014e4 <SysTick_Config>:
 80014e4:	b580      	push	{r7, lr}
 80014e6:	b082      	sub	sp, #8
 80014e8:	af00      	add	r7, sp, #0
 80014ea:	6078      	str	r0, [r7, #4]
 80014ec:	687b      	ldr	r3, [r7, #4]
 80014ee:	3b01      	subs	r3, #1
 80014f0:	f1b3 7f80 	cmp.w	r3, #16777216	; 0x1000000
 80014f4:	d301      	bcc.n	80014fa <SysTick_Config+0x16>
 80014f6:	2301      	movs	r3, #1
 80014f8:	e00f      	b.n	800151a <SysTick_Config+0x36>
 80014fa:	4a0a      	ldr	r2, [pc, #40]	; (8001524 <SysTick_Config+0x40>)
 80014fc:	687b      	ldr	r3, [r7, #4]
 80014fe:	3b01      	subs	r3, #1
 8001500:	6053      	str	r3, [r2, #4]
 8001502:	210f      	movs	r1, #15
 8001504:	f04f 30ff 	mov.w	r0, #4294967295
 8001508:	f7ff ff8e 	bl	8001428 <__NVIC_SetPriority>
 800150c:	4b05      	ldr	r3, [pc, #20]	; (8001524 <SysTick_Config+0x40>)
 800150e:	2200      	movs	r2, #0
 8001510:	609a      	str	r2, [r3, #8]
 8001512:	4b04      	ldr	r3, [pc, #16]	; (8001524 <SysTick_Config+0x40>)
 8001514:	2207      	movs	r2, #7
 8001516:	601a      	str	r2, [r3, #0]
 8001518:	2300      	movs	r3, #0
 800151a:	4618      	mov	r0, r3
 800151c:	3708      	adds	r7, #8
 800151e:	46bd      	mov	sp, r7
 8001520:	bd80      	pop	{r7, pc}
 8001522:	bf00      	nop
 8001524:	e000e010 	.word	0xe000e010

08001528 <HAL_NVIC_SetPriorityGrouping>:
 8001528:	b580      	push	{r7, lr}
 800152a:	b082      	sub	sp, #8
 800152c:	af00      	add	r7, sp, #0
 800152e:	6078      	str	r0, [r7, #4]
 8001530:	6878      	ldr	r0, [r7, #4]
 8001532:	f7ff ff29 	bl	8001388 <__NVIC_SetPriorityGrouping>
 8001536:	bf00      	nop
 8001538:	3708      	adds	r7, #8
 800153a:	46bd      	mov	sp, r7
 800153c:	bd80      	pop	{r7, pc}

0800153e <HAL_NVIC_SetPriority>:
 800153e:	b580      	push	{r7, lr}
 8001540:	b086      	sub	sp, #24
 8001542:	af00      	add	r7, sp, #0
 8001544:	4603      	mov	r3, r0
 8001546:	60b9      	str	r1, [r7, #8]
 8001548:	607a      	str	r2, [r7, #4]
 800154a:	73fb      	strb	r3, [r7, #15]
 800154c:	f7ff ff40 	bl	80013d0 <__NVIC_GetPriorityGrouping>
 8001550:	6178      	str	r0, [r7, #20]
 8001552:	687a      	ldr	r2, [r7, #4]
 8001554:	68b9      	ldr	r1, [r7, #8]
 8001556:	6978      	ldr	r0, [r7, #20]
 8001558:	f7ff ff90 	bl	800147c <NVIC_EncodePriority>
 800155c:	4602      	mov	r2, r0
 800155e:	f997 300f 	ldrsb.w	r3, [r7, #15]
 8001562:	4611      	mov	r1, r2
 8001564:	4618      	mov	r0, r3
 8001566:	f7ff ff5f 	bl	8001428 <__NVIC_SetPriority>
 800156a:	bf00      	nop
 800156c:	3718      	adds	r7, #24
 800156e:	46bd      	mov	sp, r7
 8001570:	bd80      	pop	{r7, pc}

08001572 <HAL_NVIC_EnableIRQ>:
 8001572:	b580      	push	{r7, lr}
 8001574:	b082      	sub	sp, #8
 8001576:	af00      	add	r7, sp, #0
 8001578:	4603      	mov	r3, r0
 800157a:	71fb      	strb	r3, [r7, #7]
 800157c:	f997 3007 	ldrsb.w	r3, [r7, #7]
 8001580:	4618      	mov	r0, r3
 8001582:	f7ff ff33 	bl	80013ec <__NVIC_EnableIRQ>
 8001586:	bf00      	nop
 8001588:	3708      	adds	r7, #8
 800158a:	46bd      	mov	sp, r7
 800158c:	bd80      	pop	{r7, pc}

0800158e <HAL_SYSTICK_Config>:
 800158e:	b580      	push	{r7, lr}
 8001590:	b082      	sub	sp, #8
 8001592:	af00      	add	r7, sp, #0
 8001594:	6078      	str	r0, [r7, #4]
 8001596:	6878      	ldr	r0, [r7, #4]
 8001598:	f7ff ffa4 	bl	80014e4 <SysTick_Config>
 800159c:	4603      	mov	r3, r0
 800159e:	4618      	mov	r0, r3
 80015a0:	3708      	adds	r7, #8
 80015a2:	46bd      	mov	sp, r7
 80015a4:	bd80      	pop	{r7, pc}
	...

080015a8 <HAL_DMA_Init>:
 80015a8:	b580      	push	{r7, lr}
 80015aa:	b084      	sub	sp, #16
 80015ac:	af00      	add	r7, sp, #0
 80015ae:	6078      	str	r0, [r7, #4]
 80015b0:	687b      	ldr	r3, [r7, #4]
 80015b2:	2b00      	cmp	r3, #0
 80015b4:	d101      	bne.n	80015ba <HAL_DMA_Init+0x12>
 80015b6:	2301      	movs	r3, #1
 80015b8:	e08d      	b.n	80016d6 <HAL_DMA_Init+0x12e>
 80015ba:	687b      	ldr	r3, [r7, #4]
 80015bc:	681b      	ldr	r3, [r3, #0]
 80015be:	461a      	mov	r2, r3
 80015c0:	4b47      	ldr	r3, [pc, #284]	; (80016e0 <HAL_DMA_Init+0x138>)
 80015c2:	429a      	cmp	r2, r3
 80015c4:	d80f      	bhi.n	80015e6 <HAL_DMA_Init+0x3e>
 80015c6:	687b      	ldr	r3, [r7, #4]
 80015c8:	681b      	ldr	r3, [r3, #0]
 80015ca:	461a      	mov	r2, r3
 80015cc:	4b45      	ldr	r3, [pc, #276]	; (80016e4 <HAL_DMA_Init+0x13c>)
 80015ce:	4413      	add	r3, r2
 80015d0:	4a45      	ldr	r2, [pc, #276]	; (80016e8 <HAL_DMA_Init+0x140>)
 80015d2:	fba2 2303 	umull	r2, r3, r2, r3
 80015d6:	091b      	lsrs	r3, r3, #4
 80015d8:	009a      	lsls	r2, r3, #2
 80015da:	687b      	ldr	r3, [r7, #4]
 80015dc:	645a      	str	r2, [r3, #68]	; 0x44
 80015de:	687b      	ldr	r3, [r7, #4]
 80015e0:	4a42      	ldr	r2, [pc, #264]	; (80016ec <HAL_DMA_Init+0x144>)
 80015e2:	641a      	str	r2, [r3, #64]	; 0x40
 80015e4:	e00e      	b.n	8001604 <HAL_DMA_Init+0x5c>
 80015e6:	687b      	ldr	r3, [r7, #4]
 80015e8:	681b      	ldr	r3, [r3, #0]
 80015ea:	461a      	mov	r2, r3
 80015ec:	4b40      	ldr	r3, [pc, #256]	; (80016f0 <HAL_DMA_Init+0x148>)
 80015ee:	4413      	add	r3, r2
 80015f0:	4a3d      	ldr	r2, [pc, #244]	; (80016e8 <HAL_DMA_Init+0x140>)
 80015f2:	fba2 2303 	umull	r2, r3, r2, r3
 80015f6:	091b      	lsrs	r3, r3, #4
 80015f8:	009a      	lsls	r2, r3, #2
 80015fa:	687b      	ldr	r3, [r7, #4]
 80015fc:	645a      	str	r2, [r3, #68]	; 0x44
 80015fe:	687b      	ldr	r3, [r7, #4]
 8001600:	4a3c      	ldr	r2, [pc, #240]	; (80016f4 <HAL_DMA_Init+0x14c>)
 8001602:	641a      	str	r2, [r3, #64]	; 0x40
 8001604:	687b      	ldr	r3, [r7, #4]
 8001606:	2202      	movs	r2, #2
 8001608:	f883 2025 	strb.w	r2, [r3, #37]	; 0x25
 800160c:	687b      	ldr	r3, [r7, #4]
 800160e:	681b      	ldr	r3, [r3, #0]
 8001610:	681b      	ldr	r3, [r3, #0]
 8001612:	60fb      	str	r3, [r7, #12]
 8001614:	68fb      	ldr	r3, [r7, #12]
 8001616:	f423 43ff 	bic.w	r3, r3, #32640	; 0x7f80
 800161a:	f023 0370 	bic.w	r3, r3, #112	; 0x70
 800161e:	60fb      	str	r3, [r7, #12]
 8001620:	687b      	ldr	r3, [r7, #4]
 8001622:	689a      	ldr	r2, [r3, #8]
 8001624:	687b      	ldr	r3, [r7, #4]
 8001626:	68db      	ldr	r3, [r3, #12]
 8001628:	431a      	orrs	r2, r3
 800162a:	687b      	ldr	r3, [r7, #4]
 800162c:	691b      	ldr	r3, [r3, #16]
 800162e:	431a      	orrs	r2, r3
 8001630:	687b      	ldr	r3, [r7, #4]
 8001632:	695b      	ldr	r3, [r3, #20]
 8001634:	431a      	orrs	r2, r3
 8001636:	687b      	ldr	r3, [r7, #4]
 8001638:	699b      	ldr	r3, [r3, #24]
 800163a:	431a      	orrs	r2, r3
 800163c:	687b      	ldr	r3, [r7, #4]
 800163e:	69db      	ldr	r3, [r3, #28]
 8001640:	431a      	orrs	r2, r3
 8001642:	687b      	ldr	r3, [r7, #4]
 8001644:	6a1b      	ldr	r3, [r3, #32]
 8001646:	4313      	orrs	r3, r2
 8001648:	68fa      	ldr	r2, [r7, #12]
 800164a:	4313      	orrs	r3, r2
 800164c:	60fb      	str	r3, [r7, #12]
 800164e:	687b      	ldr	r3, [r7, #4]
 8001650:	681b      	ldr	r3, [r3, #0]
 8001652:	68fa      	ldr	r2, [r7, #12]
 8001654:	601a      	str	r2, [r3, #0]
 8001656:	6878      	ldr	r0, [r7, #4]
 8001658:	f000 f9b6 	bl	80019c8 <DMA_CalcDMAMUXChannelBaseAndMask>
 800165c:	687b      	ldr	r3, [r7, #4]
 800165e:	689b      	ldr	r3, [r3, #8]
 8001660:	f5b3 4f80 	cmp.w	r3, #16384	; 0x4000
 8001664:	d102      	bne.n	800166c <HAL_DMA_Init+0xc4>
 8001666:	687b      	ldr	r3, [r7, #4]
 8001668:	2200      	movs	r2, #0
 800166a:	605a      	str	r2, [r3, #4]
 800166c:	687b      	ldr	r3, [r7, #4]
 800166e:	685a      	ldr	r2, [r3, #4]
 8001670:	687b      	ldr	r3, [r7, #4]
 8001672:	6c9b      	ldr	r3, [r3, #72]	; 0x48
 8001674:	b2d2      	uxtb	r2, r2
 8001676:	601a      	str	r2, [r3, #0]
 8001678:	687b      	ldr	r3, [r7, #4]
 800167a:	6cdb      	ldr	r3, [r3, #76]	; 0x4c
 800167c:	687a      	ldr	r2, [r7, #4]
 800167e:	6d12      	ldr	r2, [r2, #80]	; 0x50
 8001680:	605a      	str	r2, [r3, #4]
 8001682:	687b      	ldr	r3, [r7, #4]
 8001684:	685b      	ldr	r3, [r3, #4]
 8001686:	2b00      	cmp	r3, #0
 8001688:	d010      	beq.n	80016ac <HAL_DMA_Init+0x104>
 800168a:	687b      	ldr	r3, [r7, #4]
 800168c:	685b      	ldr	r3, [r3, #4]
 800168e:	2b04      	cmp	r3, #4
 8001690:	d80c      	bhi.n	80016ac <HAL_DMA_Init+0x104>
 8001692:	6878      	ldr	r0, [r7, #4]
 8001694:	f000 f9d6 	bl	8001a44 <DMA_CalcDMAMUXRequestGenBaseAndMask>
 8001698:	687b      	ldr	r3, [r7, #4]
 800169a:	6d5b      	ldr	r3, [r3, #84]	; 0x54
 800169c:	2200      	movs	r2, #0
 800169e:	601a      	str	r2, [r3, #0]
 80016a0:	687b      	ldr	r3, [r7, #4]
 80016a2:	6d9b      	ldr	r3, [r3, #88]	; 0x58
 80016a4:	687a      	ldr	r2, [r7, #4]
 80016a6:	6dd2      	ldr	r2, [r2, #92]	; 0x5c
 80016a8:	605a      	str	r2, [r3, #4]
 80016aa:	e008      	b.n	80016be <HAL_DMA_Init+0x116>
 80016ac:	687b      	ldr	r3, [r7, #4]
 80016ae:	2200      	movs	r2, #0
 80016b0:	655a      	str	r2, [r3, #84]	; 0x54
 80016b2:	687b      	ldr	r3, [r7, #4]
 80016b4:	2200      	movs	r2, #0
 80016b6:	659a      	str	r2, [r3, #88]	; 0x58
 80016b8:	687b      	ldr	r3, [r7, #4]
 80016ba:	2200      	movs	r2, #0
 80016bc:	65da      	str	r2, [r3, #92]	; 0x5c
 80016be:	687b      	ldr	r3, [r7, #4]
 80016c0:	2200      	movs	r2, #0
 80016c2:	63da      	str	r2, [r3, #60]	; 0x3c
 80016c4:	687b      	ldr	r3, [r7, #4]
 80016c6:	2201      	movs	r2, #1
 80016c8:	f883 2025 	strb.w	r2, [r3, #37]	; 0x25
 80016cc:	687b      	ldr	r3, [r7, #4]
 80016ce:	2200      	movs	r2, #0
 80016d0:	f883 2024 	strb.w	r2, [r3, #36]	; 0x24
 80016d4:	2300      	movs	r3, #0
 80016d6:	4618      	mov	r0, r3
 80016d8:	3710      	adds	r7, #16
 80016da:	46bd      	mov	sp, r7
 80016dc:	bd80      	pop	{r7, pc}
 80016de:	bf00      	nop
 80016e0:	40020407 	.word	0x40020407
 80016e4:	bffdfff8 	.word	0xbffdfff8
 80016e8:	cccccccd 	.word	0xcccccccd
 80016ec:	40020000 	.word	0x40020000
 80016f0:	bffdfbf8 	.word	0xbffdfbf8
 80016f4:	40020400 	.word	0x40020400

080016f8 <HAL_DMA_Start_IT>:
 80016f8:	b580      	push	{r7, lr}
 80016fa:	b086      	sub	sp, #24
 80016fc:	af00      	add	r7, sp, #0
 80016fe:	60f8      	str	r0, [r7, #12]
 8001700:	60b9      	str	r1, [r7, #8]
 8001702:	607a      	str	r2, [r7, #4]
 8001704:	603b      	str	r3, [r7, #0]
 8001706:	2300      	movs	r3, #0
 8001708:	75fb      	strb	r3, [r7, #23]
 800170a:	68fb      	ldr	r3, [r7, #12]
 800170c:	f893 3024 	ldrb.w	r3, [r3, #36]	; 0x24
 8001710:	2b01      	cmp	r3, #1
 8001712:	d101      	bne.n	8001718 <HAL_DMA_Start_IT+0x20>
 8001714:	2302      	movs	r3, #2
 8001716:	e066      	b.n	80017e6 <HAL_DMA_Start_IT+0xee>
 8001718:	68fb      	ldr	r3, [r7, #12]
 800171a:	2201      	movs	r2, #1
 800171c:	f883 2024 	strb.w	r2, [r3, #36]	; 0x24
 8001720:	68fb      	ldr	r3, [r7, #12]
 8001722:	f893 3025 	ldrb.w	r3, [r3, #37]	; 0x25
 8001726:	b2db      	uxtb	r3, r3
 8001728:	2b01      	cmp	r3, #1
 800172a:	d155      	bne.n	80017d8 <HAL_DMA_Start_IT+0xe0>
 800172c:	68fb      	ldr	r3, [r7, #12]
 800172e:	2202      	movs	r2, #2
 8001730:	f883 2025 	strb.w	r2, [r3, #37]	; 0x25
 8001734:	68fb      	ldr	r3, [r7, #12]
 8001736:	2200      	movs	r2, #0
 8001738:	63da      	str	r2, [r3, #60]	; 0x3c
 800173a:	68fb      	ldr	r3, [r7, #12]
 800173c:	681b      	ldr	r3, [r3, #0]
 800173e:	681a      	ldr	r2, [r3, #0]
 8001740:	68fb      	ldr	r3, [r7, #12]
 8001742:	681b      	ldr	r3, [r3, #0]
 8001744:	f022 0201 	bic.w	r2, r2, #1
 8001748:	601a      	str	r2, [r3, #0]
 800174a:	683b      	ldr	r3, [r7, #0]
 800174c:	687a      	ldr	r2, [r7, #4]
 800174e:	68b9      	ldr	r1, [r7, #8]
 8001750:	68f8      	ldr	r0, [r7, #12]
 8001752:	f000 f8fb 	bl	800194c <DMA_SetConfig>
 8001756:	68fb      	ldr	r3, [r7, #12]
 8001758:	6b1b      	ldr	r3, [r3, #48]	; 0x30
 800175a:	2b00      	cmp	r3, #0
 800175c:	d008      	beq.n	8001770 <HAL_DMA_Start_IT+0x78>
 800175e:	68fb      	ldr	r3, [r7, #12]
 8001760:	681b      	ldr	r3, [r3, #0]
 8001762:	681a      	ldr	r2, [r3, #0]
 8001764:	68fb      	ldr	r3, [r7, #12]
 8001766:	681b      	ldr	r3, [r3, #0]
 8001768:	f042 020e 	orr.w	r2, r2, #14
 800176c:	601a      	str	r2, [r3, #0]
 800176e:	e00f      	b.n	8001790 <HAL_DMA_Start_IT+0x98>
 8001770:	68fb      	ldr	r3, [r7, #12]
 8001772:	681b      	ldr	r3, [r3, #0]
 8001774:	681a      	ldr	r2, [r3, #0]
 8001776:	68fb      	ldr	r3, [r7, #12]
 8001778:	681b      	ldr	r3, [r3, #0]
 800177a:	f022 0204 	bic.w	r2, r2, #4
 800177e:	601a      	str	r2, [r3, #0]
 8001780:	68fb      	ldr	r3, [r7, #12]
 8001782:	681b      	ldr	r3, [r3, #0]
 8001784:	681a      	ldr	r2, [r3, #0]
 8001786:	68fb      	ldr	r3, [r7, #12]
 8001788:	681b      	ldr	r3, [r3, #0]
 800178a:	f042 020a 	orr.w	r2, r2, #10
 800178e:	601a      	str	r2, [r3, #0]
 8001790:	68fb      	ldr	r3, [r7, #12]
 8001792:	6c9b      	ldr	r3, [r3, #72]	; 0x48
 8001794:	681b      	ldr	r3, [r3, #0]
 8001796:	f403 3380 	and.w	r3, r3, #65536	; 0x10000
 800179a:	2b00      	cmp	r3, #0
 800179c:	d007      	beq.n	80017ae <HAL_DMA_Start_IT+0xb6>
 800179e:	68fb      	ldr	r3, [r7, #12]
 80017a0:	6c9b      	ldr	r3, [r3, #72]	; 0x48
 80017a2:	681a      	ldr	r2, [r3, #0]
 80017a4:	68fb      	ldr	r3, [r7, #12]
 80017a6:	6c9b      	ldr	r3, [r3, #72]	; 0x48
 80017a8:	f442 7280 	orr.w	r2, r2, #256	; 0x100
 80017ac:	601a      	str	r2, [r3, #0]
 80017ae:	68fb      	ldr	r3, [r7, #12]
 80017b0:	6d5b      	ldr	r3, [r3, #84]	; 0x54
 80017b2:	2b00      	cmp	r3, #0
 80017b4:	d007      	beq.n	80017c6 <HAL_DMA_Start_IT+0xce>
 80017b6:	68fb      	ldr	r3, [r7, #12]
 80017b8:	6d5b      	ldr	r3, [r3, #84]	; 0x54
 80017ba:	681a      	ldr	r2, [r3, #0]
 80017bc:	68fb      	ldr	r3, [r7, #12]
 80017be:	6d5b      	ldr	r3, [r3, #84]	; 0x54
 80017c0:	f442 7280 	orr.w	r2, r2, #256	; 0x100
 80017c4:	601a      	str	r2, [r3, #0]
 80017c6:	68fb      	ldr	r3, [r7, #12]
 80017c8:	681b      	ldr	r3, [r3, #0]
 80017ca:	681a      	ldr	r2, [r3, #0]
 80017cc:	68fb      	ldr	r3, [r7, #12]
 80017ce:	681b      	ldr	r3, [r3, #0]
 80017d0:	f042 0201 	orr.w	r2, r2, #1
 80017d4:	601a      	str	r2, [r3, #0]
 80017d6:	e005      	b.n	80017e4 <HAL_DMA_Start_IT+0xec>
 80017d8:	68fb      	ldr	r3, [r7, #12]
 80017da:	2200      	movs	r2, #0
 80017dc:	f883 2024 	strb.w	r2, [r3, #36]	; 0x24
 80017e0:	2302      	movs	r3, #2
 80017e2:	75fb      	strb	r3, [r7, #23]
 80017e4:	7dfb      	ldrb	r3, [r7, #23]
 80017e6:	4618      	mov	r0, r3
 80017e8:	3718      	adds	r7, #24
 80017ea:	46bd      	mov	sp, r7
 80017ec:	bd80      	pop	{r7, pc}

080017ee <HAL_DMA_IRQHandler>:
 80017ee:	b580      	push	{r7, lr}
 80017f0:	b084      	sub	sp, #16
 80017f2:	af00      	add	r7, sp, #0
 80017f4:	6078      	str	r0, [r7, #4]
 80017f6:	687b      	ldr	r3, [r7, #4]
 80017f8:	6c1b      	ldr	r3, [r3, #64]	; 0x40
 80017fa:	681b      	ldr	r3, [r3, #0]
 80017fc:	60fb      	str	r3, [r7, #12]
 80017fe:	687b      	ldr	r3, [r7, #4]
 8001800:	681b      	ldr	r3, [r3, #0]
 8001802:	681b      	ldr	r3, [r3, #0]
 8001804:	60bb      	str	r3, [r7, #8]
 8001806:	687b      	ldr	r3, [r7, #4]
 8001808:	6c5b      	ldr	r3, [r3, #68]	; 0x44
 800180a:	f003 031f 	and.w	r3, r3, #31
 800180e:	2204      	movs	r2, #4
 8001810:	409a      	lsls	r2, r3
 8001812:	68fb      	ldr	r3, [r7, #12]
 8001814:	4013      	ands	r3, r2
 8001816:	2b00      	cmp	r3, #0
 8001818:	d026      	beq.n	8001868 <HAL_DMA_IRQHandler+0x7a>
 800181a:	68bb      	ldr	r3, [r7, #8]
 800181c:	f003 0304 	and.w	r3, r3, #4
 8001820:	2b00      	cmp	r3, #0
 8001822:	d021      	beq.n	8001868 <HAL_DMA_IRQHandler+0x7a>
 8001824:	687b      	ldr	r3, [r7, #4]
 8001826:	681b      	ldr	r3, [r3, #0]
 8001828:	681b      	ldr	r3, [r3, #0]
 800182a:	f003 0320 	and.w	r3, r3, #32
 800182e:	2b00      	cmp	r3, #0
 8001830:	d107      	bne.n	8001842 <HAL_DMA_IRQHandler+0x54>
 8001832:	687b      	ldr	r3, [r7, #4]
 8001834:	681b      	ldr	r3, [r3, #0]
 8001836:	681a      	ldr	r2, [r3, #0]
 8001838:	687b      	ldr	r3, [r7, #4]
 800183a:	681b      	ldr	r3, [r3, #0]
 800183c:	f022 0204 	bic.w	r2, r2, #4
 8001840:	601a      	str	r2, [r3, #0]
 8001842:	687b      	ldr	r3, [r7, #4]
 8001844:	6c5b      	ldr	r3, [r3, #68]	; 0x44
 8001846:	f003 021f 	and.w	r2, r3, #31
 800184a:	687b      	ldr	r3, [r7, #4]
 800184c:	6c1b      	ldr	r3, [r3, #64]	; 0x40
 800184e:	2104      	movs	r1, #4
 8001850:	fa01 f202 	lsl.w	r2, r1, r2
 8001854:	605a      	str	r2, [r3, #4]
 8001856:	687b      	ldr	r3, [r7, #4]
 8001858:	6b1b      	ldr	r3, [r3, #48]	; 0x30
 800185a:	2b00      	cmp	r3, #0
 800185c:	d071      	beq.n	8001942 <HAL_DMA_IRQHandler+0x154>
 800185e:	687b      	ldr	r3, [r7, #4]
 8001860:	6b1b      	ldr	r3, [r3, #48]	; 0x30
 8001862:	6878      	ldr	r0, [r7, #4]
 8001864:	4798      	blx	r3
 8001866:	e06c      	b.n	8001942 <HAL_DMA_IRQHandler+0x154>
 8001868:	687b      	ldr	r3, [r7, #4]
 800186a:	6c5b      	ldr	r3, [r3, #68]	; 0x44
 800186c:	f003 031f 	and.w	r3, r3, #31
 8001870:	2202      	movs	r2, #2
 8001872:	409a      	lsls	r2, r3
 8001874:	68fb      	ldr	r3, [r7, #12]
 8001876:	4013      	ands	r3, r2
 8001878:	2b00      	cmp	r3, #0
 800187a:	d02e      	beq.n	80018da <HAL_DMA_IRQHandler+0xec>
 800187c:	68bb      	ldr	r3, [r7, #8]
 800187e:	f003 0302 	and.w	r3, r3, #2
 8001882:	2b00      	cmp	r3, #0
 8001884:	d029      	beq.n	80018da <HAL_DMA_IRQHandler+0xec>
 8001886:	687b      	ldr	r3, [r7, #4]
 8001888:	681b      	ldr	r3, [r3, #0]
 800188a:	681b      	ldr	r3, [r3, #0]
 800188c:	f003 0320 	and.w	r3, r3, #32
 8001890:	2b00      	cmp	r3, #0
 8001892:	d10b      	bne.n	80018ac <HAL_DMA_IRQHandler+0xbe>
 8001894:	687b      	ldr	r3, [r7, #4]
 8001896:	681b      	ldr	r3, [r3, #0]
 8001898:	681a      	ldr	r2, [r3, #0]
 800189a:	687b      	ldr	r3, [r7, #4]
 800189c:	681b      	ldr	r3, [r3, #0]
 800189e:	f022 020a 	bic.w	r2, r2, #10
 80018a2:	601a      	str	r2, [r3, #0]
 80018a4:	687b      	ldr	r3, [r7, #4]
 80018a6:	2201      	movs	r2, #1
 80018a8:	f883 2025 	strb.w	r2, [r3, #37]	; 0x25
 80018ac:	687b      	ldr	r3, [r7, #4]
 80018ae:	6c5b      	ldr	r3, [r3, #68]	; 0x44
 80018b0:	f003 021f 	and.w	r2, r3, #31
 80018b4:	687b      	ldr	r3, [r7, #4]
 80018b6:	6c1b      	ldr	r3, [r3, #64]	; 0x40
 80018b8:	2102      	movs	r1, #2
 80018ba:	fa01 f202 	lsl.w	r2, r1, r2
 80018be:	605a      	str	r2, [r3, #4]
 80018c0:	687b      	ldr	r3, [r7, #4]
 80018c2:	2200      	movs	r2, #0
 80018c4:	f883 2024 	strb.w	r2, [r3, #36]	; 0x24
 80018c8:	687b      	ldr	r3, [r7, #4]
 80018ca:	6adb      	ldr	r3, [r3, #44]	; 0x2c
 80018cc:	2b00      	cmp	r3, #0
 80018ce:	d038      	beq.n	8001942 <HAL_DMA_IRQHandler+0x154>
 80018d0:	687b      	ldr	r3, [r7, #4]
 80018d2:	6adb      	ldr	r3, [r3, #44]	; 0x2c
 80018d4:	6878      	ldr	r0, [r7, #4]
 80018d6:	4798      	blx	r3
 80018d8:	e033      	b.n	8001942 <HAL_DMA_IRQHandler+0x154>
 80018da:	687b      	ldr	r3, [r7, #4]
 80018dc:	6c5b      	ldr	r3, [r3, #68]	; 0x44
 80018de:	f003 031f 	and.w	r3, r3, #31
 80018e2:	2208      	movs	r2, #8
 80018e4:	409a      	lsls	r2, r3
 80018e6:	68fb      	ldr	r3, [r7, #12]
 80018e8:	4013      	ands	r3, r2
 80018ea:	2b00      	cmp	r3, #0
 80018ec:	d02a      	beq.n	8001944 <HAL_DMA_IRQHandler+0x156>
 80018ee:	68bb      	ldr	r3, [r7, #8]
 80018f0:	f003 0308 	and.w	r3, r3, #8
 80018f4:	2b00      	cmp	r3, #0
 80018f6:	d025      	beq.n	8001944 <HAL_DMA_IRQHandler+0x156>
 80018f8:	687b      	ldr	r3, [r7, #4]
 80018fa:	681b      	ldr	r3, [r3, #0]
 80018fc:	681a      	ldr	r2, [r3, #0]
 80018fe:	687b      	ldr	r3, [r7, #4]
 8001900:	681b      	ldr	r3, [r3, #0]
 8001902:	f022 020e 	bic.w	r2, r2, #14
 8001906:	601a      	str	r2, [r3, #0]
 8001908:	687b      	ldr	r3, [r7, #4]
 800190a:	6c5b      	ldr	r3, [r3, #68]	; 0x44
 800190c:	f003 021f 	and.w	r2, r3, #31
 8001910:	687b      	ldr	r3, [r7, #4]
 8001912:	6c1b      	ldr	r3, [r3, #64]	; 0x40
 8001914:	2101      	movs	r1, #1
 8001916:	fa01 f202 	lsl.w	r2, r1, r2
 800191a:	605a      	str	r2, [r3, #4]
 800191c:	687b      	ldr	r3, [r7, #4]
 800191e:	2201      	movs	r2, #1
 8001920:	63da      	str	r2, [r3, #60]	; 0x3c
 8001922:	687b      	ldr	r3, [r7, #4]
 8001924:	2201      	movs	r2, #1
 8001926:	f883 2025 	strb.w	r2, [r3, #37]	; 0x25
 800192a:	687b      	ldr	r3, [r7, #4]
 800192c:	2200      	movs	r2, #0
 800192e:	f883 2024 	strb.w	r2, [r3, #36]	; 0x24
 8001932:	687b      	ldr	r3, [r7, #4]
 8001934:	6b5b      	ldr	r3, [r3, #52]	; 0x34
 8001936:	2b00      	cmp	r3, #0
 8001938:	d004      	beq.n	8001944 <HAL_DMA_IRQHandler+0x156>
 800193a:	687b      	ldr	r3, [r7, #4]
 800193c:	6b5b      	ldr	r3, [r3, #52]	; 0x34
 800193e:	6878      	ldr	r0, [r7, #4]
 8001940:	4798      	blx	r3
 8001942:	bf00      	nop
 8001944:	bf00      	nop
 8001946:	3710      	adds	r7, #16
 8001948:	46bd      	mov	sp, r7
 800194a:	bd80      	pop	{r7, pc}

0800194c <DMA_SetConfig>:
 800194c:	b480      	push	{r7}
 800194e:	b085      	sub	sp, #20
 8001950:	af00      	add	r7, sp, #0
 8001952:	60f8      	str	r0, [r7, #12]
 8001954:	60b9      	str	r1, [r7, #8]
 8001956:	607a      	str	r2, [r7, #4]
 8001958:	603b      	str	r3, [r7, #0]
 800195a:	68fb      	ldr	r3, [r7, #12]
 800195c:	6cdb      	ldr	r3, [r3, #76]	; 0x4c
 800195e:	68fa      	ldr	r2, [r7, #12]
 8001960:	6d12      	ldr	r2, [r2, #80]	; 0x50
 8001962:	605a      	str	r2, [r3, #4]
 8001964:	68fb      	ldr	r3, [r7, #12]
 8001966:	6d5b      	ldr	r3, [r3, #84]	; 0x54
 8001968:	2b00      	cmp	r3, #0
 800196a:	d004      	beq.n	8001976 <DMA_SetConfig+0x2a>
 800196c:	68fb      	ldr	r3, [r7, #12]
 800196e:	6d9b      	ldr	r3, [r3, #88]	; 0x58
 8001970:	68fa      	ldr	r2, [r7, #12]
 8001972:	6dd2      	ldr	r2, [r2, #92]	; 0x5c
 8001974:	605a      	str	r2, [r3, #4]
 8001976:	68fb      	ldr	r3, [r7, #12]
 8001978:	6c5b      	ldr	r3, [r3, #68]	; 0x44
 800197a:	f003 021f 	and.w	r2, r3, #31
 800197e:	68fb      	ldr	r3, [r7, #12]
 8001980:	6c1b      	ldr	r3, [r3, #64]	; 0x40
 8001982:	2101      	movs	r1, #1
 8001984:	fa01 f202 	lsl.w	r2, r1, r2
 8001988:	605a      	str	r2, [r3, #4]
 800198a:	68fb      	ldr	r3, [r7, #12]
 800198c:	681b      	ldr	r3, [r3, #0]
 800198e:	683a      	ldr	r2, [r7, #0]
 8001990:	605a      	str	r2, [r3, #4]
 8001992:	68fb      	ldr	r3, [r7, #12]
 8001994:	689b      	ldr	r3, [r3, #8]
 8001996:	2b10      	cmp	r3, #16
 8001998:	d108      	bne.n	80019ac <DMA_SetConfig+0x60>
 800199a:	68fb      	ldr	r3, [r7, #12]
 800199c:	681b      	ldr	r3, [r3, #0]
 800199e:	687a      	ldr	r2, [r7, #4]
 80019a0:	609a      	str	r2, [r3, #8]
 80019a2:	68fb      	ldr	r3, [r7, #12]
 80019a4:	681b      	ldr	r3, [r3, #0]
 80019a6:	68ba      	ldr	r2, [r7, #8]
 80019a8:	60da      	str	r2, [r3, #12]
 80019aa:	e007      	b.n	80019bc <DMA_SetConfig+0x70>
 80019ac:	68fb      	ldr	r3, [r7, #12]
 80019ae:	681b      	ldr	r3, [r3, #0]
 80019b0:	68ba      	ldr	r2, [r7, #8]
 80019b2:	609a      	str	r2, [r3, #8]
 80019b4:	68fb      	ldr	r3, [r7, #12]
 80019b6:	681b      	ldr	r3, [r3, #0]
 80019b8:	687a      	ldr	r2, [r7, #4]
 80019ba:	60da      	str	r2, [r3, #12]
 80019bc:	bf00      	nop
 80019be:	3714      	adds	r7, #20
 80019c0:	46bd      	mov	sp, r7
 80019c2:	f85d 7b04 	ldr.w	r7, [sp], #4
 80019c6:	4770      	bx	lr

080019c8 <DMA_CalcDMAMUXChannelBaseAndMask>:
 80019c8:	b480      	push	{r7}
 80019ca:	b087      	sub	sp, #28
 80019cc:	af00      	add	r7, sp, #0
 80019ce:	6078      	str	r0, [r7, #4]
 80019d0:	687b      	ldr	r3, [r7, #4]
 80019d2:	681b      	ldr	r3, [r3, #0]
 80019d4:	461a      	mov	r2, r3
 80019d6:	4b16      	ldr	r3, [pc, #88]	; (8001a30 <DMA_CalcDMAMUXChannelBaseAndMask+0x68>)
 80019d8:	429a      	cmp	r2, r3
 80019da:	d802      	bhi.n	80019e2 <DMA_CalcDMAMUXChannelBaseAndMask+0x1a>
 80019dc:	4b15      	ldr	r3, [pc, #84]	; (8001a34 <DMA_CalcDMAMUXChannelBaseAndMask+0x6c>)
 80019de:	617b      	str	r3, [r7, #20]
 80019e0:	e001      	b.n	80019e6 <DMA_CalcDMAMUXChannelBaseAndMask+0x1e>
 80019e2:	4b15      	ldr	r3, [pc, #84]	; (8001a38 <DMA_CalcDMAMUXChannelBaseAndMask+0x70>)
 80019e4:	617b      	str	r3, [r7, #20]
 80019e6:	697b      	ldr	r3, [r7, #20]
 80019e8:	613b      	str	r3, [r7, #16]
 80019ea:	687b      	ldr	r3, [r7, #4]
 80019ec:	681b      	ldr	r3, [r3, #0]
 80019ee:	b2db      	uxtb	r3, r3
 80019f0:	3b08      	subs	r3, #8
 80019f2:	4a12      	ldr	r2, [pc, #72]	; (8001a3c <DMA_CalcDMAMUXChannelBaseAndMask+0x74>)
 80019f4:	fba2 2303 	umull	r2, r3, r2, r3
 80019f8:	091b      	lsrs	r3, r3, #4
 80019fa:	60fb      	str	r3, [r7, #12]
 80019fc:	687b      	ldr	r3, [r7, #4]
 80019fe:	6c5b      	ldr	r3, [r3, #68]	; 0x44
 8001a00:	089b      	lsrs	r3, r3, #2
 8001a02:	009a      	lsls	r2, r3, #2
 8001a04:	693b      	ldr	r3, [r7, #16]
 8001a06:	4413      	add	r3, r2
 8001a08:	461a      	mov	r2, r3
 8001a0a:	687b      	ldr	r3, [r7, #4]
 8001a0c:	649a      	str	r2, [r3, #72]	; 0x48
 8001a0e:	687b      	ldr	r3, [r7, #4]
 8001a10:	4a0b      	ldr	r2, [pc, #44]	; (8001a40 <DMA_CalcDMAMUXChannelBaseAndMask+0x78>)
 8001a12:	64da      	str	r2, [r3, #76]	; 0x4c
 8001a14:	68fb      	ldr	r3, [r7, #12]
 8001a16:	f003 031f 	and.w	r3, r3, #31
 8001a1a:	2201      	movs	r2, #1
 8001a1c:	409a      	lsls	r2, r3
 8001a1e:	687b      	ldr	r3, [r7, #4]
 8001a20:	651a      	str	r2, [r3, #80]	; 0x50
 8001a22:	bf00      	nop
 8001a24:	371c      	adds	r7, #28
 8001a26:	46bd      	mov	sp, r7
 8001a28:	f85d 7b04 	ldr.w	r7, [sp], #4
 8001a2c:	4770      	bx	lr
 8001a2e:	bf00      	nop
 8001a30:	40020407 	.word	0x40020407
 8001a34:	40020800 	.word	0x40020800
 8001a38:	40020820 	.word	0x40020820
 8001a3c:	cccccccd 	.word	0xcccccccd
 8001a40:	40020880 	.word	0x40020880

08001a44 <DMA_CalcDMAMUXRequestGenBaseAndMask>:
 8001a44:	b480      	push	{r7}
 8001a46:	b085      	sub	sp, #20
 8001a48:	af00      	add	r7, sp, #0
 8001a4a:	6078      	str	r0, [r7, #4]
 8001a4c:	687b      	ldr	r3, [r7, #4]
 8001a4e:	685b      	ldr	r3, [r3, #4]
 8001a50:	b2db      	uxtb	r3, r3
 8001a52:	60fb      	str	r3, [r7, #12]
 8001a54:	68fa      	ldr	r2, [r7, #12]
 8001a56:	4b0b      	ldr	r3, [pc, #44]	; (8001a84 <DMA_CalcDMAMUXRequestGenBaseAndMask+0x40>)
 8001a58:	4413      	add	r3, r2
 8001a5a:	009b      	lsls	r3, r3, #2
 8001a5c:	461a      	mov	r2, r3
 8001a5e:	687b      	ldr	r3, [r7, #4]
 8001a60:	655a      	str	r2, [r3, #84]	; 0x54
 8001a62:	687b      	ldr	r3, [r7, #4]
 8001a64:	4a08      	ldr	r2, [pc, #32]	; (8001a88 <DMA_CalcDMAMUXRequestGenBaseAndMask+0x44>)
 8001a66:	659a      	str	r2, [r3, #88]	; 0x58
 8001a68:	68fb      	ldr	r3, [r7, #12]
 8001a6a:	3b01      	subs	r3, #1
 8001a6c:	f003 031f 	and.w	r3, r3, #31
 8001a70:	2201      	movs	r2, #1
 8001a72:	409a      	lsls	r2, r3
 8001a74:	687b      	ldr	r3, [r7, #4]
 8001a76:	65da      	str	r2, [r3, #92]	; 0x5c
 8001a78:	bf00      	nop
 8001a7a:	3714      	adds	r7, #20
 8001a7c:	46bd      	mov	sp, r7
 8001a7e:	f85d 7b04 	ldr.w	r7, [sp], #4
 8001a82:	4770      	bx	lr
 8001a84:	1000823f 	.word	0x1000823f
 8001a88:	40020940 	.word	0x40020940

08001a8c <HAL_GPIO_Init>:
 8001a8c:	b480      	push	{r7}
 8001a8e:	b087      	sub	sp, #28
 8001a90:	af00      	add	r7, sp, #0
 8001a92:	6078      	str	r0, [r7, #4]
 8001a94:	6039      	str	r1, [r7, #0]
 8001a96:	2300      	movs	r3, #0
 8001a98:	617b      	str	r3, [r7, #20]
 8001a9a:	e15a      	b.n	8001d52 <HAL_GPIO_Init+0x2c6>
 8001a9c:	683b      	ldr	r3, [r7, #0]
 8001a9e:	681a      	ldr	r2, [r3, #0]
 8001aa0:	2101      	movs	r1, #1
 8001aa2:	697b      	ldr	r3, [r7, #20]
 8001aa4:	fa01 f303 	lsl.w	r3, r1, r3
 8001aa8:	4013      	ands	r3, r2
 8001aaa:	60fb      	str	r3, [r7, #12]
 8001aac:	68fb      	ldr	r3, [r7, #12]
 8001aae:	2b00      	cmp	r3, #0
 8001ab0:	f000 814c 	beq.w	8001d4c <HAL_GPIO_Init+0x2c0>
 8001ab4:	683b      	ldr	r3, [r7, #0]
 8001ab6:	685b      	ldr	r3, [r3, #4]
 8001ab8:	2b01      	cmp	r3, #1
 8001aba:	d00b      	beq.n	8001ad4 <HAL_GPIO_Init+0x48>
 8001abc:	683b      	ldr	r3, [r7, #0]
 8001abe:	685b      	ldr	r3, [r3, #4]
 8001ac0:	2b02      	cmp	r3, #2
 8001ac2:	d007      	beq.n	8001ad4 <HAL_GPIO_Init+0x48>
 8001ac4:	683b      	ldr	r3, [r7, #0]
 8001ac6:	685b      	ldr	r3, [r3, #4]
 8001ac8:	2b11      	cmp	r3, #17
 8001aca:	d003      	beq.n	8001ad4 <HAL_GPIO_Init+0x48>
 8001acc:	683b      	ldr	r3, [r7, #0]
 8001ace:	685b      	ldr	r3, [r3, #4]
 8001ad0:	2b12      	cmp	r3, #18
 8001ad2:	d130      	bne.n	8001b36 <HAL_GPIO_Init+0xaa>
 8001ad4:	687b      	ldr	r3, [r7, #4]
 8001ad6:	689b      	ldr	r3, [r3, #8]
 8001ad8:	613b      	str	r3, [r7, #16]
 8001ada:	697b      	ldr	r3, [r7, #20]
 8001adc:	005b      	lsls	r3, r3, #1
 8001ade:	2203      	movs	r2, #3
 8001ae0:	fa02 f303 	lsl.w	r3, r2, r3
 8001ae4:	43db      	mvns	r3, r3
 8001ae6:	693a      	ldr	r2, [r7, #16]
 8001ae8:	4013      	ands	r3, r2
 8001aea:	613b      	str	r3, [r7, #16]
 8001aec:	683b      	ldr	r3, [r7, #0]
 8001aee:	68da      	ldr	r2, [r3, #12]
 8001af0:	697b      	ldr	r3, [r7, #20]
 8001af2:	005b      	lsls	r3, r3, #1
 8001af4:	fa02 f303 	lsl.w	r3, r2, r3
 8001af8:	693a      	ldr	r2, [r7, #16]
 8001afa:	4313      	orrs	r3, r2
 8001afc:	613b      	str	r3, [r7, #16]
 8001afe:	687b      	ldr	r3, [r7, #4]
 8001b00:	693a      	ldr	r2, [r7, #16]
 8001b02:	609a      	str	r2, [r3, #8]
 8001b04:	687b      	ldr	r3, [r7, #4]
 8001b06:	685b      	ldr	r3, [r3, #4]
 8001b08:	613b      	str	r3, [r7, #16]
 8001b0a:	2201      	movs	r2, #1
 8001b0c:	697b      	ldr	r3, [r7, #20]
 8001b0e:	fa02 f303 	lsl.w	r3, r2, r3
 8001b12:	43db      	mvns	r3, r3
 8001b14:	693a      	ldr	r2, [r7, #16]
 8001b16:	4013      	ands	r3, r2
 8001b18:	613b      	str	r3, [r7, #16]
 8001b1a:	683b      	ldr	r3, [r7, #0]
 8001b1c:	685b      	ldr	r3, [r3, #4]
 8001b1e:	091b      	lsrs	r3, r3, #4
 8001b20:	f003 0201 	and.w	r2, r3, #1
 8001b24:	697b      	ldr	r3, [r7, #20]
 8001b26:	fa02 f303 	lsl.w	r3, r2, r3
 8001b2a:	693a      	ldr	r2, [r7, #16]
 8001b2c:	4313      	orrs	r3, r2
 8001b2e:	613b      	str	r3, [r7, #16]
 8001b30:	687b      	ldr	r3, [r7, #4]
 8001b32:	693a      	ldr	r2, [r7, #16]
 8001b34:	605a      	str	r2, [r3, #4]
 8001b36:	687b      	ldr	r3, [r7, #4]
 8001b38:	68db      	ldr	r3, [r3, #12]
 8001b3a:	613b      	str	r3, [r7, #16]
 8001b3c:	697b      	ldr	r3, [r7, #20]
 8001b3e:	005b      	lsls	r3, r3, #1
 8001b40:	2203      	movs	r2, #3
 8001b42:	fa02 f303 	lsl.w	r3, r2, r3
 8001b46:	43db      	mvns	r3, r3
 8001b48:	693a      	ldr	r2, [r7, #16]
 8001b4a:	4013      	ands	r3, r2
 8001b4c:	613b      	str	r3, [r7, #16]
 8001b4e:	683b      	ldr	r3, [r7, #0]
 8001b50:	689a      	ldr	r2, [r3, #8]
 8001b52:	697b      	ldr	r3, [r7, #20]
 8001b54:	005b      	lsls	r3, r3, #1
 8001b56:	fa02 f303 	lsl.w	r3, r2, r3
 8001b5a:	693a      	ldr	r2, [r7, #16]
 8001b5c:	4313      	orrs	r3, r2
 8001b5e:	613b      	str	r3, [r7, #16]
 8001b60:	687b      	ldr	r3, [r7, #4]
 8001b62:	693a      	ldr	r2, [r7, #16]
 8001b64:	60da      	str	r2, [r3, #12]
 8001b66:	683b      	ldr	r3, [r7, #0]
 8001b68:	685b      	ldr	r3, [r3, #4]
 8001b6a:	2b02      	cmp	r3, #2
 8001b6c:	d003      	beq.n	8001b76 <HAL_GPIO_Init+0xea>
 8001b6e:	683b      	ldr	r3, [r7, #0]
 8001b70:	685b      	ldr	r3, [r3, #4]
 8001b72:	2b12      	cmp	r3, #18
 8001b74:	d123      	bne.n	8001bbe <HAL_GPIO_Init+0x132>
 8001b76:	697b      	ldr	r3, [r7, #20]
 8001b78:	08da      	lsrs	r2, r3, #3
 8001b7a:	687b      	ldr	r3, [r7, #4]
 8001b7c:	3208      	adds	r2, #8
 8001b7e:	f853 3022 	ldr.w	r3, [r3, r2, lsl #2]
 8001b82:	613b      	str	r3, [r7, #16]
 8001b84:	697b      	ldr	r3, [r7, #20]
 8001b86:	f003 0307 	and.w	r3, r3, #7
 8001b8a:	009b      	lsls	r3, r3, #2
 8001b8c:	220f      	movs	r2, #15
 8001b8e:	fa02 f303 	lsl.w	r3, r2, r3
 8001b92:	43db      	mvns	r3, r3
 8001b94:	693a      	ldr	r2, [r7, #16]
 8001b96:	4013      	ands	r3, r2
 8001b98:	613b      	str	r3, [r7, #16]
 8001b9a:	683b      	ldr	r3, [r7, #0]
 8001b9c:	691a      	ldr	r2, [r3, #16]
 8001b9e:	697b      	ldr	r3, [r7, #20]
 8001ba0:	f003 0307 	and.w	r3, r3, #7
 8001ba4:	009b      	lsls	r3, r3, #2
 8001ba6:	fa02 f303 	lsl.w	r3, r2, r3
 8001baa:	693a      	ldr	r2, [r7, #16]
 8001bac:	4313      	orrs	r3, r2
 8001bae:	613b      	str	r3, [r7, #16]
 8001bb0:	697b      	ldr	r3, [r7, #20]
 8001bb2:	08da      	lsrs	r2, r3, #3
 8001bb4:	687b      	ldr	r3, [r7, #4]
 8001bb6:	3208      	adds	r2, #8
 8001bb8:	6939      	ldr	r1, [r7, #16]
 8001bba:	f843 1022 	str.w	r1, [r3, r2, lsl #2]
 8001bbe:	687b      	ldr	r3, [r7, #4]
 8001bc0:	681b      	ldr	r3, [r3, #0]
 8001bc2:	613b      	str	r3, [r7, #16]
 8001bc4:	697b      	ldr	r3, [r7, #20]
 8001bc6:	005b      	lsls	r3, r3, #1
 8001bc8:	2203      	movs	r2, #3
 8001bca:	fa02 f303 	lsl.w	r3, r2, r3
 8001bce:	43db      	mvns	r3, r3
 8001bd0:	693a      	ldr	r2, [r7, #16]
 8001bd2:	4013      	ands	r3, r2
 8001bd4:	613b      	str	r3, [r7, #16]
 8001bd6:	683b      	ldr	r3, [r7, #0]
 8001bd8:	685b      	ldr	r3, [r3, #4]
 8001bda:	f003 0203 	and.w	r2, r3, #3
 8001bde:	697b      	ldr	r3, [r7, #20]
 8001be0:	005b      	lsls	r3, r3, #1
 8001be2:	fa02 f303 	lsl.w	r3, r2, r3
 8001be6:	693a      	ldr	r2, [r7, #16]
 8001be8:	4313      	orrs	r3, r2
 8001bea:	613b      	str	r3, [r7, #16]
 8001bec:	687b      	ldr	r3, [r7, #4]
 8001bee:	693a      	ldr	r2, [r7, #16]
 8001bf0:	601a      	str	r2, [r3, #0]
 8001bf2:	683b      	ldr	r3, [r7, #0]
 8001bf4:	685b      	ldr	r3, [r3, #4]
 8001bf6:	f003 5380 	and.w	r3, r3, #268435456	; 0x10000000
 8001bfa:	2b00      	cmp	r3, #0
 8001bfc:	f000 80a6 	beq.w	8001d4c <HAL_GPIO_Init+0x2c0>
 8001c00:	4b5b      	ldr	r3, [pc, #364]	; (8001d70 <HAL_GPIO_Init+0x2e4>)
 8001c02:	6e1b      	ldr	r3, [r3, #96]	; 0x60
 8001c04:	4a5a      	ldr	r2, [pc, #360]	; (8001d70 <HAL_GPIO_Init+0x2e4>)
 8001c06:	f043 0301 	orr.w	r3, r3, #1
 8001c0a:	6613      	str	r3, [r2, #96]	; 0x60
 8001c0c:	4b58      	ldr	r3, [pc, #352]	; (8001d70 <HAL_GPIO_Init+0x2e4>)
 8001c0e:	6e1b      	ldr	r3, [r3, #96]	; 0x60
 8001c10:	f003 0301 	and.w	r3, r3, #1
 8001c14:	60bb      	str	r3, [r7, #8]
 8001c16:	68bb      	ldr	r3, [r7, #8]
 8001c18:	4a56      	ldr	r2, [pc, #344]	; (8001d74 <HAL_GPIO_Init+0x2e8>)
 8001c1a:	697b      	ldr	r3, [r7, #20]
 8001c1c:	089b      	lsrs	r3, r3, #2
 8001c1e:	3302      	adds	r3, #2
 8001c20:	f852 3023 	ldr.w	r3, [r2, r3, lsl #2]
 8001c24:	613b      	str	r3, [r7, #16]
 8001c26:	697b      	ldr	r3, [r7, #20]
 8001c28:	f003 0303 	and.w	r3, r3, #3
 8001c2c:	009b      	lsls	r3, r3, #2
 8001c2e:	220f      	movs	r2, #15
 8001c30:	fa02 f303 	lsl.w	r3, r2, r3
 8001c34:	43db      	mvns	r3, r3
 8001c36:	693a      	ldr	r2, [r7, #16]
 8001c38:	4013      	ands	r3, r2
 8001c3a:	613b      	str	r3, [r7, #16]
 8001c3c:	687b      	ldr	r3, [r7, #4]
 8001c3e:	f1b3 4f90 	cmp.w	r3, #1207959552	; 0x48000000
 8001c42:	d01f      	beq.n	8001c84 <HAL_GPIO_Init+0x1f8>
 8001c44:	687b      	ldr	r3, [r7, #4]
 8001c46:	4a4c      	ldr	r2, [pc, #304]	; (8001d78 <HAL_GPIO_Init+0x2ec>)
 8001c48:	4293      	cmp	r3, r2
 8001c4a:	d019      	beq.n	8001c80 <HAL_GPIO_Init+0x1f4>
 8001c4c:	687b      	ldr	r3, [r7, #4]
 8001c4e:	4a4b      	ldr	r2, [pc, #300]	; (8001d7c <HAL_GPIO_Init+0x2f0>)
 8001c50:	4293      	cmp	r3, r2
 8001c52:	d013      	beq.n	8001c7c <HAL_GPIO_Init+0x1f0>
 8001c54:	687b      	ldr	r3, [r7, #4]
 8001c56:	4a4a      	ldr	r2, [pc, #296]	; (8001d80 <HAL_GPIO_Init+0x2f4>)
 8001c58:	4293      	cmp	r3, r2
 8001c5a:	d00d      	beq.n	8001c78 <HAL_GPIO_Init+0x1ec>
 8001c5c:	687b      	ldr	r3, [r7, #4]
 8001c5e:	4a49      	ldr	r2, [pc, #292]	; (8001d84 <HAL_GPIO_Init+0x2f8>)
 8001c60:	4293      	cmp	r3, r2
 8001c62:	d007      	beq.n	8001c74 <HAL_GPIO_Init+0x1e8>
 8001c64:	687b      	ldr	r3, [r7, #4]
 8001c66:	4a48      	ldr	r2, [pc, #288]	; (8001d88 <HAL_GPIO_Init+0x2fc>)
 8001c68:	4293      	cmp	r3, r2
 8001c6a:	d101      	bne.n	8001c70 <HAL_GPIO_Init+0x1e4>
 8001c6c:	2305      	movs	r3, #5
 8001c6e:	e00a      	b.n	8001c86 <HAL_GPIO_Init+0x1fa>
 8001c70:	2306      	movs	r3, #6
 8001c72:	e008      	b.n	8001c86 <HAL_GPIO_Init+0x1fa>
 8001c74:	2304      	movs	r3, #4
 8001c76:	e006      	b.n	8001c86 <HAL_GPIO_Init+0x1fa>
 8001c78:	2303      	movs	r3, #3
 8001c7a:	e004      	b.n	8001c86 <HAL_GPIO_Init+0x1fa>
 8001c7c:	2302      	movs	r3, #2
 8001c7e:	e002      	b.n	8001c86 <HAL_GPIO_Init+0x1fa>
 8001c80:	2301      	movs	r3, #1
 8001c82:	e000      	b.n	8001c86 <HAL_GPIO_Init+0x1fa>
 8001c84:	2300      	movs	r3, #0
 8001c86:	697a      	ldr	r2, [r7, #20]
 8001c88:	f002 0203 	and.w	r2, r2, #3
 8001c8c:	0092      	lsls	r2, r2, #2
 8001c8e:	4093      	lsls	r3, r2
 8001c90:	693a      	ldr	r2, [r7, #16]
 8001c92:	4313      	orrs	r3, r2
 8001c94:	613b      	str	r3, [r7, #16]
 8001c96:	4937      	ldr	r1, [pc, #220]	; (8001d74 <HAL_GPIO_Init+0x2e8>)
 8001c98:	697b      	ldr	r3, [r7, #20]
 8001c9a:	089b      	lsrs	r3, r3, #2
 8001c9c:	3302      	adds	r3, #2
 8001c9e:	693a      	ldr	r2, [r7, #16]
 8001ca0:	f841 2023 	str.w	r2, [r1, r3, lsl #2]
 8001ca4:	4b39      	ldr	r3, [pc, #228]	; (8001d8c <HAL_GPIO_Init+0x300>)
 8001ca6:	681b      	ldr	r3, [r3, #0]
 8001ca8:	613b      	str	r3, [r7, #16]
 8001caa:	68fb      	ldr	r3, [r7, #12]
 8001cac:	43db      	mvns	r3, r3
 8001cae:	693a      	ldr	r2, [r7, #16]
 8001cb0:	4013      	ands	r3, r2
 8001cb2:	613b      	str	r3, [r7, #16]
 8001cb4:	683b      	ldr	r3, [r7, #0]
 8001cb6:	685b      	ldr	r3, [r3, #4]
 8001cb8:	f403 3380 	and.w	r3, r3, #65536	; 0x10000
 8001cbc:	2b00      	cmp	r3, #0
 8001cbe:	d003      	beq.n	8001cc8 <HAL_GPIO_Init+0x23c>
 8001cc0:	693a      	ldr	r2, [r7, #16]
 8001cc2:	68fb      	ldr	r3, [r7, #12]
 8001cc4:	4313      	orrs	r3, r2
 8001cc6:	613b      	str	r3, [r7, #16]
 8001cc8:	4a30      	ldr	r2, [pc, #192]	; (8001d8c <HAL_GPIO_Init+0x300>)
 8001cca:	693b      	ldr	r3, [r7, #16]
 8001ccc:	6013      	str	r3, [r2, #0]
 8001cce:	4b2f      	ldr	r3, [pc, #188]	; (8001d8c <HAL_GPIO_Init+0x300>)
 8001cd0:	685b      	ldr	r3, [r3, #4]
 8001cd2:	613b      	str	r3, [r7, #16]
 8001cd4:	68fb      	ldr	r3, [r7, #12]
 8001cd6:	43db      	mvns	r3, r3
 8001cd8:	693a      	ldr	r2, [r7, #16]
 8001cda:	4013      	ands	r3, r2
 8001cdc:	613b      	str	r3, [r7, #16]
 8001cde:	683b      	ldr	r3, [r7, #0]
 8001ce0:	685b      	ldr	r3, [r3, #4]
 8001ce2:	f403 3300 	and.w	r3, r3, #131072	; 0x20000
 8001ce6:	2b00      	cmp	r3, #0
 8001ce8:	d003      	beq.n	8001cf2 <HAL_GPIO_Init+0x266>
 8001cea:	693a      	ldr	r2, [r7, #16]
 8001cec:	68fb      	ldr	r3, [r7, #12]
 8001cee:	4313      	orrs	r3, r2
 8001cf0:	613b      	str	r3, [r7, #16]
 8001cf2:	4a26      	ldr	r2, [pc, #152]	; (8001d8c <HAL_GPIO_Init+0x300>)
 8001cf4:	693b      	ldr	r3, [r7, #16]
 8001cf6:	6053      	str	r3, [r2, #4]
 8001cf8:	4b24      	ldr	r3, [pc, #144]	; (8001d8c <HAL_GPIO_Init+0x300>)
 8001cfa:	689b      	ldr	r3, [r3, #8]
 8001cfc:	613b      	str	r3, [r7, #16]
 8001cfe:	68fb      	ldr	r3, [r7, #12]
 8001d00:	43db      	mvns	r3, r3
 8001d02:	693a      	ldr	r2, [r7, #16]
 8001d04:	4013      	ands	r3, r2
 8001d06:	613b      	str	r3, [r7, #16]
 8001d08:	683b      	ldr	r3, [r7, #0]
 8001d0a:	685b      	ldr	r3, [r3, #4]
 8001d0c:	f403 1380 	and.w	r3, r3, #1048576	; 0x100000
 8001d10:	2b00      	cmp	r3, #0
 8001d12:	d003      	beq.n	8001d1c <HAL_GPIO_Init+0x290>
 8001d14:	693a      	ldr	r2, [r7, #16]
 8001d16:	68fb      	ldr	r3, [r7, #12]
 8001d18:	4313      	orrs	r3, r2
 8001d1a:	613b      	str	r3, [r7, #16]
 8001d1c:	4a1b      	ldr	r2, [pc, #108]	; (8001d8c <HAL_GPIO_Init+0x300>)
 8001d1e:	693b      	ldr	r3, [r7, #16]
 8001d20:	6093      	str	r3, [r2, #8]
 8001d22:	4b1a      	ldr	r3, [pc, #104]	; (8001d8c <HAL_GPIO_Init+0x300>)
 8001d24:	68db      	ldr	r3, [r3, #12]
 8001d26:	613b      	str	r3, [r7, #16]
 8001d28:	68fb      	ldr	r3, [r7, #12]
 8001d2a:	43db      	mvns	r3, r3
 8001d2c:	693a      	ldr	r2, [r7, #16]
 8001d2e:	4013      	ands	r3, r2
 8001d30:	613b      	str	r3, [r7, #16]
 8001d32:	683b      	ldr	r3, [r7, #0]
 8001d34:	685b      	ldr	r3, [r3, #4]
 8001d36:	f403 1300 	and.w	r3, r3, #2097152	; 0x200000
 8001d3a:	2b00      	cmp	r3, #0
 8001d3c:	d003      	beq.n	8001d46 <HAL_GPIO_Init+0x2ba>
 8001d3e:	693a      	ldr	r2, [r7, #16]
 8001d40:	68fb      	ldr	r3, [r7, #12]
 8001d42:	4313      	orrs	r3, r2
 8001d44:	613b      	str	r3, [r7, #16]
 8001d46:	4a11      	ldr	r2, [pc, #68]	; (8001d8c <HAL_GPIO_Init+0x300>)
 8001d48:	693b      	ldr	r3, [r7, #16]
 8001d4a:	60d3      	str	r3, [r2, #12]
 8001d4c:	697b      	ldr	r3, [r7, #20]
 8001d4e:	3301      	adds	r3, #1
 8001d50:	617b      	str	r3, [r7, #20]
 8001d52:	683b      	ldr	r3, [r7, #0]
 8001d54:	681a      	ldr	r2, [r3, #0]
 8001d56:	697b      	ldr	r3, [r7, #20]
 8001d58:	fa22 f303 	lsr.w	r3, r2, r3
 8001d5c:	2b00      	cmp	r3, #0
 8001d5e:	f47f ae9d 	bne.w	8001a9c <HAL_GPIO_Init+0x10>
 8001d62:	bf00      	nop
 8001d64:	371c      	adds	r7, #28
 8001d66:	46bd      	mov	sp, r7
 8001d68:	f85d 7b04 	ldr.w	r7, [sp], #4
 8001d6c:	4770      	bx	lr
 8001d6e:	bf00      	nop
 8001d70:	40021000 	.word	0x40021000
 8001d74:	40010000 	.word	0x40010000
 8001d78:	48000400 	.word	0x48000400
 8001d7c:	48000800 	.word	0x48000800
 8001d80:	48000c00 	.word	0x48000c00
 8001d84:	48001000 	.word	0x48001000
 8001d88:	48001400 	.word	0x48001400
 8001d8c:	40010400 	.word	0x40010400

08001d90 <HAL_GPIO_WritePin>:
 8001d90:	b480      	push	{r7}
 8001d92:	b083      	sub	sp, #12
 8001d94:	af00      	add	r7, sp, #0
 8001d96:	6078      	str	r0, [r7, #4]
 8001d98:	460b      	mov	r3, r1
 8001d9a:	807b      	strh	r3, [r7, #2]
 8001d9c:	4613      	mov	r3, r2
 8001d9e:	707b      	strb	r3, [r7, #1]
 8001da0:	787b      	ldrb	r3, [r7, #1]
 8001da2:	2b00      	cmp	r3, #0
 8001da4:	d003      	beq.n	8001dae <HAL_GPIO_WritePin+0x1e>
 8001da6:	887a      	ldrh	r2, [r7, #2]
 8001da8:	687b      	ldr	r3, [r7, #4]
 8001daa:	619a      	str	r2, [r3, #24]
 8001dac:	e002      	b.n	8001db4 <HAL_GPIO_WritePin+0x24>
 8001dae:	887a      	ldrh	r2, [r7, #2]
 8001db0:	687b      	ldr	r3, [r7, #4]
 8001db2:	629a      	str	r2, [r3, #40]	; 0x28
 8001db4:	bf00      	nop
 8001db6:	370c      	adds	r7, #12
 8001db8:	46bd      	mov	sp, r7
 8001dba:	f85d 7b04 	ldr.w	r7, [sp], #4
 8001dbe:	4770      	bx	lr

08001dc0 <HAL_PCD_Init>:
 8001dc0:	b5f0      	push	{r4, r5, r6, r7, lr}
 8001dc2:	b08b      	sub	sp, #44	; 0x2c
 8001dc4:	af06      	add	r7, sp, #24
 8001dc6:	6078      	str	r0, [r7, #4]
 8001dc8:	687b      	ldr	r3, [r7, #4]
 8001dca:	2b00      	cmp	r3, #0
 8001dcc:	d101      	bne.n	8001dd2 <HAL_PCD_Init+0x12>
 8001dce:	2301      	movs	r3, #1
 8001dd0:	e0ad      	b.n	8001f2e <HAL_PCD_Init+0x16e>
 8001dd2:	687b      	ldr	r3, [r7, #4]
 8001dd4:	f893 3229 	ldrb.w	r3, [r3, #553]	; 0x229
 8001dd8:	b2db      	uxtb	r3, r3
 8001dda:	2b00      	cmp	r3, #0
 8001ddc:	d106      	bne.n	8001dec <HAL_PCD_Init+0x2c>
 8001dde:	687b      	ldr	r3, [r7, #4]
 8001de0:	2200      	movs	r2, #0
 8001de2:	f883 2228 	strb.w	r2, [r3, #552]	; 0x228
 8001de6:	6878      	ldr	r0, [r7, #4]
 8001de8:	f005 feea 	bl	8007bc0 <HAL_PCD_MspInit>
 8001dec:	687b      	ldr	r3, [r7, #4]
 8001dee:	2203      	movs	r2, #3
 8001df0:	f883 2229 	strb.w	r2, [r3, #553]	; 0x229
 8001df4:	687b      	ldr	r3, [r7, #4]
 8001df6:	681b      	ldr	r3, [r3, #0]
 8001df8:	4618      	mov	r0, r3
 8001dfa:	f003 f88e 	bl	8004f1a <USB_DisableGlobalInt>
 8001dfe:	2300      	movs	r3, #0
 8001e00:	73fb      	strb	r3, [r7, #15]
 8001e02:	e035      	b.n	8001e70 <HAL_PCD_Init+0xb0>
 8001e04:	7bfb      	ldrb	r3, [r7, #15]
 8001e06:	687a      	ldr	r2, [r7, #4]
 8001e08:	015b      	lsls	r3, r3, #5
 8001e0a:	4413      	add	r3, r2
 8001e0c:	3329      	adds	r3, #41	; 0x29
 8001e0e:	2201      	movs	r2, #1
 8001e10:	701a      	strb	r2, [r3, #0]
 8001e12:	7bfb      	ldrb	r3, [r7, #15]
 8001e14:	687a      	ldr	r2, [r7, #4]
 8001e16:	015b      	lsls	r3, r3, #5
 8001e18:	4413      	add	r3, r2
 8001e1a:	3328      	adds	r3, #40	; 0x28
 8001e1c:	7bfa      	ldrb	r2, [r7, #15]
 8001e1e:	701a      	strb	r2, [r3, #0]
 8001e20:	7bfb      	ldrb	r3, [r7, #15]
 8001e22:	7bfa      	ldrb	r2, [r7, #15]
 8001e24:	b291      	uxth	r1, r2
 8001e26:	687a      	ldr	r2, [r7, #4]
 8001e28:	015b      	lsls	r3, r3, #5
 8001e2a:	4413      	add	r3, r2
 8001e2c:	3336      	adds	r3, #54	; 0x36
 8001e2e:	460a      	mov	r2, r1
 8001e30:	801a      	strh	r2, [r3, #0]
 8001e32:	7bfb      	ldrb	r3, [r7, #15]
 8001e34:	687a      	ldr	r2, [r7, #4]
 8001e36:	015b      	lsls	r3, r3, #5
 8001e38:	4413      	add	r3, r2
 8001e3a:	332b      	adds	r3, #43	; 0x2b
 8001e3c:	2200      	movs	r2, #0
 8001e3e:	701a      	strb	r2, [r3, #0]
 8001e40:	7bfb      	ldrb	r3, [r7, #15]
 8001e42:	687a      	ldr	r2, [r7, #4]
 8001e44:	015b      	lsls	r3, r3, #5
 8001e46:	4413      	add	r3, r2
 8001e48:	3338      	adds	r3, #56	; 0x38
 8001e4a:	2200      	movs	r2, #0
 8001e4c:	601a      	str	r2, [r3, #0]
 8001e4e:	7bfb      	ldrb	r3, [r7, #15]
 8001e50:	687a      	ldr	r2, [r7, #4]
 8001e52:	015b      	lsls	r3, r3, #5
 8001e54:	4413      	add	r3, r2
 8001e56:	333c      	adds	r3, #60	; 0x3c
 8001e58:	2200      	movs	r2, #0
 8001e5a:	601a      	str	r2, [r3, #0]
 8001e5c:	7bfb      	ldrb	r3, [r7, #15]
 8001e5e:	687a      	ldr	r2, [r7, #4]
 8001e60:	3302      	adds	r3, #2
 8001e62:	015b      	lsls	r3, r3, #5
 8001e64:	4413      	add	r3, r2
 8001e66:	2200      	movs	r2, #0
 8001e68:	601a      	str	r2, [r3, #0]
 8001e6a:	7bfb      	ldrb	r3, [r7, #15]
 8001e6c:	3301      	adds	r3, #1
 8001e6e:	73fb      	strb	r3, [r7, #15]
 8001e70:	7bfa      	ldrb	r2, [r7, #15]
 8001e72:	687b      	ldr	r3, [r7, #4]
 8001e74:	685b      	ldr	r3, [r3, #4]
 8001e76:	429a      	cmp	r2, r3
 8001e78:	d3c4      	bcc.n	8001e04 <HAL_PCD_Init+0x44>
 8001e7a:	2300      	movs	r3, #0
 8001e7c:	73fb      	strb	r3, [r7, #15]
 8001e7e:	e031      	b.n	8001ee4 <HAL_PCD_Init+0x124>
 8001e80:	7bfb      	ldrb	r3, [r7, #15]
 8001e82:	687a      	ldr	r2, [r7, #4]
 8001e84:	015b      	lsls	r3, r3, #5
 8001e86:	4413      	add	r3, r2
 8001e88:	f203 1329 	addw	r3, r3, #297	; 0x129
 8001e8c:	2200      	movs	r2, #0
 8001e8e:	701a      	strb	r2, [r3, #0]
 8001e90:	7bfb      	ldrb	r3, [r7, #15]
 8001e92:	687a      	ldr	r2, [r7, #4]
 8001e94:	015b      	lsls	r3, r3, #5
 8001e96:	4413      	add	r3, r2
 8001e98:	f503 7394 	add.w	r3, r3, #296	; 0x128
 8001e9c:	7bfa      	ldrb	r2, [r7, #15]
 8001e9e:	701a      	strb	r2, [r3, #0]
 8001ea0:	7bfb      	ldrb	r3, [r7, #15]
 8001ea2:	687a      	ldr	r2, [r7, #4]
 8001ea4:	015b      	lsls	r3, r3, #5
 8001ea6:	4413      	add	r3, r2
 8001ea8:	f203 132b 	addw	r3, r3, #299	; 0x12b
 8001eac:	2200      	movs	r2, #0
 8001eae:	701a      	strb	r2, [r3, #0]
 8001eb0:	7bfb      	ldrb	r3, [r7, #15]
 8001eb2:	687a      	ldr	r2, [r7, #4]
 8001eb4:	015b      	lsls	r3, r3, #5
 8001eb6:	4413      	add	r3, r2
 8001eb8:	f503 739c 	add.w	r3, r3, #312	; 0x138
 8001ebc:	2200      	movs	r2, #0
 8001ebe:	601a      	str	r2, [r3, #0]
 8001ec0:	7bfb      	ldrb	r3, [r7, #15]
 8001ec2:	687a      	ldr	r2, [r7, #4]
 8001ec4:	015b      	lsls	r3, r3, #5
 8001ec6:	4413      	add	r3, r2
 8001ec8:	f503 739e 	add.w	r3, r3, #316	; 0x13c
 8001ecc:	2200      	movs	r2, #0
 8001ece:	601a      	str	r2, [r3, #0]
 8001ed0:	7bfb      	ldrb	r3, [r7, #15]
 8001ed2:	687a      	ldr	r2, [r7, #4]
 8001ed4:	330a      	adds	r3, #10
 8001ed6:	015b      	lsls	r3, r3, #5
 8001ed8:	4413      	add	r3, r2
 8001eda:	2200      	movs	r2, #0
 8001edc:	601a      	str	r2, [r3, #0]
 8001ede:	7bfb      	ldrb	r3, [r7, #15]
 8001ee0:	3301      	adds	r3, #1
 8001ee2:	73fb      	strb	r3, [r7, #15]
 8001ee4:	7bfa      	ldrb	r2, [r7, #15]
 8001ee6:	687b      	ldr	r3, [r7, #4]
 8001ee8:	685b      	ldr	r3, [r3, #4]
 8001eea:	429a      	cmp	r2, r3
 8001eec:	d3c8      	bcc.n	8001e80 <HAL_PCD_Init+0xc0>
 8001eee:	687b      	ldr	r3, [r7, #4]
 8001ef0:	681b      	ldr	r3, [r3, #0]
 8001ef2:	603b      	str	r3, [r7, #0]
 8001ef4:	687e      	ldr	r6, [r7, #4]
 8001ef6:	466d      	mov	r5, sp
 8001ef8:	f106 0410 	add.w	r4, r6, #16
 8001efc:	cc0f      	ldmia	r4!, {r0, r1, r2, r3}
 8001efe:	c50f      	stmia	r5!, {r0, r1, r2, r3}
 8001f00:	6823      	ldr	r3, [r4, #0]
 8001f02:	602b      	str	r3, [r5, #0]
 8001f04:	1d33      	adds	r3, r6, #4
 8001f06:	cb0e      	ldmia	r3, {r1, r2, r3}
 8001f08:	6838      	ldr	r0, [r7, #0]
 8001f0a:	f003 f821 	bl	8004f50 <USB_DevInit>
 8001f0e:	687b      	ldr	r3, [r7, #4]
 8001f10:	2200      	movs	r2, #0
 8001f12:	f883 2024 	strb.w	r2, [r3, #36]	; 0x24
 8001f16:	687b      	ldr	r3, [r7, #4]
 8001f18:	2201      	movs	r2, #1
 8001f1a:	f883 2229 	strb.w	r2, [r3, #553]	; 0x229
 8001f1e:	687b      	ldr	r3, [r7, #4]
 8001f20:	69db      	ldr	r3, [r3, #28]
 8001f22:	2b01      	cmp	r3, #1
 8001f24:	d102      	bne.n	8001f2c <HAL_PCD_Init+0x16c>
 8001f26:	6878      	ldr	r0, [r7, #4]
 8001f28:	f000 fe35 	bl	8002b96 <HAL_PCDEx_ActivateLPM>
 8001f2c:	2300      	movs	r3, #0
 8001f2e:	4618      	mov	r0, r3
 8001f30:	3714      	adds	r7, #20
 8001f32:	46bd      	mov	sp, r7
 8001f34:	bdf0      	pop	{r4, r5, r6, r7, pc}

08001f36 <HAL_PCD_Start>:
 8001f36:	b580      	push	{r7, lr}
 8001f38:	b082      	sub	sp, #8
 8001f3a:	af00      	add	r7, sp, #0
 8001f3c:	6078      	str	r0, [r7, #4]
 8001f3e:	687b      	ldr	r3, [r7, #4]
 8001f40:	f893 3228 	ldrb.w	r3, [r3, #552]	; 0x228
 8001f44:	2b01      	cmp	r3, #1
 8001f46:	d101      	bne.n	8001f4c <HAL_PCD_Start+0x16>
 8001f48:	2302      	movs	r3, #2
 8001f4a:	e012      	b.n	8001f72 <HAL_PCD_Start+0x3c>
 8001f4c:	687b      	ldr	r3, [r7, #4]
 8001f4e:	2201      	movs	r2, #1
 8001f50:	f883 2228 	strb.w	r2, [r3, #552]	; 0x228
 8001f54:	687b      	ldr	r3, [r7, #4]
 8001f56:	681b      	ldr	r3, [r3, #0]
 8001f58:	4618      	mov	r0, r3
 8001f5a:	f004 f845 	bl	8005fe8 <USB_DevConnect>
 8001f5e:	687b      	ldr	r3, [r7, #4]
 8001f60:	681b      	ldr	r3, [r3, #0]
 8001f62:	4618      	mov	r0, r3
 8001f64:	f002 ffc0 	bl	8004ee8 <USB_EnableGlobalInt>
 8001f68:	687b      	ldr	r3, [r7, #4]
 8001f6a:	2200      	movs	r2, #0
 8001f6c:	f883 2228 	strb.w	r2, [r3, #552]	; 0x228
 8001f70:	2300      	movs	r3, #0
 8001f72:	4618      	mov	r0, r3
 8001f74:	3708      	adds	r7, #8
 8001f76:	46bd      	mov	sp, r7
 8001f78:	bd80      	pop	{r7, pc}

08001f7a <HAL_PCD_IRQHandler>:
 8001f7a:	b580      	push	{r7, lr}
 8001f7c:	b082      	sub	sp, #8
 8001f7e:	af00      	add	r7, sp, #0
 8001f80:	6078      	str	r0, [r7, #4]
 8001f82:	687b      	ldr	r3, [r7, #4]
 8001f84:	681b      	ldr	r3, [r3, #0]
 8001f86:	4618      	mov	r0, r3
 8001f88:	f004 f845 	bl	8006016 <USB_ReadInterrupts>
 8001f8c:	4603      	mov	r3, r0
 8001f8e:	f403 4300 	and.w	r3, r3, #32768	; 0x8000
 8001f92:	f5b3 4f00 	cmp.w	r3, #32768	; 0x8000
 8001f96:	d102      	bne.n	8001f9e <HAL_PCD_IRQHandler+0x24>
 8001f98:	6878      	ldr	r0, [r7, #4]
 8001f9a:	f000 fb33 	bl	8002604 <PCD_EP_ISR_Handler>
 8001f9e:	687b      	ldr	r3, [r7, #4]
 8001fa0:	681b      	ldr	r3, [r3, #0]
 8001fa2:	4618      	mov	r0, r3
 8001fa4:	f004 f837 	bl	8006016 <USB_ReadInterrupts>
 8001fa8:	4603      	mov	r3, r0
 8001faa:	f403 6380 	and.w	r3, r3, #1024	; 0x400
 8001fae:	f5b3 6f80 	cmp.w	r3, #1024	; 0x400
 8001fb2:	d112      	bne.n	8001fda <HAL_PCD_IRQHandler+0x60>
 8001fb4:	687b      	ldr	r3, [r7, #4]
 8001fb6:	681b      	ldr	r3, [r3, #0]
 8001fb8:	f8b3 3044 	ldrh.w	r3, [r3, #68]	; 0x44
 8001fbc:	b29a      	uxth	r2, r3
 8001fbe:	687b      	ldr	r3, [r7, #4]
 8001fc0:	681b      	ldr	r3, [r3, #0]
 8001fc2:	f422 6280 	bic.w	r2, r2, #1024	; 0x400
 8001fc6:	b292      	uxth	r2, r2
 8001fc8:	f8a3 2044 	strh.w	r2, [r3, #68]	; 0x44
 8001fcc:	6878      	ldr	r0, [r7, #4]
 8001fce:	f005 fe8e 	bl	8007cee <HAL_PCD_ResetCallback>
 8001fd2:	2100      	movs	r1, #0
 8001fd4:	6878      	ldr	r0, [r7, #4]
 8001fd6:	f000 f91e 	bl	8002216 <HAL_PCD_SetAddress>
 8001fda:	687b      	ldr	r3, [r7, #4]
 8001fdc:	681b      	ldr	r3, [r3, #0]
 8001fde:	4618      	mov	r0, r3
 8001fe0:	f004 f819 	bl	8006016 <USB_ReadInterrupts>
 8001fe4:	4603      	mov	r3, r0
 8001fe6:	f403 4380 	and.w	r3, r3, #16384	; 0x4000
 8001fea:	f5b3 4f80 	cmp.w	r3, #16384	; 0x4000
 8001fee:	d10b      	bne.n	8002008 <HAL_PCD_IRQHandler+0x8e>
 8001ff0:	687b      	ldr	r3, [r7, #4]
 8001ff2:	681b      	ldr	r3, [r3, #0]
 8001ff4:	f8b3 3044 	ldrh.w	r3, [r3, #68]	; 0x44
 8001ff8:	b29a      	uxth	r2, r3
 8001ffa:	687b      	ldr	r3, [r7, #4]
 8001ffc:	681b      	ldr	r3, [r3, #0]
 8001ffe:	f422 4280 	bic.w	r2, r2, #16384	; 0x4000
 8002002:	b292      	uxth	r2, r2
 8002004:	f8a3 2044 	strh.w	r2, [r3, #68]	; 0x44
 8002008:	687b      	ldr	r3, [r7, #4]
 800200a:	681b      	ldr	r3, [r3, #0]
 800200c:	4618      	mov	r0, r3
 800200e:	f004 f802 	bl	8006016 <USB_ReadInterrupts>
 8002012:	4603      	mov	r3, r0
 8002014:	f403 5300 	and.w	r3, r3, #8192	; 0x2000
 8002018:	f5b3 5f00 	cmp.w	r3, #8192	; 0x2000
 800201c:	d10b      	bne.n	8002036 <HAL_PCD_IRQHandler+0xbc>
 800201e:	687b      	ldr	r3, [r7, #4]
 8002020:	681b      	ldr	r3, [r3, #0]
 8002022:	f8b3 3044 	ldrh.w	r3, [r3, #68]	; 0x44
 8002026:	b29a      	uxth	r2, r3
 8002028:	687b      	ldr	r3, [r7, #4]
 800202a:	681b      	ldr	r3, [r3, #0]
 800202c:	f422 5200 	bic.w	r2, r2, #8192	; 0x2000
 8002030:	b292      	uxth	r2, r2
 8002032:	f8a3 2044 	strh.w	r2, [r3, #68]	; 0x44
 8002036:	687b      	ldr	r3, [r7, #4]
 8002038:	681b      	ldr	r3, [r3, #0]
 800203a:	4618      	mov	r0, r3
 800203c:	f003 ffeb 	bl	8006016 <USB_ReadInterrupts>
 8002040:	4603      	mov	r3, r0
 8002042:	f403 5380 	and.w	r3, r3, #4096	; 0x1000
 8002046:	f5b3 5f80 	cmp.w	r3, #4096	; 0x1000
 800204a:	d133      	bne.n	80020b4 <HAL_PCD_IRQHandler+0x13a>
 800204c:	687b      	ldr	r3, [r7, #4]
 800204e:	681b      	ldr	r3, [r3, #0]
 8002050:	f8b3 3040 	ldrh.w	r3, [r3, #64]	; 0x40
 8002054:	b29a      	uxth	r2, r3
 8002056:	687b      	ldr	r3, [r7, #4]
 8002058:	681b      	ldr	r3, [r3, #0]
 800205a:	f022 0204 	bic.w	r2, r2, #4
 800205e:	b292      	uxth	r2, r2
 8002060:	f8a3 2040 	strh.w	r2, [r3, #64]	; 0x40
 8002064:	687b      	ldr	r3, [r7, #4]
 8002066:	681b      	ldr	r3, [r3, #0]
 8002068:	f8b3 3040 	ldrh.w	r3, [r3, #64]	; 0x40
 800206c:	b29a      	uxth	r2, r3
 800206e:	687b      	ldr	r3, [r7, #4]
 8002070:	681b      	ldr	r3, [r3, #0]
 8002072:	f022 0208 	bic.w	r2, r2, #8
 8002076:	b292      	uxth	r2, r2
 8002078:	f8a3 2040 	strh.w	r2, [r3, #64]	; 0x40
 800207c:	687b      	ldr	r3, [r7, #4]
 800207e:	f893 3260 	ldrb.w	r3, [r3, #608]	; 0x260
 8002082:	2b01      	cmp	r3, #1
 8002084:	d107      	bne.n	8002096 <HAL_PCD_IRQHandler+0x11c>
 8002086:	687b      	ldr	r3, [r7, #4]
 8002088:	2200      	movs	r2, #0
 800208a:	f883 2260 	strb.w	r2, [r3, #608]	; 0x260
 800208e:	2100      	movs	r1, #0
 8002090:	6878      	ldr	r0, [r7, #4]
 8002092:	f006 f81d 	bl	80080d0 <HAL_PCDEx_LPM_Callback>
 8002096:	6878      	ldr	r0, [r7, #4]
 8002098:	f005 fe62 	bl	8007d60 <HAL_PCD_ResumeCallback>
 800209c:	687b      	ldr	r3, [r7, #4]
 800209e:	681b      	ldr	r3, [r3, #0]
 80020a0:	f8b3 3044 	ldrh.w	r3, [r3, #68]	; 0x44
 80020a4:	b29a      	uxth	r2, r3
 80020a6:	687b      	ldr	r3, [r7, #4]
 80020a8:	681b      	ldr	r3, [r3, #0]
 80020aa:	f422 5280 	bic.w	r2, r2, #4096	; 0x1000
 80020ae:	b292      	uxth	r2, r2
 80020b0:	f8a3 2044 	strh.w	r2, [r3, #68]	; 0x44
 80020b4:	687b      	ldr	r3, [r7, #4]
 80020b6:	681b      	ldr	r3, [r3, #0]
 80020b8:	4618      	mov	r0, r3
 80020ba:	f003 ffac 	bl	8006016 <USB_ReadInterrupts>
 80020be:	4603      	mov	r3, r0
 80020c0:	f403 6300 	and.w	r3, r3, #2048	; 0x800
 80020c4:	f5b3 6f00 	cmp.w	r3, #2048	; 0x800
 80020c8:	d126      	bne.n	8002118 <HAL_PCD_IRQHandler+0x19e>
 80020ca:	687b      	ldr	r3, [r7, #4]
 80020cc:	681b      	ldr	r3, [r3, #0]
 80020ce:	f8b3 3040 	ldrh.w	r3, [r3, #64]	; 0x40
 80020d2:	b29a      	uxth	r2, r3
 80020d4:	687b      	ldr	r3, [r7, #4]
 80020d6:	681b      	ldr	r3, [r3, #0]
 80020d8:	f042 0208 	orr.w	r2, r2, #8
 80020dc:	b292      	uxth	r2, r2
 80020de:	f8a3 2040 	strh.w	r2, [r3, #64]	; 0x40
 80020e2:	687b      	ldr	r3, [r7, #4]
 80020e4:	681b      	ldr	r3, [r3, #0]
 80020e6:	f8b3 3044 	ldrh.w	r3, [r3, #68]	; 0x44
 80020ea:	b29a      	uxth	r2, r3
 80020ec:	687b      	ldr	r3, [r7, #4]
 80020ee:	681b      	ldr	r3, [r3, #0]
 80020f0:	f422 6200 	bic.w	r2, r2, #2048	; 0x800
 80020f4:	b292      	uxth	r2, r2
 80020f6:	f8a3 2044 	strh.w	r2, [r3, #68]	; 0x44
 80020fa:	687b      	ldr	r3, [r7, #4]
 80020fc:	681b      	ldr	r3, [r3, #0]
 80020fe:	f8b3 3040 	ldrh.w	r3, [r3, #64]	; 0x40
 8002102:	b29a      	uxth	r2, r3
 8002104:	687b      	ldr	r3, [r7, #4]
 8002106:	681b      	ldr	r3, [r3, #0]
 8002108:	f042 0204 	orr.w	r2, r2, #4
 800210c:	b292      	uxth	r2, r2
 800210e:	f8a3 2040 	strh.w	r2, [r3, #64]	; 0x40
 8002112:	6878      	ldr	r0, [r7, #4]
 8002114:	f005 fe0a 	bl	8007d2c <HAL_PCD_SuspendCallback>
 8002118:	687b      	ldr	r3, [r7, #4]
 800211a:	681b      	ldr	r3, [r3, #0]
 800211c:	4618      	mov	r0, r3
 800211e:	f003 ff7a 	bl	8006016 <USB_ReadInterrupts>
 8002122:	4603      	mov	r3, r0
 8002124:	f003 0380 	and.w	r3, r3, #128	; 0x80
 8002128:	2b80      	cmp	r3, #128	; 0x80
 800212a:	d13f      	bne.n	80021ac <HAL_PCD_IRQHandler+0x232>
 800212c:	687b      	ldr	r3, [r7, #4]
 800212e:	681b      	ldr	r3, [r3, #0]
 8002130:	f8b3 3044 	ldrh.w	r3, [r3, #68]	; 0x44
 8002134:	b29a      	uxth	r2, r3
 8002136:	687b      	ldr	r3, [r7, #4]
 8002138:	681b      	ldr	r3, [r3, #0]
 800213a:	f022 0280 	bic.w	r2, r2, #128	; 0x80
 800213e:	b292      	uxth	r2, r2
 8002140:	f8a3 2044 	strh.w	r2, [r3, #68]	; 0x44
 8002144:	687b      	ldr	r3, [r7, #4]
 8002146:	f893 3260 	ldrb.w	r3, [r3, #608]	; 0x260
 800214a:	2b00      	cmp	r3, #0
 800214c:	d12b      	bne.n	80021a6 <HAL_PCD_IRQHandler+0x22c>
 800214e:	687b      	ldr	r3, [r7, #4]
 8002150:	681b      	ldr	r3, [r3, #0]
 8002152:	f8b3 3040 	ldrh.w	r3, [r3, #64]	; 0x40
 8002156:	b29a      	uxth	r2, r3
 8002158:	687b      	ldr	r3, [r7, #4]
 800215a:	681b      	ldr	r3, [r3, #0]
 800215c:	f042 0204 	orr.w	r2, r2, #4
 8002160:	b292      	uxth	r2, r2
 8002162:	f8a3 2040 	strh.w	r2, [r3, #64]	; 0x40
 8002166:	687b      	ldr	r3, [r7, #4]
 8002168:	681b      	ldr	r3, [r3, #0]
 800216a:	f8b3 3040 	ldrh.w	r3, [r3, #64]	; 0x40
 800216e:	b29a      	uxth	r2, r3
 8002170:	687b      	ldr	r3, [r7, #4]
 8002172:	681b      	ldr	r3, [r3, #0]
 8002174:	f042 0208 	orr.w	r2, r2, #8
 8002178:	b292      	uxth	r2, r2
 800217a:	f8a3 2040 	strh.w	r2, [r3, #64]	; 0x40
 800217e:	687b      	ldr	r3, [r7, #4]
 8002180:	2201      	movs	r2, #1
 8002182:	f883 2260 	strb.w	r2, [r3, #608]	; 0x260
 8002186:	687b      	ldr	r3, [r7, #4]
 8002188:	681b      	ldr	r3, [r3, #0]
 800218a:	f8b3 3054 	ldrh.w	r3, [r3, #84]	; 0x54
 800218e:	b29b      	uxth	r3, r3
 8002190:	089b      	lsrs	r3, r3, #2
 8002192:	f003 023c 	and.w	r2, r3, #60	; 0x3c
 8002196:	687b      	ldr	r3, [r7, #4]
 8002198:	f8c3 2264 	str.w	r2, [r3, #612]	; 0x264
 800219c:	2101      	movs	r1, #1
 800219e:	6878      	ldr	r0, [r7, #4]
 80021a0:	f005 ff96 	bl	80080d0 <HAL_PCDEx_LPM_Callback>
 80021a4:	e002      	b.n	80021ac <HAL_PCD_IRQHandler+0x232>
 80021a6:	6878      	ldr	r0, [r7, #4]
 80021a8:	f005 fdc0 	bl	8007d2c <HAL_PCD_SuspendCallback>
 80021ac:	687b      	ldr	r3, [r7, #4]
 80021ae:	681b      	ldr	r3, [r3, #0]
 80021b0:	4618      	mov	r0, r3
 80021b2:	f003 ff30 	bl	8006016 <USB_ReadInterrupts>
 80021b6:	4603      	mov	r3, r0
 80021b8:	f403 7300 	and.w	r3, r3, #512	; 0x200
 80021bc:	f5b3 7f00 	cmp.w	r3, #512	; 0x200
 80021c0:	d10e      	bne.n	80021e0 <HAL_PCD_IRQHandler+0x266>
 80021c2:	687b      	ldr	r3, [r7, #4]
 80021c4:	681b      	ldr	r3, [r3, #0]
 80021c6:	f8b3 3044 	ldrh.w	r3, [r3, #68]	; 0x44
 80021ca:	b29a      	uxth	r2, r3
 80021cc:	687b      	ldr	r3, [r7, #4]
 80021ce:	681b      	ldr	r3, [r3, #0]
 80021d0:	f422 7200 	bic.w	r2, r2, #512	; 0x200
 80021d4:	b292      	uxth	r2, r2
 80021d6:	f8a3 2044 	strh.w	r2, [r3, #68]	; 0x44
 80021da:	6878      	ldr	r0, [r7, #4]
 80021dc:	f005 fd79 	bl	8007cd2 <HAL_PCD_SOFCallback>
 80021e0:	687b      	ldr	r3, [r7, #4]
 80021e2:	681b      	ldr	r3, [r3, #0]
 80021e4:	4618      	mov	r0, r3
 80021e6:	f003 ff16 	bl	8006016 <USB_ReadInterrupts>
 80021ea:	4603      	mov	r3, r0
 80021ec:	f403 7380 	and.w	r3, r3, #256	; 0x100
 80021f0:	f5b3 7f80 	cmp.w	r3, #256	; 0x100
 80021f4:	d10b      	bne.n	800220e <HAL_PCD_IRQHandler+0x294>
 80021f6:	687b      	ldr	r3, [r7, #4]
 80021f8:	681b      	ldr	r3, [r3, #0]
 80021fa:	f8b3 3044 	ldrh.w	r3, [r3, #68]	; 0x44
 80021fe:	b29a      	uxth	r2, r3
 8002200:	687b      	ldr	r3, [r7, #4]
 8002202:	681b      	ldr	r3, [r3, #0]
 8002204:	f422 7280 	bic.w	r2, r2, #256	; 0x100
 8002208:	b292      	uxth	r2, r2
 800220a:	f8a3 2044 	strh.w	r2, [r3, #68]	; 0x44
 800220e:	bf00      	nop
 8002210:	3708      	adds	r7, #8
 8002212:	46bd      	mov	sp, r7
 8002214:	bd80      	pop	{r7, pc}

08002216 <HAL_PCD_SetAddress>:
 8002216:	b580      	push	{r7, lr}
 8002218:	b082      	sub	sp, #8
 800221a:	af00      	add	r7, sp, #0
 800221c:	6078      	str	r0, [r7, #4]
 800221e:	460b      	mov	r3, r1
 8002220:	70fb      	strb	r3, [r7, #3]
 8002222:	687b      	ldr	r3, [r7, #4]
 8002224:	f893 3228 	ldrb.w	r3, [r3, #552]	; 0x228
 8002228:	2b01      	cmp	r3, #1
 800222a:	d101      	bne.n	8002230 <HAL_PCD_SetAddress+0x1a>
 800222c:	2302      	movs	r3, #2
 800222e:	e013      	b.n	8002258 <HAL_PCD_SetAddress+0x42>
 8002230:	687b      	ldr	r3, [r7, #4]
 8002232:	2201      	movs	r2, #1
 8002234:	f883 2228 	strb.w	r2, [r3, #552]	; 0x228
 8002238:	687b      	ldr	r3, [r7, #4]
 800223a:	78fa      	ldrb	r2, [r7, #3]
 800223c:	f883 2024 	strb.w	r2, [r3, #36]	; 0x24
 8002240:	687b      	ldr	r3, [r7, #4]
 8002242:	681b      	ldr	r3, [r3, #0]
 8002244:	78fa      	ldrb	r2, [r7, #3]
 8002246:	4611      	mov	r1, r2
 8002248:	4618      	mov	r0, r3
 800224a:	f003 feb9 	bl	8005fc0 <USB_SetDevAddress>
 800224e:	687b      	ldr	r3, [r7, #4]
 8002250:	2200      	movs	r2, #0
 8002252:	f883 2228 	strb.w	r2, [r3, #552]	; 0x228
 8002256:	2300      	movs	r3, #0
 8002258:	4618      	mov	r0, r3
 800225a:	3708      	adds	r7, #8
 800225c:	46bd      	mov	sp, r7
 800225e:	bd80      	pop	{r7, pc}

08002260 <HAL_PCD_EP_Open>:
 8002260:	b580      	push	{r7, lr}
 8002262:	b084      	sub	sp, #16
 8002264:	af00      	add	r7, sp, #0
 8002266:	6078      	str	r0, [r7, #4]
 8002268:	4608      	mov	r0, r1
 800226a:	4611      	mov	r1, r2
 800226c:	461a      	mov	r2, r3
 800226e:	4603      	mov	r3, r0
 8002270:	70fb      	strb	r3, [r7, #3]
 8002272:	460b      	mov	r3, r1
 8002274:	803b      	strh	r3, [r7, #0]
 8002276:	4613      	mov	r3, r2
 8002278:	70bb      	strb	r3, [r7, #2]
 800227a:	2300      	movs	r3, #0
 800227c:	72fb      	strb	r3, [r7, #11]
 800227e:	f997 3003 	ldrsb.w	r3, [r7, #3]
 8002282:	2b00      	cmp	r3, #0
 8002284:	da0b      	bge.n	800229e <HAL_PCD_EP_Open+0x3e>
 8002286:	78fb      	ldrb	r3, [r7, #3]
 8002288:	f003 0307 	and.w	r3, r3, #7
 800228c:	015b      	lsls	r3, r3, #5
 800228e:	3328      	adds	r3, #40	; 0x28
 8002290:	687a      	ldr	r2, [r7, #4]
 8002292:	4413      	add	r3, r2
 8002294:	60fb      	str	r3, [r7, #12]
 8002296:	68fb      	ldr	r3, [r7, #12]
 8002298:	2201      	movs	r2, #1
 800229a:	705a      	strb	r2, [r3, #1]
 800229c:	e00b      	b.n	80022b6 <HAL_PCD_EP_Open+0x56>
 800229e:	78fb      	ldrb	r3, [r7, #3]
 80022a0:	f003 0307 	and.w	r3, r3, #7
 80022a4:	015b      	lsls	r3, r3, #5
 80022a6:	f503 7394 	add.w	r3, r3, #296	; 0x128
 80022aa:	687a      	ldr	r2, [r7, #4]
 80022ac:	4413      	add	r3, r2
 80022ae:	60fb      	str	r3, [r7, #12]
 80022b0:	68fb      	ldr	r3, [r7, #12]
 80022b2:	2200      	movs	r2, #0
 80022b4:	705a      	strb	r2, [r3, #1]
 80022b6:	78fb      	ldrb	r3, [r7, #3]
 80022b8:	f003 0307 	and.w	r3, r3, #7
 80022bc:	b2da      	uxtb	r2, r3
 80022be:	68fb      	ldr	r3, [r7, #12]
 80022c0:	701a      	strb	r2, [r3, #0]
 80022c2:	883a      	ldrh	r2, [r7, #0]
 80022c4:	68fb      	ldr	r3, [r7, #12]
 80022c6:	611a      	str	r2, [r3, #16]
 80022c8:	68fb      	ldr	r3, [r7, #12]
 80022ca:	78ba      	ldrb	r2, [r7, #2]
 80022cc:	70da      	strb	r2, [r3, #3]
 80022ce:	68fb      	ldr	r3, [r7, #12]
 80022d0:	785b      	ldrb	r3, [r3, #1]
 80022d2:	2b00      	cmp	r3, #0
 80022d4:	d004      	beq.n	80022e0 <HAL_PCD_EP_Open+0x80>
 80022d6:	68fb      	ldr	r3, [r7, #12]
 80022d8:	781b      	ldrb	r3, [r3, #0]
 80022da:	b29a      	uxth	r2, r3
 80022dc:	68fb      	ldr	r3, [r7, #12]
 80022de:	81da      	strh	r2, [r3, #14]
 80022e0:	78bb      	ldrb	r3, [r7, #2]
 80022e2:	2b02      	cmp	r3, #2
 80022e4:	d102      	bne.n	80022ec <HAL_PCD_EP_Open+0x8c>
 80022e6:	68fb      	ldr	r3, [r7, #12]
 80022e8:	2200      	movs	r2, #0
 80022ea:	711a      	strb	r2, [r3, #4]
 80022ec:	687b      	ldr	r3, [r7, #4]
 80022ee:	f893 3228 	ldrb.w	r3, [r3, #552]	; 0x228
 80022f2:	2b01      	cmp	r3, #1
 80022f4:	d101      	bne.n	80022fa <HAL_PCD_EP_Open+0x9a>
 80022f6:	2302      	movs	r3, #2
 80022f8:	e00e      	b.n	8002318 <HAL_PCD_EP_Open+0xb8>
 80022fa:	687b      	ldr	r3, [r7, #4]
 80022fc:	2201      	movs	r2, #1
 80022fe:	f883 2228 	strb.w	r2, [r3, #552]	; 0x228
 8002302:	687b      	ldr	r3, [r7, #4]
 8002304:	681b      	ldr	r3, [r3, #0]
 8002306:	68f9      	ldr	r1, [r7, #12]
 8002308:	4618      	mov	r0, r3
 800230a:	f002 fe45 	bl	8004f98 <USB_ActivateEndpoint>
 800230e:	687b      	ldr	r3, [r7, #4]
 8002310:	2200      	movs	r2, #0
 8002312:	f883 2228 	strb.w	r2, [r3, #552]	; 0x228
 8002316:	7afb      	ldrb	r3, [r7, #11]
 8002318:	4618      	mov	r0, r3
 800231a:	3710      	adds	r7, #16
 800231c:	46bd      	mov	sp, r7
 800231e:	bd80      	pop	{r7, pc}

08002320 <HAL_PCD_EP_Close>:
 8002320:	b580      	push	{r7, lr}
 8002322:	b084      	sub	sp, #16
 8002324:	af00      	add	r7, sp, #0
 8002326:	6078      	str	r0, [r7, #4]
 8002328:	460b      	mov	r3, r1
 800232a:	70fb      	strb	r3, [r7, #3]
 800232c:	f997 3003 	ldrsb.w	r3, [r7, #3]
 8002330:	2b00      	cmp	r3, #0
 8002332:	da0b      	bge.n	800234c <HAL_PCD_EP_Close+0x2c>
 8002334:	78fb      	ldrb	r3, [r7, #3]
 8002336:	f003 0307 	and.w	r3, r3, #7
 800233a:	015b      	lsls	r3, r3, #5
 800233c:	3328      	adds	r3, #40	; 0x28
 800233e:	687a      	ldr	r2, [r7, #4]
 8002340:	4413      	add	r3, r2
 8002342:	60fb      	str	r3, [r7, #12]
 8002344:	68fb      	ldr	r3, [r7, #12]
 8002346:	2201      	movs	r2, #1
 8002348:	705a      	strb	r2, [r3, #1]
 800234a:	e00b      	b.n	8002364 <HAL_PCD_EP_Close+0x44>
 800234c:	78fb      	ldrb	r3, [r7, #3]
 800234e:	f003 0307 	and.w	r3, r3, #7
 8002352:	015b      	lsls	r3, r3, #5
 8002354:	f503 7394 	add.w	r3, r3, #296	; 0x128
 8002358:	687a      	ldr	r2, [r7, #4]
 800235a:	4413      	add	r3, r2
 800235c:	60fb      	str	r3, [r7, #12]
 800235e:	68fb      	ldr	r3, [r7, #12]
 8002360:	2200      	movs	r2, #0
 8002362:	705a      	strb	r2, [r3, #1]
 8002364:	78fb      	ldrb	r3, [r7, #3]
 8002366:	f003 0307 	and.w	r3, r3, #7
 800236a:	b2da      	uxtb	r2, r3
 800236c:	68fb      	ldr	r3, [r7, #12]
 800236e:	701a      	strb	r2, [r3, #0]
 8002370:	687b      	ldr	r3, [r7, #4]
 8002372:	f893 3228 	ldrb.w	r3, [r3, #552]	; 0x228
 8002376:	2b01      	cmp	r3, #1
 8002378:	d101      	bne.n	800237e <HAL_PCD_EP_Close+0x5e>
 800237a:	2302      	movs	r3, #2
 800237c:	e00e      	b.n	800239c <HAL_PCD_EP_Close+0x7c>
 800237e:	687b      	ldr	r3, [r7, #4]
 8002380:	2201      	movs	r2, #1
 8002382:	f883 2228 	strb.w	r2, [r3, #552]	; 0x228
 8002386:	687b      	ldr	r3, [r7, #4]
 8002388:	681b      	ldr	r3, [r3, #0]
 800238a:	68f9      	ldr	r1, [r7, #12]
 800238c:	4618      	mov	r0, r3
 800238e:	f003 f8f3 	bl	8005578 <USB_DeactivateEndpoint>
 8002392:	687b      	ldr	r3, [r7, #4]
 8002394:	2200      	movs	r2, #0
 8002396:	f883 2228 	strb.w	r2, [r3, #552]	; 0x228
 800239a:	2300      	movs	r3, #0
 800239c:	4618      	mov	r0, r3
 800239e:	3710      	adds	r7, #16
 80023a0:	46bd      	mov	sp, r7
 80023a2:	bd80      	pop	{r7, pc}

080023a4 <HAL_PCD_EP_Receive>:
 80023a4:	b580      	push	{r7, lr}
 80023a6:	b086      	sub	sp, #24
 80023a8:	af00      	add	r7, sp, #0
 80023aa:	60f8      	str	r0, [r7, #12]
 80023ac:	607a      	str	r2, [r7, #4]
 80023ae:	603b      	str	r3, [r7, #0]
 80023b0:	460b      	mov	r3, r1
 80023b2:	72fb      	strb	r3, [r7, #11]
 80023b4:	7afb      	ldrb	r3, [r7, #11]
 80023b6:	f003 0307 	and.w	r3, r3, #7
 80023ba:	015b      	lsls	r3, r3, #5
 80023bc:	f503 7394 	add.w	r3, r3, #296	; 0x128
 80023c0:	68fa      	ldr	r2, [r7, #12]
 80023c2:	4413      	add	r3, r2
 80023c4:	617b      	str	r3, [r7, #20]
 80023c6:	697b      	ldr	r3, [r7, #20]
 80023c8:	687a      	ldr	r2, [r7, #4]
 80023ca:	615a      	str	r2, [r3, #20]
 80023cc:	697b      	ldr	r3, [r7, #20]
 80023ce:	683a      	ldr	r2, [r7, #0]
 80023d0:	619a      	str	r2, [r3, #24]
 80023d2:	697b      	ldr	r3, [r7, #20]
 80023d4:	2200      	movs	r2, #0
 80023d6:	61da      	str	r2, [r3, #28]
 80023d8:	697b      	ldr	r3, [r7, #20]
 80023da:	2200      	movs	r2, #0
 80023dc:	705a      	strb	r2, [r3, #1]
 80023de:	7afb      	ldrb	r3, [r7, #11]
 80023e0:	f003 0307 	and.w	r3, r3, #7
 80023e4:	b2da      	uxtb	r2, r3
 80023e6:	697b      	ldr	r3, [r7, #20]
 80023e8:	701a      	strb	r2, [r3, #0]
 80023ea:	7afb      	ldrb	r3, [r7, #11]
 80023ec:	f003 0307 	and.w	r3, r3, #7
 80023f0:	2b00      	cmp	r3, #0
 80023f2:	d106      	bne.n	8002402 <HAL_PCD_EP_Receive+0x5e>
 80023f4:	68fb      	ldr	r3, [r7, #12]
 80023f6:	681b      	ldr	r3, [r3, #0]
 80023f8:	6979      	ldr	r1, [r7, #20]
 80023fa:	4618      	mov	r0, r3
 80023fc:	f003 fa52 	bl	80058a4 <USB_EPStartXfer>
 8002400:	e005      	b.n	800240e <HAL_PCD_EP_Receive+0x6a>
 8002402:	68fb      	ldr	r3, [r7, #12]
 8002404:	681b      	ldr	r3, [r3, #0]
 8002406:	6979      	ldr	r1, [r7, #20]
 8002408:	4618      	mov	r0, r3
 800240a:	f003 fa4b 	bl	80058a4 <USB_EPStartXfer>
 800240e:	2300      	movs	r3, #0
 8002410:	4618      	mov	r0, r3
 8002412:	3718      	adds	r7, #24
 8002414:	46bd      	mov	sp, r7
 8002416:	bd80      	pop	{r7, pc}

08002418 <HAL_PCD_EP_GetRxCount>:
 8002418:	b480      	push	{r7}
 800241a:	b083      	sub	sp, #12
 800241c:	af00      	add	r7, sp, #0
 800241e:	6078      	str	r0, [r7, #4]
 8002420:	460b      	mov	r3, r1
 8002422:	70fb      	strb	r3, [r7, #3]
 8002424:	78fb      	ldrb	r3, [r7, #3]
 8002426:	f003 0307 	and.w	r3, r3, #7
 800242a:	687a      	ldr	r2, [r7, #4]
 800242c:	330a      	adds	r3, #10
 800242e:	015b      	lsls	r3, r3, #5
 8002430:	4413      	add	r3, r2
 8002432:	3304      	adds	r3, #4
 8002434:	681b      	ldr	r3, [r3, #0]
 8002436:	4618      	mov	r0, r3
 8002438:	370c      	adds	r7, #12
 800243a:	46bd      	mov	sp, r7
 800243c:	f85d 7b04 	ldr.w	r7, [sp], #4
 8002440:	4770      	bx	lr

08002442 <HAL_PCD_EP_Transmit>:
 8002442:	b580      	push	{r7, lr}
 8002444:	b086      	sub	sp, #24
 8002446:	af00      	add	r7, sp, #0
 8002448:	60f8      	str	r0, [r7, #12]
 800244a:	607a      	str	r2, [r7, #4]
 800244c:	603b      	str	r3, [r7, #0]
 800244e:	460b      	mov	r3, r1
 8002450:	72fb      	strb	r3, [r7, #11]
 8002452:	7afb      	ldrb	r3, [r7, #11]
 8002454:	f003 0307 	and.w	r3, r3, #7
 8002458:	015b      	lsls	r3, r3, #5
 800245a:	3328      	adds	r3, #40	; 0x28
 800245c:	68fa      	ldr	r2, [r7, #12]
 800245e:	4413      	add	r3, r2
 8002460:	617b      	str	r3, [r7, #20]
 8002462:	697b      	ldr	r3, [r7, #20]
 8002464:	687a      	ldr	r2, [r7, #4]
 8002466:	615a      	str	r2, [r3, #20]
 8002468:	697b      	ldr	r3, [r7, #20]
 800246a:	683a      	ldr	r2, [r7, #0]
 800246c:	619a      	str	r2, [r3, #24]
 800246e:	697b      	ldr	r3, [r7, #20]
 8002470:	2200      	movs	r2, #0
 8002472:	61da      	str	r2, [r3, #28]
 8002474:	697b      	ldr	r3, [r7, #20]
 8002476:	2201      	movs	r2, #1
 8002478:	705a      	strb	r2, [r3, #1]
 800247a:	7afb      	ldrb	r3, [r7, #11]
 800247c:	f003 0307 	and.w	r3, r3, #7
 8002480:	b2da      	uxtb	r2, r3
 8002482:	697b      	ldr	r3, [r7, #20]
 8002484:	701a      	strb	r2, [r3, #0]
 8002486:	7afb      	ldrb	r3, [r7, #11]
 8002488:	f003 0307 	and.w	r3, r3, #7
 800248c:	2b00      	cmp	r3, #0
 800248e:	d106      	bne.n	800249e <HAL_PCD_EP_Transmit+0x5c>
 8002490:	68fb      	ldr	r3, [r7, #12]
 8002492:	681b      	ldr	r3, [r3, #0]
 8002494:	6979      	ldr	r1, [r7, #20]
 8002496:	4618      	mov	r0, r3
 8002498:	f003 fa04 	bl	80058a4 <USB_EPStartXfer>
 800249c:	e005      	b.n	80024aa <HAL_PCD_EP_Transmit+0x68>
 800249e:	68fb      	ldr	r3, [r7, #12]
 80024a0:	681b      	ldr	r3, [r3, #0]
 80024a2:	6979      	ldr	r1, [r7, #20]
 80024a4:	4618      	mov	r0, r3
 80024a6:	f003 f9fd 	bl	80058a4 <USB_EPStartXfer>
 80024aa:	2300      	movs	r3, #0
 80024ac:	4618      	mov	r0, r3
 80024ae:	3718      	adds	r7, #24
 80024b0:	46bd      	mov	sp, r7
 80024b2:	bd80      	pop	{r7, pc}

080024b4 <HAL_PCD_EP_SetStall>:
 80024b4:	b580      	push	{r7, lr}
 80024b6:	b084      	sub	sp, #16
 80024b8:	af00      	add	r7, sp, #0
 80024ba:	6078      	str	r0, [r7, #4]
 80024bc:	460b      	mov	r3, r1
 80024be:	70fb      	strb	r3, [r7, #3]
 80024c0:	78fb      	ldrb	r3, [r7, #3]
 80024c2:	f003 0207 	and.w	r2, r3, #7
 80024c6:	687b      	ldr	r3, [r7, #4]
 80024c8:	685b      	ldr	r3, [r3, #4]
 80024ca:	429a      	cmp	r2, r3
 80024cc:	d901      	bls.n	80024d2 <HAL_PCD_EP_SetStall+0x1e>
 80024ce:	2301      	movs	r3, #1
 80024d0:	e046      	b.n	8002560 <HAL_PCD_EP_SetStall+0xac>
 80024d2:	f997 3003 	ldrsb.w	r3, [r7, #3]
 80024d6:	2b00      	cmp	r3, #0
 80024d8:	da0b      	bge.n	80024f2 <HAL_PCD_EP_SetStall+0x3e>
 80024da:	78fb      	ldrb	r3, [r7, #3]
 80024dc:	f003 0307 	and.w	r3, r3, #7
 80024e0:	015b      	lsls	r3, r3, #5
 80024e2:	3328      	adds	r3, #40	; 0x28
 80024e4:	687a      	ldr	r2, [r7, #4]
 80024e6:	4413      	add	r3, r2
 80024e8:	60fb      	str	r3, [r7, #12]
 80024ea:	68fb      	ldr	r3, [r7, #12]
 80024ec:	2201      	movs	r2, #1
 80024ee:	705a      	strb	r2, [r3, #1]
 80024f0:	e009      	b.n	8002506 <HAL_PCD_EP_SetStall+0x52>
 80024f2:	78fb      	ldrb	r3, [r7, #3]
 80024f4:	015b      	lsls	r3, r3, #5
 80024f6:	f503 7394 	add.w	r3, r3, #296	; 0x128
 80024fa:	687a      	ldr	r2, [r7, #4]
 80024fc:	4413      	add	r3, r2
 80024fe:	60fb      	str	r3, [r7, #12]
 8002500:	68fb      	ldr	r3, [r7, #12]
 8002502:	2200      	movs	r2, #0
 8002504:	705a      	strb	r2, [r3, #1]
 8002506:	68fb      	ldr	r3, [r7, #12]
 8002508:	2201      	movs	r2, #1
 800250a:	709a      	strb	r2, [r3, #2]
 800250c:	78fb      	ldrb	r3, [r7, #3]
 800250e:	f003 0307 	and.w	r3, r3, #7
 8002512:	b2da      	uxtb	r2, r3
 8002514:	68fb      	ldr	r3, [r7, #12]
 8002516:	701a      	strb	r2, [r3, #0]
 8002518:	687b      	ldr	r3, [r7, #4]
 800251a:	f893 3228 	ldrb.w	r3, [r3, #552]	; 0x228
 800251e:	2b01      	cmp	r3, #1
 8002520:	d101      	bne.n	8002526 <HAL_PCD_EP_SetStall+0x72>
 8002522:	2302      	movs	r3, #2
 8002524:	e01c      	b.n	8002560 <HAL_PCD_EP_SetStall+0xac>
 8002526:	687b      	ldr	r3, [r7, #4]
 8002528:	2201      	movs	r2, #1
 800252a:	f883 2228 	strb.w	r2, [r3, #552]	; 0x228
 800252e:	687b      	ldr	r3, [r7, #4]
 8002530:	681b      	ldr	r3, [r3, #0]
 8002532:	68f9      	ldr	r1, [r7, #12]
 8002534:	4618      	mov	r0, r3
 8002536:	f003 fc6d 	bl	8005e14 <USB_EPSetStall>
 800253a:	78fb      	ldrb	r3, [r7, #3]
 800253c:	f003 0307 	and.w	r3, r3, #7
 8002540:	2b00      	cmp	r3, #0
 8002542:	d108      	bne.n	8002556 <HAL_PCD_EP_SetStall+0xa2>
 8002544:	687b      	ldr	r3, [r7, #4]
 8002546:	681a      	ldr	r2, [r3, #0]
 8002548:	687b      	ldr	r3, [r7, #4]
 800254a:	f503 730c 	add.w	r3, r3, #560	; 0x230
 800254e:	4619      	mov	r1, r3
 8002550:	4610      	mov	r0, r2
 8002552:	f003 fd70 	bl	8006036 <USB_EP0_OutStart>
 8002556:	687b      	ldr	r3, [r7, #4]
 8002558:	2200      	movs	r2, #0
 800255a:	f883 2228 	strb.w	r2, [r3, #552]	; 0x228
 800255e:	2300      	movs	r3, #0
 8002560:	4618      	mov	r0, r3
 8002562:	3710      	adds	r7, #16
 8002564:	46bd      	mov	sp, r7
 8002566:	bd80      	pop	{r7, pc}

08002568 <HAL_PCD_EP_ClrStall>:
 8002568:	b580      	push	{r7, lr}
 800256a:	b084      	sub	sp, #16
 800256c:	af00      	add	r7, sp, #0
 800256e:	6078      	str	r0, [r7, #4]
 8002570:	460b      	mov	r3, r1
 8002572:	70fb      	strb	r3, [r7, #3]
 8002574:	78fb      	ldrb	r3, [r7, #3]
 8002576:	f003 020f 	and.w	r2, r3, #15
 800257a:	687b      	ldr	r3, [r7, #4]
 800257c:	685b      	ldr	r3, [r3, #4]
 800257e:	429a      	cmp	r2, r3
 8002580:	d901      	bls.n	8002586 <HAL_PCD_EP_ClrStall+0x1e>
 8002582:	2301      	movs	r3, #1
 8002584:	e03a      	b.n	80025fc <HAL_PCD_EP_ClrStall+0x94>
 8002586:	f997 3003 	ldrsb.w	r3, [r7, #3]
 800258a:	2b00      	cmp	r3, #0
 800258c:	da0b      	bge.n	80025a6 <HAL_PCD_EP_ClrStall+0x3e>
 800258e:	78fb      	ldrb	r3, [r7, #3]
 8002590:	f003 0307 	and.w	r3, r3, #7
 8002594:	015b      	lsls	r3, r3, #5
 8002596:	3328      	adds	r3, #40	; 0x28
 8002598:	687a      	ldr	r2, [r7, #4]
 800259a:	4413      	add	r3, r2
 800259c:	60fb      	str	r3, [r7, #12]
 800259e:	68fb      	ldr	r3, [r7, #12]
 80025a0:	2201      	movs	r2, #1
 80025a2:	705a      	strb	r2, [r3, #1]
 80025a4:	e00b      	b.n	80025be <HAL_PCD_EP_ClrStall+0x56>
 80025a6:	78fb      	ldrb	r3, [r7, #3]
 80025a8:	f003 0307 	and.w	r3, r3, #7
 80025ac:	015b      	lsls	r3, r3, #5
 80025ae:	f503 7394 	add.w	r3, r3, #296	; 0x128
 80025b2:	687a      	ldr	r2, [r7, #4]
 80025b4:	4413      	add	r3, r2
 80025b6:	60fb      	str	r3, [r7, #12]
 80025b8:	68fb      	ldr	r3, [r7, #12]
 80025ba:	2200      	movs	r2, #0
 80025bc:	705a      	strb	r2, [r3, #1]
 80025be:	68fb      	ldr	r3, [r7, #12]
 80025c0:	2200      	movs	r2, #0
 80025c2:	709a      	strb	r2, [r3, #2]
 80025c4:	78fb      	ldrb	r3, [r7, #3]
 80025c6:	f003 0307 	and.w	r3, r3, #7
 80025ca:	b2da      	uxtb	r2, r3
 80025cc:	68fb      	ldr	r3, [r7, #12]
 80025ce:	701a      	strb	r2, [r3, #0]
 80025d0:	687b      	ldr	r3, [r7, #4]
 80025d2:	f893 3228 	ldrb.w	r3, [r3, #552]	; 0x228
 80025d6:	2b01      	cmp	r3, #1
 80025d8:	d101      	bne.n	80025de <HAL_PCD_EP_ClrStall+0x76>
 80025da:	2302      	movs	r3, #2
 80025dc:	e00e      	b.n	80025fc <HAL_PCD_EP_ClrStall+0x94>
 80025de:	687b      	ldr	r3, [r7, #4]
 80025e0:	2201      	movs	r2, #1
 80025e2:	f883 2228 	strb.w	r2, [r3, #552]	; 0x228
 80025e6:	687b      	ldr	r3, [r7, #4]
 80025e8:	681b      	ldr	r3, [r3, #0]
 80025ea:	68f9      	ldr	r1, [r7, #12]
 80025ec:	4618      	mov	r0, r3
 80025ee:	f003 fc53 	bl	8005e98 <USB_EPClearStall>
 80025f2:	687b      	ldr	r3, [r7, #4]
 80025f4:	2200      	movs	r2, #0
 80025f6:	f883 2228 	strb.w	r2, [r3, #552]	; 0x228
 80025fa:	2300      	movs	r3, #0
 80025fc:	4618      	mov	r0, r3
 80025fe:	3710      	adds	r7, #16
 8002600:	46bd      	mov	sp, r7
 8002602:	bd80      	pop	{r7, pc}

08002604 <PCD_EP_ISR_Handler>:
 8002604:	b590      	push	{r4, r7, lr}
 8002606:	b089      	sub	sp, #36	; 0x24
 8002608:	af00      	add	r7, sp, #0
 800260a:	6078      	str	r0, [r7, #4]
 800260c:	e274      	b.n	8002af8 <PCD_EP_ISR_Handler+0x4f4>
 800260e:	687b      	ldr	r3, [r7, #4]
 8002610:	681b      	ldr	r3, [r3, #0]
 8002612:	f8b3 3044 	ldrh.w	r3, [r3, #68]	; 0x44
 8002616:	82fb      	strh	r3, [r7, #22]
 8002618:	8afb      	ldrh	r3, [r7, #22]
 800261a:	b2db      	uxtb	r3, r3
 800261c:	f003 030f 	and.w	r3, r3, #15
 8002620:	757b      	strb	r3, [r7, #21]
 8002622:	7d7b      	ldrb	r3, [r7, #21]
 8002624:	2b00      	cmp	r3, #0
 8002626:	f040 813c 	bne.w	80028a2 <PCD_EP_ISR_Handler+0x29e>
 800262a:	8afb      	ldrh	r3, [r7, #22]
 800262c:	f003 0310 	and.w	r3, r3, #16
 8002630:	2b00      	cmp	r3, #0
 8002632:	d14f      	bne.n	80026d4 <PCD_EP_ISR_Handler+0xd0>
 8002634:	687b      	ldr	r3, [r7, #4]
 8002636:	681b      	ldr	r3, [r3, #0]
 8002638:	881b      	ldrh	r3, [r3, #0]
 800263a:	b29b      	uxth	r3, r3
 800263c:	f423 43e1 	bic.w	r3, r3, #28800	; 0x7080
 8002640:	f023 0370 	bic.w	r3, r3, #112	; 0x70
 8002644:	b29c      	uxth	r4, r3
 8002646:	687b      	ldr	r3, [r7, #4]
 8002648:	681a      	ldr	r2, [r3, #0]
 800264a:	ea6f 4344 	mvn.w	r3, r4, lsl #17
 800264e:	ea6f 4353 	mvn.w	r3, r3, lsr #17
 8002652:	b29b      	uxth	r3, r3
 8002654:	8013      	strh	r3, [r2, #0]
 8002656:	687b      	ldr	r3, [r7, #4]
 8002658:	3328      	adds	r3, #40	; 0x28
 800265a:	60fb      	str	r3, [r7, #12]
 800265c:	687b      	ldr	r3, [r7, #4]
 800265e:	681b      	ldr	r3, [r3, #0]
 8002660:	f8b3 3050 	ldrh.w	r3, [r3, #80]	; 0x50
 8002664:	b29b      	uxth	r3, r3
 8002666:	461a      	mov	r2, r3
 8002668:	68fb      	ldr	r3, [r7, #12]
 800266a:	781b      	ldrb	r3, [r3, #0]
 800266c:	00db      	lsls	r3, r3, #3
 800266e:	4413      	add	r3, r2
 8002670:	687a      	ldr	r2, [r7, #4]
 8002672:	6812      	ldr	r2, [r2, #0]
 8002674:	4413      	add	r3, r2
 8002676:	f203 4302 	addw	r3, r3, #1026	; 0x402
 800267a:	881b      	ldrh	r3, [r3, #0]
 800267c:	f3c3 0209 	ubfx	r2, r3, #0, #10
 8002680:	68fb      	ldr	r3, [r7, #12]
 8002682:	61da      	str	r2, [r3, #28]
 8002684:	68fb      	ldr	r3, [r7, #12]
 8002686:	695a      	ldr	r2, [r3, #20]
 8002688:	68fb      	ldr	r3, [r7, #12]
 800268a:	69db      	ldr	r3, [r3, #28]
 800268c:	441a      	add	r2, r3
 800268e:	68fb      	ldr	r3, [r7, #12]
 8002690:	615a      	str	r2, [r3, #20]
 8002692:	2100      	movs	r1, #0
 8002694:	6878      	ldr	r0, [r7, #4]
 8002696:	f005 fb05 	bl	8007ca4 <HAL_PCD_DataInStageCallback>
 800269a:	687b      	ldr	r3, [r7, #4]
 800269c:	f893 3024 	ldrb.w	r3, [r3, #36]	; 0x24
 80026a0:	b2db      	uxtb	r3, r3
 80026a2:	2b00      	cmp	r3, #0
 80026a4:	f000 8228 	beq.w	8002af8 <PCD_EP_ISR_Handler+0x4f4>
 80026a8:	68fb      	ldr	r3, [r7, #12]
 80026aa:	699b      	ldr	r3, [r3, #24]
 80026ac:	2b00      	cmp	r3, #0
 80026ae:	f040 8223 	bne.w	8002af8 <PCD_EP_ISR_Handler+0x4f4>
 80026b2:	687b      	ldr	r3, [r7, #4]
 80026b4:	f893 3024 	ldrb.w	r3, [r3, #36]	; 0x24
 80026b8:	b2db      	uxtb	r3, r3
 80026ba:	f063 037f 	orn	r3, r3, #127	; 0x7f
 80026be:	b2da      	uxtb	r2, r3
 80026c0:	687b      	ldr	r3, [r7, #4]
 80026c2:	681b      	ldr	r3, [r3, #0]
 80026c4:	b292      	uxth	r2, r2
 80026c6:	f8a3 204c 	strh.w	r2, [r3, #76]	; 0x4c
 80026ca:	687b      	ldr	r3, [r7, #4]
 80026cc:	2200      	movs	r2, #0
 80026ce:	f883 2024 	strb.w	r2, [r3, #36]	; 0x24
 80026d2:	e211      	b.n	8002af8 <PCD_EP_ISR_Handler+0x4f4>
 80026d4:	687b      	ldr	r3, [r7, #4]
 80026d6:	f503 7394 	add.w	r3, r3, #296	; 0x128
 80026da:	60fb      	str	r3, [r7, #12]
 80026dc:	687b      	ldr	r3, [r7, #4]
 80026de:	681b      	ldr	r3, [r3, #0]
 80026e0:	881b      	ldrh	r3, [r3, #0]
 80026e2:	827b      	strh	r3, [r7, #18]
 80026e4:	8a7b      	ldrh	r3, [r7, #18]
 80026e6:	f403 6300 	and.w	r3, r3, #2048	; 0x800
 80026ea:	2b00      	cmp	r3, #0
 80026ec:	d031      	beq.n	8002752 <PCD_EP_ISR_Handler+0x14e>
 80026ee:	687b      	ldr	r3, [r7, #4]
 80026f0:	681b      	ldr	r3, [r3, #0]
 80026f2:	f8b3 3050 	ldrh.w	r3, [r3, #80]	; 0x50
 80026f6:	b29b      	uxth	r3, r3
 80026f8:	461a      	mov	r2, r3
 80026fa:	68fb      	ldr	r3, [r7, #12]
 80026fc:	781b      	ldrb	r3, [r3, #0]
 80026fe:	00db      	lsls	r3, r3, #3
 8002700:	4413      	add	r3, r2
 8002702:	687a      	ldr	r2, [r7, #4]
 8002704:	6812      	ldr	r2, [r2, #0]
 8002706:	4413      	add	r3, r2
 8002708:	f203 4306 	addw	r3, r3, #1030	; 0x406
 800270c:	881b      	ldrh	r3, [r3, #0]
 800270e:	f3c3 0209 	ubfx	r2, r3, #0, #10
 8002712:	68fb      	ldr	r3, [r7, #12]
 8002714:	61da      	str	r2, [r3, #28]
 8002716:	687b      	ldr	r3, [r7, #4]
 8002718:	6818      	ldr	r0, [r3, #0]
 800271a:	687b      	ldr	r3, [r7, #4]
 800271c:	f503 710c 	add.w	r1, r3, #560	; 0x230
 8002720:	68fb      	ldr	r3, [r7, #12]
 8002722:	88da      	ldrh	r2, [r3, #6]
 8002724:	68fb      	ldr	r3, [r7, #12]
 8002726:	69db      	ldr	r3, [r3, #28]
 8002728:	b29b      	uxth	r3, r3
 800272a:	f003 fcd1 	bl	80060d0 <USB_ReadPMA>
 800272e:	687b      	ldr	r3, [r7, #4]
 8002730:	681b      	ldr	r3, [r3, #0]
 8002732:	881b      	ldrh	r3, [r3, #0]
 8002734:	b29a      	uxth	r2, r3
 8002736:	f640 738f 	movw	r3, #3983	; 0xf8f
 800273a:	4013      	ands	r3, r2
 800273c:	b29c      	uxth	r4, r3
 800273e:	687b      	ldr	r3, [r7, #4]
 8002740:	681b      	ldr	r3, [r3, #0]
 8002742:	f044 0280 	orr.w	r2, r4, #128	; 0x80
 8002746:	b292      	uxth	r2, r2
 8002748:	801a      	strh	r2, [r3, #0]
 800274a:	6878      	ldr	r0, [r7, #4]
 800274c:	f005 fa80 	bl	8007c50 <HAL_PCD_SetupStageCallback>
 8002750:	e1d2      	b.n	8002af8 <PCD_EP_ISR_Handler+0x4f4>
 8002752:	f9b7 3012 	ldrsh.w	r3, [r7, #18]
 8002756:	2b00      	cmp	r3, #0
 8002758:	f280 81ce 	bge.w	8002af8 <PCD_EP_ISR_Handler+0x4f4>
 800275c:	687b      	ldr	r3, [r7, #4]
 800275e:	681b      	ldr	r3, [r3, #0]
 8002760:	881b      	ldrh	r3, [r3, #0]
 8002762:	b29a      	uxth	r2, r3
 8002764:	f640 738f 	movw	r3, #3983	; 0xf8f
 8002768:	4013      	ands	r3, r2
 800276a:	b29c      	uxth	r4, r3
 800276c:	687b      	ldr	r3, [r7, #4]
 800276e:	681b      	ldr	r3, [r3, #0]
 8002770:	f044 0280 	orr.w	r2, r4, #128	; 0x80
 8002774:	b292      	uxth	r2, r2
 8002776:	801a      	strh	r2, [r3, #0]
 8002778:	687b      	ldr	r3, [r7, #4]
 800277a:	681b      	ldr	r3, [r3, #0]
 800277c:	f8b3 3050 	ldrh.w	r3, [r3, #80]	; 0x50
 8002780:	b29b      	uxth	r3, r3
 8002782:	461a      	mov	r2, r3
 8002784:	68fb      	ldr	r3, [r7, #12]
 8002786:	781b      	ldrb	r3, [r3, #0]
 8002788:	00db      	lsls	r3, r3, #3
 800278a:	4413      	add	r3, r2
 800278c:	687a      	ldr	r2, [r7, #4]
 800278e:	6812      	ldr	r2, [r2, #0]
 8002790:	4413      	add	r3, r2
 8002792:	f203 4306 	addw	r3, r3, #1030	; 0x406
 8002796:	881b      	ldrh	r3, [r3, #0]
 8002798:	f3c3 0209 	ubfx	r2, r3, #0, #10
 800279c:	68fb      	ldr	r3, [r7, #12]
 800279e:	61da      	str	r2, [r3, #28]
 80027a0:	68fb      	ldr	r3, [r7, #12]
 80027a2:	69db      	ldr	r3, [r3, #28]
 80027a4:	2b00      	cmp	r3, #0
 80027a6:	d019      	beq.n	80027dc <PCD_EP_ISR_Handler+0x1d8>
 80027a8:	68fb      	ldr	r3, [r7, #12]
 80027aa:	695b      	ldr	r3, [r3, #20]
 80027ac:	2b00      	cmp	r3, #0
 80027ae:	d015      	beq.n	80027dc <PCD_EP_ISR_Handler+0x1d8>
 80027b0:	687b      	ldr	r3, [r7, #4]
 80027b2:	6818      	ldr	r0, [r3, #0]
 80027b4:	68fb      	ldr	r3, [r7, #12]
 80027b6:	6959      	ldr	r1, [r3, #20]
 80027b8:	68fb      	ldr	r3, [r7, #12]
 80027ba:	88da      	ldrh	r2, [r3, #6]
 80027bc:	68fb      	ldr	r3, [r7, #12]
 80027be:	69db      	ldr	r3, [r3, #28]
 80027c0:	b29b      	uxth	r3, r3
 80027c2:	f003 fc85 	bl	80060d0 <USB_ReadPMA>
 80027c6:	68fb      	ldr	r3, [r7, #12]
 80027c8:	695a      	ldr	r2, [r3, #20]
 80027ca:	68fb      	ldr	r3, [r7, #12]
 80027cc:	69db      	ldr	r3, [r3, #28]
 80027ce:	441a      	add	r2, r3
 80027d0:	68fb      	ldr	r3, [r7, #12]
 80027d2:	615a      	str	r2, [r3, #20]
 80027d4:	2100      	movs	r1, #0
 80027d6:	6878      	ldr	r0, [r7, #4]
 80027d8:	f005 fa4c 	bl	8007c74 <HAL_PCD_DataOutStageCallback>
 80027dc:	687b      	ldr	r3, [r7, #4]
 80027de:	681b      	ldr	r3, [r3, #0]
 80027e0:	461c      	mov	r4, r3
 80027e2:	687b      	ldr	r3, [r7, #4]
 80027e4:	681b      	ldr	r3, [r3, #0]
 80027e6:	f8b3 3050 	ldrh.w	r3, [r3, #80]	; 0x50
 80027ea:	b29b      	uxth	r3, r3
 80027ec:	441c      	add	r4, r3
 80027ee:	f204 4306 	addw	r3, r4, #1030	; 0x406
 80027f2:	461c      	mov	r4, r3
 80027f4:	68fb      	ldr	r3, [r7, #12]
 80027f6:	691b      	ldr	r3, [r3, #16]
 80027f8:	2b00      	cmp	r3, #0
 80027fa:	d10e      	bne.n	800281a <PCD_EP_ISR_Handler+0x216>
 80027fc:	8823      	ldrh	r3, [r4, #0]
 80027fe:	b29b      	uxth	r3, r3
 8002800:	f423 43f8 	bic.w	r3, r3, #31744	; 0x7c00
 8002804:	b29b      	uxth	r3, r3
 8002806:	8023      	strh	r3, [r4, #0]
 8002808:	8823      	ldrh	r3, [r4, #0]
 800280a:	b29b      	uxth	r3, r3
 800280c:	ea6f 4343 	mvn.w	r3, r3, lsl #17
 8002810:	ea6f 4353 	mvn.w	r3, r3, lsr #17
 8002814:	b29b      	uxth	r3, r3
 8002816:	8023      	strh	r3, [r4, #0]
 8002818:	e02d      	b.n	8002876 <PCD_EP_ISR_Handler+0x272>
 800281a:	68fb      	ldr	r3, [r7, #12]
 800281c:	691b      	ldr	r3, [r3, #16]
 800281e:	2b3e      	cmp	r3, #62	; 0x3e
 8002820:	d812      	bhi.n	8002848 <PCD_EP_ISR_Handler+0x244>
 8002822:	68fb      	ldr	r3, [r7, #12]
 8002824:	691b      	ldr	r3, [r3, #16]
 8002826:	085b      	lsrs	r3, r3, #1
 8002828:	61bb      	str	r3, [r7, #24]
 800282a:	68fb      	ldr	r3, [r7, #12]
 800282c:	691b      	ldr	r3, [r3, #16]
 800282e:	f003 0301 	and.w	r3, r3, #1
 8002832:	2b00      	cmp	r3, #0
 8002834:	d002      	beq.n	800283c <PCD_EP_ISR_Handler+0x238>
 8002836:	69bb      	ldr	r3, [r7, #24]
 8002838:	3301      	adds	r3, #1
 800283a:	61bb      	str	r3, [r7, #24]
 800283c:	69bb      	ldr	r3, [r7, #24]
 800283e:	b29b      	uxth	r3, r3
 8002840:	029b      	lsls	r3, r3, #10
 8002842:	b29b      	uxth	r3, r3
 8002844:	8023      	strh	r3, [r4, #0]
 8002846:	e016      	b.n	8002876 <PCD_EP_ISR_Handler+0x272>
 8002848:	68fb      	ldr	r3, [r7, #12]
 800284a:	691b      	ldr	r3, [r3, #16]
 800284c:	095b      	lsrs	r3, r3, #5
 800284e:	61bb      	str	r3, [r7, #24]
 8002850:	68fb      	ldr	r3, [r7, #12]
 8002852:	691b      	ldr	r3, [r3, #16]
 8002854:	f003 031f 	and.w	r3, r3, #31
 8002858:	2b00      	cmp	r3, #0
 800285a:	d102      	bne.n	8002862 <PCD_EP_ISR_Handler+0x25e>
 800285c:	69bb      	ldr	r3, [r7, #24]
 800285e:	3b01      	subs	r3, #1
 8002860:	61bb      	str	r3, [r7, #24]
 8002862:	69bb      	ldr	r3, [r7, #24]
 8002864:	b29b      	uxth	r3, r3
 8002866:	029b      	lsls	r3, r3, #10
 8002868:	b29b      	uxth	r3, r3
 800286a:	ea6f 4343 	mvn.w	r3, r3, lsl #17
 800286e:	ea6f 4353 	mvn.w	r3, r3, lsr #17
 8002872:	b29b      	uxth	r3, r3
 8002874:	8023      	strh	r3, [r4, #0]
 8002876:	687b      	ldr	r3, [r7, #4]
 8002878:	681b      	ldr	r3, [r3, #0]
 800287a:	881b      	ldrh	r3, [r3, #0]
 800287c:	b29b      	uxth	r3, r3
 800287e:	f423 4380 	bic.w	r3, r3, #16384	; 0x4000
 8002882:	f023 0370 	bic.w	r3, r3, #112	; 0x70
 8002886:	b29c      	uxth	r4, r3
 8002888:	f484 5380 	eor.w	r3, r4, #4096	; 0x1000
 800288c:	b29c      	uxth	r4, r3
 800288e:	f484 5300 	eor.w	r3, r4, #8192	; 0x2000
 8002892:	b29c      	uxth	r4, r3
 8002894:	687b      	ldr	r3, [r7, #4]
 8002896:	681a      	ldr	r2, [r3, #0]
 8002898:	4b9e      	ldr	r3, [pc, #632]	; (8002b14 <PCD_EP_ISR_Handler+0x510>)
 800289a:	4323      	orrs	r3, r4
 800289c:	b29b      	uxth	r3, r3
 800289e:	8013      	strh	r3, [r2, #0]
 80028a0:	e12a      	b.n	8002af8 <PCD_EP_ISR_Handler+0x4f4>
 80028a2:	687b      	ldr	r3, [r7, #4]
 80028a4:	681b      	ldr	r3, [r3, #0]
 80028a6:	461a      	mov	r2, r3
 80028a8:	7d7b      	ldrb	r3, [r7, #21]
 80028aa:	009b      	lsls	r3, r3, #2
 80028ac:	4413      	add	r3, r2
 80028ae:	881b      	ldrh	r3, [r3, #0]
 80028b0:	827b      	strh	r3, [r7, #18]
 80028b2:	f9b7 3012 	ldrsh.w	r3, [r7, #18]
 80028b6:	2b00      	cmp	r3, #0
 80028b8:	f280 80cb 	bge.w	8002a52 <PCD_EP_ISR_Handler+0x44e>
 80028bc:	687b      	ldr	r3, [r7, #4]
 80028be:	681b      	ldr	r3, [r3, #0]
 80028c0:	461a      	mov	r2, r3
 80028c2:	7d7b      	ldrb	r3, [r7, #21]
 80028c4:	009b      	lsls	r3, r3, #2
 80028c6:	4413      	add	r3, r2
 80028c8:	881b      	ldrh	r3, [r3, #0]
 80028ca:	b29a      	uxth	r2, r3
 80028cc:	f640 738f 	movw	r3, #3983	; 0xf8f
 80028d0:	4013      	ands	r3, r2
 80028d2:	b29c      	uxth	r4, r3
 80028d4:	687b      	ldr	r3, [r7, #4]
 80028d6:	681b      	ldr	r3, [r3, #0]
 80028d8:	461a      	mov	r2, r3
 80028da:	7d7b      	ldrb	r3, [r7, #21]
 80028dc:	009b      	lsls	r3, r3, #2
 80028de:	4413      	add	r3, r2
 80028e0:	f044 0280 	orr.w	r2, r4, #128	; 0x80
 80028e4:	b292      	uxth	r2, r2
 80028e6:	801a      	strh	r2, [r3, #0]
 80028e8:	7d7b      	ldrb	r3, [r7, #21]
 80028ea:	015b      	lsls	r3, r3, #5
 80028ec:	f503 7394 	add.w	r3, r3, #296	; 0x128
 80028f0:	687a      	ldr	r2, [r7, #4]
 80028f2:	4413      	add	r3, r2
 80028f4:	60fb      	str	r3, [r7, #12]
 80028f6:	68fb      	ldr	r3, [r7, #12]
 80028f8:	7b1b      	ldrb	r3, [r3, #12]
 80028fa:	2b00      	cmp	r3, #0
 80028fc:	d11f      	bne.n	800293e <PCD_EP_ISR_Handler+0x33a>
 80028fe:	687b      	ldr	r3, [r7, #4]
 8002900:	681b      	ldr	r3, [r3, #0]
 8002902:	f8b3 3050 	ldrh.w	r3, [r3, #80]	; 0x50
 8002906:	b29b      	uxth	r3, r3
 8002908:	461a      	mov	r2, r3
 800290a:	68fb      	ldr	r3, [r7, #12]
 800290c:	781b      	ldrb	r3, [r3, #0]
 800290e:	00db      	lsls	r3, r3, #3
 8002910:	4413      	add	r3, r2
 8002912:	687a      	ldr	r2, [r7, #4]
 8002914:	6812      	ldr	r2, [r2, #0]
 8002916:	4413      	add	r3, r2
 8002918:	f203 4306 	addw	r3, r3, #1030	; 0x406
 800291c:	881b      	ldrh	r3, [r3, #0]
 800291e:	f3c3 0309 	ubfx	r3, r3, #0, #10
 8002922:	83fb      	strh	r3, [r7, #30]
 8002924:	8bfb      	ldrh	r3, [r7, #30]
 8002926:	2b00      	cmp	r3, #0
 8002928:	d06e      	beq.n	8002a08 <PCD_EP_ISR_Handler+0x404>
 800292a:	687b      	ldr	r3, [r7, #4]
 800292c:	6818      	ldr	r0, [r3, #0]
 800292e:	68fb      	ldr	r3, [r7, #12]
 8002930:	6959      	ldr	r1, [r3, #20]
 8002932:	68fb      	ldr	r3, [r7, #12]
 8002934:	88da      	ldrh	r2, [r3, #6]
 8002936:	8bfb      	ldrh	r3, [r7, #30]
 8002938:	f003 fbca 	bl	80060d0 <USB_ReadPMA>
 800293c:	e064      	b.n	8002a08 <PCD_EP_ISR_Handler+0x404>
 800293e:	687b      	ldr	r3, [r7, #4]
 8002940:	681b      	ldr	r3, [r3, #0]
 8002942:	461a      	mov	r2, r3
 8002944:	68fb      	ldr	r3, [r7, #12]
 8002946:	781b      	ldrb	r3, [r3, #0]
 8002948:	009b      	lsls	r3, r3, #2
 800294a:	4413      	add	r3, r2
 800294c:	881b      	ldrh	r3, [r3, #0]
 800294e:	b29b      	uxth	r3, r3
 8002950:	f423 43e0 	bic.w	r3, r3, #28672	; 0x7000
 8002954:	f023 0370 	bic.w	r3, r3, #112	; 0x70
 8002958:	b29c      	uxth	r4, r3
 800295a:	687b      	ldr	r3, [r7, #4]
 800295c:	681b      	ldr	r3, [r3, #0]
 800295e:	461a      	mov	r2, r3
 8002960:	68fb      	ldr	r3, [r7, #12]
 8002962:	781b      	ldrb	r3, [r3, #0]
 8002964:	009b      	lsls	r3, r3, #2
 8002966:	441a      	add	r2, r3
 8002968:	4b6b      	ldr	r3, [pc, #428]	; (8002b18 <PCD_EP_ISR_Handler+0x514>)
 800296a:	4323      	orrs	r3, r4
 800296c:	b29b      	uxth	r3, r3
 800296e:	8013      	strh	r3, [r2, #0]
 8002970:	687b      	ldr	r3, [r7, #4]
 8002972:	681b      	ldr	r3, [r3, #0]
 8002974:	461a      	mov	r2, r3
 8002976:	68fb      	ldr	r3, [r7, #12]
 8002978:	781b      	ldrb	r3, [r3, #0]
 800297a:	009b      	lsls	r3, r3, #2
 800297c:	4413      	add	r3, r2
 800297e:	881b      	ldrh	r3, [r3, #0]
 8002980:	b29b      	uxth	r3, r3
 8002982:	f403 4380 	and.w	r3, r3, #16384	; 0x4000
 8002986:	2b00      	cmp	r3, #0
 8002988:	d01f      	beq.n	80029ca <PCD_EP_ISR_Handler+0x3c6>
 800298a:	687b      	ldr	r3, [r7, #4]
 800298c:	681b      	ldr	r3, [r3, #0]
 800298e:	f8b3 3050 	ldrh.w	r3, [r3, #80]	; 0x50
 8002992:	b29b      	uxth	r3, r3
 8002994:	461a      	mov	r2, r3
 8002996:	68fb      	ldr	r3, [r7, #12]
 8002998:	781b      	ldrb	r3, [r3, #0]
 800299a:	00db      	lsls	r3, r3, #3
 800299c:	4413      	add	r3, r2
 800299e:	687a      	ldr	r2, [r7, #4]
 80029a0:	6812      	ldr	r2, [r2, #0]
 80029a2:	4413      	add	r3, r2
 80029a4:	f203 4302 	addw	r3, r3, #1026	; 0x402
 80029a8:	881b      	ldrh	r3, [r3, #0]
 80029aa:	f3c3 0309 	ubfx	r3, r3, #0, #10
 80029ae:	83fb      	strh	r3, [r7, #30]
 80029b0:	8bfb      	ldrh	r3, [r7, #30]
 80029b2:	2b00      	cmp	r3, #0
 80029b4:	d028      	beq.n	8002a08 <PCD_EP_ISR_Handler+0x404>
 80029b6:	687b      	ldr	r3, [r7, #4]
 80029b8:	6818      	ldr	r0, [r3, #0]
 80029ba:	68fb      	ldr	r3, [r7, #12]
 80029bc:	6959      	ldr	r1, [r3, #20]
 80029be:	68fb      	ldr	r3, [r7, #12]
 80029c0:	891a      	ldrh	r2, [r3, #8]
 80029c2:	8bfb      	ldrh	r3, [r7, #30]
 80029c4:	f003 fb84 	bl	80060d0 <USB_ReadPMA>
 80029c8:	e01e      	b.n	8002a08 <PCD_EP_ISR_Handler+0x404>
 80029ca:	687b      	ldr	r3, [r7, #4]
 80029cc:	681b      	ldr	r3, [r3, #0]
 80029ce:	f8b3 3050 	ldrh.w	r3, [r3, #80]	; 0x50
 80029d2:	b29b      	uxth	r3, r3
 80029d4:	461a      	mov	r2, r3
 80029d6:	68fb      	ldr	r3, [r7, #12]
 80029d8:	781b      	ldrb	r3, [r3, #0]
 80029da:	00db      	lsls	r3, r3, #3
 80029dc:	4413      	add	r3, r2
 80029de:	687a      	ldr	r2, [r7, #4]
 80029e0:	6812      	ldr	r2, [r2, #0]
 80029e2:	4413      	add	r3, r2
 80029e4:	f203 4306 	addw	r3, r3, #1030	; 0x406
 80029e8:	881b      	ldrh	r3, [r3, #0]
 80029ea:	f3c3 0309 	ubfx	r3, r3, #0, #10
 80029ee:	83fb      	strh	r3, [r7, #30]
 80029f0:	8bfb      	ldrh	r3, [r7, #30]
 80029f2:	2b00      	cmp	r3, #0
 80029f4:	d008      	beq.n	8002a08 <PCD_EP_ISR_Handler+0x404>
 80029f6:	687b      	ldr	r3, [r7, #4]
 80029f8:	6818      	ldr	r0, [r3, #0]
 80029fa:	68fb      	ldr	r3, [r7, #12]
 80029fc:	6959      	ldr	r1, [r3, #20]
 80029fe:	68fb      	ldr	r3, [r7, #12]
 8002a00:	895a      	ldrh	r2, [r3, #10]
 8002a02:	8bfb      	ldrh	r3, [r7, #30]
 8002a04:	f003 fb64 	bl	80060d0 <USB_ReadPMA>
 8002a08:	68fb      	ldr	r3, [r7, #12]
 8002a0a:	69da      	ldr	r2, [r3, #28]
 8002a0c:	8bfb      	ldrh	r3, [r7, #30]
 8002a0e:	441a      	add	r2, r3
 8002a10:	68fb      	ldr	r3, [r7, #12]
 8002a12:	61da      	str	r2, [r3, #28]
 8002a14:	68fb      	ldr	r3, [r7, #12]
 8002a16:	695a      	ldr	r2, [r3, #20]
 8002a18:	8bfb      	ldrh	r3, [r7, #30]
 8002a1a:	441a      	add	r2, r3
 8002a1c:	68fb      	ldr	r3, [r7, #12]
 8002a1e:	615a      	str	r2, [r3, #20]
 8002a20:	68fb      	ldr	r3, [r7, #12]
 8002a22:	699b      	ldr	r3, [r3, #24]
 8002a24:	2b00      	cmp	r3, #0
 8002a26:	d004      	beq.n	8002a32 <PCD_EP_ISR_Handler+0x42e>
 8002a28:	8bfa      	ldrh	r2, [r7, #30]
 8002a2a:	68fb      	ldr	r3, [r7, #12]
 8002a2c:	691b      	ldr	r3, [r3, #16]
 8002a2e:	429a      	cmp	r2, r3
 8002a30:	d206      	bcs.n	8002a40 <PCD_EP_ISR_Handler+0x43c>
 8002a32:	68fb      	ldr	r3, [r7, #12]
 8002a34:	781b      	ldrb	r3, [r3, #0]
 8002a36:	4619      	mov	r1, r3
 8002a38:	6878      	ldr	r0, [r7, #4]
 8002a3a:	f005 f91b 	bl	8007c74 <HAL_PCD_DataOutStageCallback>
 8002a3e:	e008      	b.n	8002a52 <PCD_EP_ISR_Handler+0x44e>
 8002a40:	68fb      	ldr	r3, [r7, #12]
 8002a42:	7819      	ldrb	r1, [r3, #0]
 8002a44:	68fb      	ldr	r3, [r7, #12]
 8002a46:	695a      	ldr	r2, [r3, #20]
 8002a48:	68fb      	ldr	r3, [r7, #12]
 8002a4a:	699b      	ldr	r3, [r3, #24]
 8002a4c:	6878      	ldr	r0, [r7, #4]
 8002a4e:	f7ff fca9 	bl	80023a4 <HAL_PCD_EP_Receive>
 8002a52:	8a7b      	ldrh	r3, [r7, #18]
 8002a54:	f003 0380 	and.w	r3, r3, #128	; 0x80
 8002a58:	2b00      	cmp	r3, #0
 8002a5a:	d04d      	beq.n	8002af8 <PCD_EP_ISR_Handler+0x4f4>
 8002a5c:	7d7b      	ldrb	r3, [r7, #21]
 8002a5e:	015b      	lsls	r3, r3, #5
 8002a60:	3328      	adds	r3, #40	; 0x28
 8002a62:	687a      	ldr	r2, [r7, #4]
 8002a64:	4413      	add	r3, r2
 8002a66:	60fb      	str	r3, [r7, #12]
 8002a68:	687b      	ldr	r3, [r7, #4]
 8002a6a:	681b      	ldr	r3, [r3, #0]
 8002a6c:	461a      	mov	r2, r3
 8002a6e:	7d7b      	ldrb	r3, [r7, #21]
 8002a70:	009b      	lsls	r3, r3, #2
 8002a72:	4413      	add	r3, r2
 8002a74:	881b      	ldrh	r3, [r3, #0]
 8002a76:	b29b      	uxth	r3, r3
 8002a78:	f423 43e1 	bic.w	r3, r3, #28800	; 0x7080
 8002a7c:	f023 0370 	bic.w	r3, r3, #112	; 0x70
 8002a80:	b29c      	uxth	r4, r3
 8002a82:	687b      	ldr	r3, [r7, #4]
 8002a84:	681b      	ldr	r3, [r3, #0]
 8002a86:	461a      	mov	r2, r3
 8002a88:	7d7b      	ldrb	r3, [r7, #21]
 8002a8a:	009b      	lsls	r3, r3, #2
 8002a8c:	441a      	add	r2, r3
 8002a8e:	ea6f 4344 	mvn.w	r3, r4, lsl #17
 8002a92:	ea6f 4353 	mvn.w	r3, r3, lsr #17
 8002a96:	b29b      	uxth	r3, r3
 8002a98:	8013      	strh	r3, [r2, #0]
 8002a9a:	687b      	ldr	r3, [r7, #4]
 8002a9c:	681b      	ldr	r3, [r3, #0]
 8002a9e:	f8b3 3050 	ldrh.w	r3, [r3, #80]	; 0x50
 8002aa2:	b29b      	uxth	r3, r3
 8002aa4:	461a      	mov	r2, r3
 8002aa6:	68fb      	ldr	r3, [r7, #12]
 8002aa8:	781b      	ldrb	r3, [r3, #0]
 8002aaa:	00db      	lsls	r3, r3, #3
 8002aac:	4413      	add	r3, r2
 8002aae:	687a      	ldr	r2, [r7, #4]
 8002ab0:	6812      	ldr	r2, [r2, #0]
 8002ab2:	4413      	add	r3, r2
 8002ab4:	f203 4302 	addw	r3, r3, #1026	; 0x402
 8002ab8:	881b      	ldrh	r3, [r3, #0]
 8002aba:	f3c3 0209 	ubfx	r2, r3, #0, #10
 8002abe:	68fb      	ldr	r3, [r7, #12]
 8002ac0:	61da      	str	r2, [r3, #28]
 8002ac2:	68fb      	ldr	r3, [r7, #12]
 8002ac4:	695a      	ldr	r2, [r3, #20]
 8002ac6:	68fb      	ldr	r3, [r7, #12]
 8002ac8:	69db      	ldr	r3, [r3, #28]
 8002aca:	441a      	add	r2, r3
 8002acc:	68fb      	ldr	r3, [r7, #12]
 8002ace:	615a      	str	r2, [r3, #20]
 8002ad0:	68fb      	ldr	r3, [r7, #12]
 8002ad2:	699b      	ldr	r3, [r3, #24]
 8002ad4:	2b00      	cmp	r3, #0
 8002ad6:	d106      	bne.n	8002ae6 <PCD_EP_ISR_Handler+0x4e2>
 8002ad8:	68fb      	ldr	r3, [r7, #12]
 8002ada:	781b      	ldrb	r3, [r3, #0]
 8002adc:	4619      	mov	r1, r3
 8002ade:	6878      	ldr	r0, [r7, #4]
 8002ae0:	f005 f8e0 	bl	8007ca4 <HAL_PCD_DataInStageCallback>
 8002ae4:	e008      	b.n	8002af8 <PCD_EP_ISR_Handler+0x4f4>
 8002ae6:	68fb      	ldr	r3, [r7, #12]
 8002ae8:	7819      	ldrb	r1, [r3, #0]
 8002aea:	68fb      	ldr	r3, [r7, #12]
 8002aec:	695a      	ldr	r2, [r3, #20]
 8002aee:	68fb      	ldr	r3, [r7, #12]
 8002af0:	699b      	ldr	r3, [r3, #24]
 8002af2:	6878      	ldr	r0, [r7, #4]
 8002af4:	f7ff fca5 	bl	8002442 <HAL_PCD_EP_Transmit>
 8002af8:	687b      	ldr	r3, [r7, #4]
 8002afa:	681b      	ldr	r3, [r3, #0]
 8002afc:	f8b3 3044 	ldrh.w	r3, [r3, #68]	; 0x44
 8002b00:	b29b      	uxth	r3, r3
 8002b02:	b21b      	sxth	r3, r3
 8002b04:	2b00      	cmp	r3, #0
 8002b06:	f6ff ad82 	blt.w	800260e <PCD_EP_ISR_Handler+0xa>
 8002b0a:	2300      	movs	r3, #0
 8002b0c:	4618      	mov	r0, r3
 8002b0e:	3724      	adds	r7, #36	; 0x24
 8002b10:	46bd      	mov	sp, r7
 8002b12:	bd90      	pop	{r4, r7, pc}
 8002b14:	ffff8080 	.word	0xffff8080
 8002b18:	ffff80c0 	.word	0xffff80c0

08002b1c <HAL_PCDEx_PMAConfig>:
 8002b1c:	b480      	push	{r7}
 8002b1e:	b087      	sub	sp, #28
 8002b20:	af00      	add	r7, sp, #0
 8002b22:	60f8      	str	r0, [r7, #12]
 8002b24:	607b      	str	r3, [r7, #4]
 8002b26:	460b      	mov	r3, r1
 8002b28:	817b      	strh	r3, [r7, #10]
 8002b2a:	4613      	mov	r3, r2
 8002b2c:	813b      	strh	r3, [r7, #8]
 8002b2e:	897b      	ldrh	r3, [r7, #10]
 8002b30:	f003 0380 	and.w	r3, r3, #128	; 0x80
 8002b34:	b29b      	uxth	r3, r3
 8002b36:	2b00      	cmp	r3, #0
 8002b38:	d008      	beq.n	8002b4c <HAL_PCDEx_PMAConfig+0x30>
 8002b3a:	897b      	ldrh	r3, [r7, #10]
 8002b3c:	f003 0307 	and.w	r3, r3, #7
 8002b40:	015b      	lsls	r3, r3, #5
 8002b42:	3328      	adds	r3, #40	; 0x28
 8002b44:	68fa      	ldr	r2, [r7, #12]
 8002b46:	4413      	add	r3, r2
 8002b48:	617b      	str	r3, [r7, #20]
 8002b4a:	e006      	b.n	8002b5a <HAL_PCDEx_PMAConfig+0x3e>
 8002b4c:	897b      	ldrh	r3, [r7, #10]
 8002b4e:	015b      	lsls	r3, r3, #5
 8002b50:	f503 7394 	add.w	r3, r3, #296	; 0x128
 8002b54:	68fa      	ldr	r2, [r7, #12]
 8002b56:	4413      	add	r3, r2
 8002b58:	617b      	str	r3, [r7, #20]
 8002b5a:	893b      	ldrh	r3, [r7, #8]
 8002b5c:	2b00      	cmp	r3, #0
 8002b5e:	d107      	bne.n	8002b70 <HAL_PCDEx_PMAConfig+0x54>
 8002b60:	697b      	ldr	r3, [r7, #20]
 8002b62:	2200      	movs	r2, #0
 8002b64:	731a      	strb	r2, [r3, #12]
 8002b66:	687b      	ldr	r3, [r7, #4]
 8002b68:	b29a      	uxth	r2, r3
 8002b6a:	697b      	ldr	r3, [r7, #20]
 8002b6c:	80da      	strh	r2, [r3, #6]
 8002b6e:	e00b      	b.n	8002b88 <HAL_PCDEx_PMAConfig+0x6c>
 8002b70:	697b      	ldr	r3, [r7, #20]
 8002b72:	2201      	movs	r2, #1
 8002b74:	731a      	strb	r2, [r3, #12]
 8002b76:	687b      	ldr	r3, [r7, #4]
 8002b78:	b29a      	uxth	r2, r3
 8002b7a:	697b      	ldr	r3, [r7, #20]
 8002b7c:	811a      	strh	r2, [r3, #8]
 8002b7e:	687b      	ldr	r3, [r7, #4]
 8002b80:	0c1b      	lsrs	r3, r3, #16
 8002b82:	b29a      	uxth	r2, r3
 8002b84:	697b      	ldr	r3, [r7, #20]
 8002b86:	815a      	strh	r2, [r3, #10]
 8002b88:	2300      	movs	r3, #0
 8002b8a:	4618      	mov	r0, r3
 8002b8c:	371c      	adds	r7, #28
 8002b8e:	46bd      	mov	sp, r7
 8002b90:	f85d 7b04 	ldr.w	r7, [sp], #4
 8002b94:	4770      	bx	lr

08002b96 <HAL_PCDEx_ActivateLPM>:
 8002b96:	b480      	push	{r7}
 8002b98:	b085      	sub	sp, #20
 8002b9a:	af00      	add	r7, sp, #0
 8002b9c:	6078      	str	r0, [r7, #4]
 8002b9e:	687b      	ldr	r3, [r7, #4]
 8002ba0:	681b      	ldr	r3, [r3, #0]
 8002ba2:	60fb      	str	r3, [r7, #12]
 8002ba4:	687b      	ldr	r3, [r7, #4]
 8002ba6:	2201      	movs	r2, #1
 8002ba8:	f8c3 2268 	str.w	r2, [r3, #616]	; 0x268
 8002bac:	687b      	ldr	r3, [r7, #4]
 8002bae:	2200      	movs	r2, #0
 8002bb0:	f883 2260 	strb.w	r2, [r3, #608]	; 0x260
 8002bb4:	68fb      	ldr	r3, [r7, #12]
 8002bb6:	f8b3 3054 	ldrh.w	r3, [r3, #84]	; 0x54
 8002bba:	b29b      	uxth	r3, r3
 8002bbc:	f043 0301 	orr.w	r3, r3, #1
 8002bc0:	b29a      	uxth	r2, r3
 8002bc2:	68fb      	ldr	r3, [r7, #12]
 8002bc4:	f8a3 2054 	strh.w	r2, [r3, #84]	; 0x54
 8002bc8:	68fb      	ldr	r3, [r7, #12]
 8002bca:	f8b3 3054 	ldrh.w	r3, [r3, #84]	; 0x54
 8002bce:	b29b      	uxth	r3, r3
 8002bd0:	f043 0302 	orr.w	r3, r3, #2
 8002bd4:	b29a      	uxth	r2, r3
 8002bd6:	68fb      	ldr	r3, [r7, #12]
 8002bd8:	f8a3 2054 	strh.w	r2, [r3, #84]	; 0x54
 8002bdc:	2300      	movs	r3, #0
 8002bde:	4618      	mov	r0, r3
 8002be0:	3714      	adds	r7, #20
 8002be2:	46bd      	mov	sp, r7
 8002be4:	f85d 7b04 	ldr.w	r7, [sp], #4
 8002be8:	4770      	bx	lr
	...

08002bec <HAL_PWREx_ControlVoltageScaling>:
 8002bec:	b480      	push	{r7}
 8002bee:	b085      	sub	sp, #20
 8002bf0:	af00      	add	r7, sp, #0
 8002bf2:	6078      	str	r0, [r7, #4]
 8002bf4:	687b      	ldr	r3, [r7, #4]
 8002bf6:	2b00      	cmp	r3, #0
 8002bf8:	d141      	bne.n	8002c7e <HAL_PWREx_ControlVoltageScaling+0x92>
 8002bfa:	4b4b      	ldr	r3, [pc, #300]	; (8002d28 <HAL_PWREx_ControlVoltageScaling+0x13c>)
 8002bfc:	681b      	ldr	r3, [r3, #0]
 8002bfe:	f403 63c0 	and.w	r3, r3, #1536	; 0x600
 8002c02:	f5b3 6f80 	cmp.w	r3, #1024	; 0x400
 8002c06:	d131      	bne.n	8002c6c <HAL_PWREx_ControlVoltageScaling+0x80>
 8002c08:	4b47      	ldr	r3, [pc, #284]	; (8002d28 <HAL_PWREx_ControlVoltageScaling+0x13c>)
 8002c0a:	f8d3 3080 	ldr.w	r3, [r3, #128]	; 0x80
 8002c0e:	4a46      	ldr	r2, [pc, #280]	; (8002d28 <HAL_PWREx_ControlVoltageScaling+0x13c>)
 8002c10:	f423 7380 	bic.w	r3, r3, #256	; 0x100
 8002c14:	f8c2 3080 	str.w	r3, [r2, #128]	; 0x80
 8002c18:	4b43      	ldr	r3, [pc, #268]	; (8002d28 <HAL_PWREx_ControlVoltageScaling+0x13c>)
 8002c1a:	681b      	ldr	r3, [r3, #0]
 8002c1c:	f423 63c0 	bic.w	r3, r3, #1536	; 0x600
 8002c20:	4a41      	ldr	r2, [pc, #260]	; (8002d28 <HAL_PWREx_ControlVoltageScaling+0x13c>)
 8002c22:	f443 7300 	orr.w	r3, r3, #512	; 0x200
 8002c26:	6013      	str	r3, [r2, #0]
 8002c28:	4b40      	ldr	r3, [pc, #256]	; (8002d2c <HAL_PWREx_ControlVoltageScaling+0x140>)
 8002c2a:	681b      	ldr	r3, [r3, #0]
 8002c2c:	2232      	movs	r2, #50	; 0x32
 8002c2e:	fb02 f303 	mul.w	r3, r2, r3
 8002c32:	4a3f      	ldr	r2, [pc, #252]	; (8002d30 <HAL_PWREx_ControlVoltageScaling+0x144>)
 8002c34:	fba2 2303 	umull	r2, r3, r2, r3
 8002c38:	0c9b      	lsrs	r3, r3, #18
 8002c3a:	3301      	adds	r3, #1
 8002c3c:	60fb      	str	r3, [r7, #12]
 8002c3e:	e002      	b.n	8002c46 <HAL_PWREx_ControlVoltageScaling+0x5a>
 8002c40:	68fb      	ldr	r3, [r7, #12]
 8002c42:	3b01      	subs	r3, #1
 8002c44:	60fb      	str	r3, [r7, #12]
 8002c46:	4b38      	ldr	r3, [pc, #224]	; (8002d28 <HAL_PWREx_ControlVoltageScaling+0x13c>)
 8002c48:	695b      	ldr	r3, [r3, #20]
 8002c4a:	f403 6380 	and.w	r3, r3, #1024	; 0x400
 8002c4e:	f5b3 6f80 	cmp.w	r3, #1024	; 0x400
 8002c52:	d102      	bne.n	8002c5a <HAL_PWREx_ControlVoltageScaling+0x6e>
 8002c54:	68fb      	ldr	r3, [r7, #12]
 8002c56:	2b00      	cmp	r3, #0
 8002c58:	d1f2      	bne.n	8002c40 <HAL_PWREx_ControlVoltageScaling+0x54>
 8002c5a:	4b33      	ldr	r3, [pc, #204]	; (8002d28 <HAL_PWREx_ControlVoltageScaling+0x13c>)
 8002c5c:	695b      	ldr	r3, [r3, #20]
 8002c5e:	f403 6380 	and.w	r3, r3, #1024	; 0x400
 8002c62:	f5b3 6f80 	cmp.w	r3, #1024	; 0x400
 8002c66:	d158      	bne.n	8002d1a <HAL_PWREx_ControlVoltageScaling+0x12e>
 8002c68:	2303      	movs	r3, #3
 8002c6a:	e057      	b.n	8002d1c <HAL_PWREx_ControlVoltageScaling+0x130>
 8002c6c:	4b2e      	ldr	r3, [pc, #184]	; (8002d28 <HAL_PWREx_ControlVoltageScaling+0x13c>)
 8002c6e:	f8d3 3080 	ldr.w	r3, [r3, #128]	; 0x80
 8002c72:	4a2d      	ldr	r2, [pc, #180]	; (8002d28 <HAL_PWREx_ControlVoltageScaling+0x13c>)
 8002c74:	f423 7380 	bic.w	r3, r3, #256	; 0x100
 8002c78:	f8c2 3080 	str.w	r3, [r2, #128]	; 0x80
 8002c7c:	e04d      	b.n	8002d1a <HAL_PWREx_ControlVoltageScaling+0x12e>
 8002c7e:	687b      	ldr	r3, [r7, #4]
 8002c80:	f5b3 7f00 	cmp.w	r3, #512	; 0x200
 8002c84:	d141      	bne.n	8002d0a <HAL_PWREx_ControlVoltageScaling+0x11e>
 8002c86:	4b28      	ldr	r3, [pc, #160]	; (8002d28 <HAL_PWREx_ControlVoltageScaling+0x13c>)
 8002c88:	681b      	ldr	r3, [r3, #0]
 8002c8a:	f403 63c0 	and.w	r3, r3, #1536	; 0x600
 8002c8e:	f5b3 6f80 	cmp.w	r3, #1024	; 0x400
 8002c92:	d131      	bne.n	8002cf8 <HAL_PWREx_ControlVoltageScaling+0x10c>
 8002c94:	4b24      	ldr	r3, [pc, #144]	; (8002d28 <HAL_PWREx_ControlVoltageScaling+0x13c>)
 8002c96:	f8d3 3080 	ldr.w	r3, [r3, #128]	; 0x80
 8002c9a:	4a23      	ldr	r2, [pc, #140]	; (8002d28 <HAL_PWREx_ControlVoltageScaling+0x13c>)
 8002c9c:	f443 7380 	orr.w	r3, r3, #256	; 0x100
 8002ca0:	f8c2 3080 	str.w	r3, [r2, #128]	; 0x80
 8002ca4:	4b20      	ldr	r3, [pc, #128]	; (8002d28 <HAL_PWREx_ControlVoltageScaling+0x13c>)
 8002ca6:	681b      	ldr	r3, [r3, #0]
 8002ca8:	f423 63c0 	bic.w	r3, r3, #1536	; 0x600
 8002cac:	4a1e      	ldr	r2, [pc, #120]	; (8002d28 <HAL_PWREx_ControlVoltageScaling+0x13c>)
 8002cae:	f443 7300 	orr.w	r3, r3, #512	; 0x200
 8002cb2:	6013      	str	r3, [r2, #0]
 8002cb4:	4b1d      	ldr	r3, [pc, #116]	; (8002d2c <HAL_PWREx_ControlVoltageScaling+0x140>)
 8002cb6:	681b      	ldr	r3, [r3, #0]
 8002cb8:	2232      	movs	r2, #50	; 0x32
 8002cba:	fb02 f303 	mul.w	r3, r2, r3
 8002cbe:	4a1c      	ldr	r2, [pc, #112]	; (8002d30 <HAL_PWREx_ControlVoltageScaling+0x144>)
 8002cc0:	fba2 2303 	umull	r2, r3, r2, r3
 8002cc4:	0c9b      	lsrs	r3, r3, #18
 8002cc6:	3301      	adds	r3, #1
 8002cc8:	60fb      	str	r3, [r7, #12]
 8002cca:	e002      	b.n	8002cd2 <HAL_PWREx_ControlVoltageScaling+0xe6>
 8002ccc:	68fb      	ldr	r3, [r7, #12]
 8002cce:	3b01      	subs	r3, #1
 8002cd0:	60fb      	str	r3, [r7, #12]
 8002cd2:	4b15      	ldr	r3, [pc, #84]	; (8002d28 <HAL_PWREx_ControlVoltageScaling+0x13c>)
 8002cd4:	695b      	ldr	r3, [r3, #20]
 8002cd6:	f403 6380 	and.w	r3, r3, #1024	; 0x400
 8002cda:	f5b3 6f80 	cmp.w	r3, #1024	; 0x400
 8002cde:	d102      	bne.n	8002ce6 <HAL_PWREx_ControlVoltageScaling+0xfa>
 8002ce0:	68fb      	ldr	r3, [r7, #12]
 8002ce2:	2b00      	cmp	r3, #0
 8002ce4:	d1f2      	bne.n	8002ccc <HAL_PWREx_ControlVoltageScaling+0xe0>
 8002ce6:	4b10      	ldr	r3, [pc, #64]	; (8002d28 <HAL_PWREx_ControlVoltageScaling+0x13c>)
 8002ce8:	695b      	ldr	r3, [r3, #20]
 8002cea:	f403 6380 	and.w	r3, r3, #1024	; 0x400
 8002cee:	f5b3 6f80 	cmp.w	r3, #1024	; 0x400
 8002cf2:	d112      	bne.n	8002d1a <HAL_PWREx_ControlVoltageScaling+0x12e>
 8002cf4:	2303      	movs	r3, #3
 8002cf6:	e011      	b.n	8002d1c <HAL_PWREx_ControlVoltageScaling+0x130>
 8002cf8:	4b0b      	ldr	r3, [pc, #44]	; (8002d28 <HAL_PWREx_ControlVoltageScaling+0x13c>)
 8002cfa:	f8d3 3080 	ldr.w	r3, [r3, #128]	; 0x80
 8002cfe:	4a0a      	ldr	r2, [pc, #40]	; (8002d28 <HAL_PWREx_ControlVoltageScaling+0x13c>)
 8002d00:	f443 7380 	orr.w	r3, r3, #256	; 0x100
 8002d04:	f8c2 3080 	str.w	r3, [r2, #128]	; 0x80
 8002d08:	e007      	b.n	8002d1a <HAL_PWREx_ControlVoltageScaling+0x12e>
 8002d0a:	4b07      	ldr	r3, [pc, #28]	; (8002d28 <HAL_PWREx_ControlVoltageScaling+0x13c>)
 8002d0c:	681b      	ldr	r3, [r3, #0]
 8002d0e:	f423 63c0 	bic.w	r3, r3, #1536	; 0x600
 8002d12:	4a05      	ldr	r2, [pc, #20]	; (8002d28 <HAL_PWREx_ControlVoltageScaling+0x13c>)
 8002d14:	f443 6380 	orr.w	r3, r3, #1024	; 0x400
 8002d18:	6013      	str	r3, [r2, #0]
 8002d1a:	2300      	movs	r3, #0
 8002d1c:	4618      	mov	r0, r3
 8002d1e:	3714      	adds	r7, #20
 8002d20:	46bd      	mov	sp, r7
 8002d22:	f85d 7b04 	ldr.w	r7, [sp], #4
 8002d26:	4770      	bx	lr
 8002d28:	40007000 	.word	0x40007000
 8002d2c:	20000000 	.word	0x20000000
 8002d30:	431bde83 	.word	0x431bde83

08002d34 <HAL_RCC_OscConfig>:
 8002d34:	b580      	push	{r7, lr}
 8002d36:	b088      	sub	sp, #32
 8002d38:	af00      	add	r7, sp, #0
 8002d3a:	6078      	str	r0, [r7, #4]
 8002d3c:	687b      	ldr	r3, [r7, #4]
 8002d3e:	2b00      	cmp	r3, #0
 8002d40:	d101      	bne.n	8002d46 <HAL_RCC_OscConfig+0x12>
 8002d42:	2301      	movs	r3, #1
 8002d44:	e308      	b.n	8003358 <HAL_RCC_OscConfig+0x624>
 8002d46:	687b      	ldr	r3, [r7, #4]
 8002d48:	681b      	ldr	r3, [r3, #0]
 8002d4a:	f003 0301 	and.w	r3, r3, #1
 8002d4e:	2b00      	cmp	r3, #0
 8002d50:	d075      	beq.n	8002e3e <HAL_RCC_OscConfig+0x10a>
 8002d52:	4ba3      	ldr	r3, [pc, #652]	; (8002fe0 <HAL_RCC_OscConfig+0x2ac>)
 8002d54:	689b      	ldr	r3, [r3, #8]
 8002d56:	f003 030c 	and.w	r3, r3, #12
 8002d5a:	61bb      	str	r3, [r7, #24]
 8002d5c:	4ba0      	ldr	r3, [pc, #640]	; (8002fe0 <HAL_RCC_OscConfig+0x2ac>)
 8002d5e:	68db      	ldr	r3, [r3, #12]
 8002d60:	f003 0303 	and.w	r3, r3, #3
 8002d64:	617b      	str	r3, [r7, #20]
 8002d66:	69bb      	ldr	r3, [r7, #24]
 8002d68:	2b0c      	cmp	r3, #12
 8002d6a:	d102      	bne.n	8002d72 <HAL_RCC_OscConfig+0x3e>
 8002d6c:	697b      	ldr	r3, [r7, #20]
 8002d6e:	2b03      	cmp	r3, #3
 8002d70:	d002      	beq.n	8002d78 <HAL_RCC_OscConfig+0x44>
 8002d72:	69bb      	ldr	r3, [r7, #24]
 8002d74:	2b08      	cmp	r3, #8
 8002d76:	d10b      	bne.n	8002d90 <HAL_RCC_OscConfig+0x5c>
 8002d78:	4b99      	ldr	r3, [pc, #612]	; (8002fe0 <HAL_RCC_OscConfig+0x2ac>)
 8002d7a:	681b      	ldr	r3, [r3, #0]
 8002d7c:	f403 3300 	and.w	r3, r3, #131072	; 0x20000
 8002d80:	2b00      	cmp	r3, #0
 8002d82:	d05b      	beq.n	8002e3c <HAL_RCC_OscConfig+0x108>
 8002d84:	687b      	ldr	r3, [r7, #4]
 8002d86:	685b      	ldr	r3, [r3, #4]
 8002d88:	2b00      	cmp	r3, #0
 8002d8a:	d157      	bne.n	8002e3c <HAL_RCC_OscConfig+0x108>
 8002d8c:	2301      	movs	r3, #1
 8002d8e:	e2e3      	b.n	8003358 <HAL_RCC_OscConfig+0x624>
 8002d90:	687b      	ldr	r3, [r7, #4]
 8002d92:	685b      	ldr	r3, [r3, #4]
 8002d94:	f5b3 3f80 	cmp.w	r3, #65536	; 0x10000
 8002d98:	d106      	bne.n	8002da8 <HAL_RCC_OscConfig+0x74>
 8002d9a:	4b91      	ldr	r3, [pc, #580]	; (8002fe0 <HAL_RCC_OscConfig+0x2ac>)
 8002d9c:	681b      	ldr	r3, [r3, #0]
 8002d9e:	4a90      	ldr	r2, [pc, #576]	; (8002fe0 <HAL_RCC_OscConfig+0x2ac>)
 8002da0:	f443 3380 	orr.w	r3, r3, #65536	; 0x10000
 8002da4:	6013      	str	r3, [r2, #0]
 8002da6:	e01d      	b.n	8002de4 <HAL_RCC_OscConfig+0xb0>
 8002da8:	687b      	ldr	r3, [r7, #4]
 8002daa:	685b      	ldr	r3, [r3, #4]
 8002dac:	f5b3 2fa0 	cmp.w	r3, #327680	; 0x50000
 8002db0:	d10c      	bne.n	8002dcc <HAL_RCC_OscConfig+0x98>
 8002db2:	4b8b      	ldr	r3, [pc, #556]	; (8002fe0 <HAL_RCC_OscConfig+0x2ac>)
 8002db4:	681b      	ldr	r3, [r3, #0]
 8002db6:	4a8a      	ldr	r2, [pc, #552]	; (8002fe0 <HAL_RCC_OscConfig+0x2ac>)
 8002db8:	f443 2380 	orr.w	r3, r3, #262144	; 0x40000
 8002dbc:	6013      	str	r3, [r2, #0]
 8002dbe:	4b88      	ldr	r3, [pc, #544]	; (8002fe0 <HAL_RCC_OscConfig+0x2ac>)
 8002dc0:	681b      	ldr	r3, [r3, #0]
 8002dc2:	4a87      	ldr	r2, [pc, #540]	; (8002fe0 <HAL_RCC_OscConfig+0x2ac>)
 8002dc4:	f443 3380 	orr.w	r3, r3, #65536	; 0x10000
 8002dc8:	6013      	str	r3, [r2, #0]
 8002dca:	e00b      	b.n	8002de4 <HAL_RCC_OscConfig+0xb0>
 8002dcc:	4b84      	ldr	r3, [pc, #528]	; (8002fe0 <HAL_RCC_OscConfig+0x2ac>)
 8002dce:	681b      	ldr	r3, [r3, #0]
 8002dd0:	4a83      	ldr	r2, [pc, #524]	; (8002fe0 <HAL_RCC_OscConfig+0x2ac>)
 8002dd2:	f423 3380 	bic.w	r3, r3, #65536	; 0x10000
 8002dd6:	6013      	str	r3, [r2, #0]
 8002dd8:	4b81      	ldr	r3, [pc, #516]	; (8002fe0 <HAL_RCC_OscConfig+0x2ac>)
 8002dda:	681b      	ldr	r3, [r3, #0]
 8002ddc:	4a80      	ldr	r2, [pc, #512]	; (8002fe0 <HAL_RCC_OscConfig+0x2ac>)
 8002dde:	f423 2380 	bic.w	r3, r3, #262144	; 0x40000
 8002de2:	6013      	str	r3, [r2, #0]
 8002de4:	687b      	ldr	r3, [r7, #4]
 8002de6:	685b      	ldr	r3, [r3, #4]
 8002de8:	2b00      	cmp	r3, #0
 8002dea:	d013      	beq.n	8002e14 <HAL_RCC_OscConfig+0xe0>
 8002dec:	f7fe fac0 	bl	8001370 <HAL_GetTick>
 8002df0:	6138      	str	r0, [r7, #16]
 8002df2:	e008      	b.n	8002e06 <HAL_RCC_OscConfig+0xd2>
 8002df4:	f7fe fabc 	bl	8001370 <HAL_GetTick>
 8002df8:	4602      	mov	r2, r0
 8002dfa:	693b      	ldr	r3, [r7, #16]
 8002dfc:	1ad3      	subs	r3, r2, r3
 8002dfe:	2b64      	cmp	r3, #100	; 0x64
 8002e00:	d901      	bls.n	8002e06 <HAL_RCC_OscConfig+0xd2>
 8002e02:	2303      	movs	r3, #3
 8002e04:	e2a8      	b.n	8003358 <HAL_RCC_OscConfig+0x624>
 8002e06:	4b76      	ldr	r3, [pc, #472]	; (8002fe0 <HAL_RCC_OscConfig+0x2ac>)
 8002e08:	681b      	ldr	r3, [r3, #0]
 8002e0a:	f403 3300 	and.w	r3, r3, #131072	; 0x20000
 8002e0e:	2b00      	cmp	r3, #0
 8002e10:	d0f0      	beq.n	8002df4 <HAL_RCC_OscConfig+0xc0>
 8002e12:	e014      	b.n	8002e3e <HAL_RCC_OscConfig+0x10a>
 8002e14:	f7fe faac 	bl	8001370 <HAL_GetTick>
 8002e18:	6138      	str	r0, [r7, #16]
 8002e1a:	e008      	b.n	8002e2e <HAL_RCC_OscConfig+0xfa>
 8002e1c:	f7fe faa8 	bl	8001370 <HAL_GetTick>
 8002e20:	4602      	mov	r2, r0
 8002e22:	693b      	ldr	r3, [r7, #16]
 8002e24:	1ad3      	subs	r3, r2, r3
 8002e26:	2b64      	cmp	r3, #100	; 0x64
 8002e28:	d901      	bls.n	8002e2e <HAL_RCC_OscConfig+0xfa>
 8002e2a:	2303      	movs	r3, #3
 8002e2c:	e294      	b.n	8003358 <HAL_RCC_OscConfig+0x624>
 8002e2e:	4b6c      	ldr	r3, [pc, #432]	; (8002fe0 <HAL_RCC_OscConfig+0x2ac>)
 8002e30:	681b      	ldr	r3, [r3, #0]
 8002e32:	f403 3300 	and.w	r3, r3, #131072	; 0x20000
 8002e36:	2b00      	cmp	r3, #0
 8002e38:	d1f0      	bne.n	8002e1c <HAL_RCC_OscConfig+0xe8>
 8002e3a:	e000      	b.n	8002e3e <HAL_RCC_OscConfig+0x10a>
 8002e3c:	bf00      	nop
 8002e3e:	687b      	ldr	r3, [r7, #4]
 8002e40:	681b      	ldr	r3, [r3, #0]
 8002e42:	f003 0302 	and.w	r3, r3, #2
 8002e46:	2b00      	cmp	r3, #0
 8002e48:	d075      	beq.n	8002f36 <HAL_RCC_OscConfig+0x202>
 8002e4a:	4b65      	ldr	r3, [pc, #404]	; (8002fe0 <HAL_RCC_OscConfig+0x2ac>)
 8002e4c:	689b      	ldr	r3, [r3, #8]
 8002e4e:	f003 030c 	and.w	r3, r3, #12
 8002e52:	61bb      	str	r3, [r7, #24]
 8002e54:	4b62      	ldr	r3, [pc, #392]	; (8002fe0 <HAL_RCC_OscConfig+0x2ac>)
 8002e56:	68db      	ldr	r3, [r3, #12]
 8002e58:	f003 0303 	and.w	r3, r3, #3
 8002e5c:	617b      	str	r3, [r7, #20]
 8002e5e:	69bb      	ldr	r3, [r7, #24]
 8002e60:	2b0c      	cmp	r3, #12
 8002e62:	d102      	bne.n	8002e6a <HAL_RCC_OscConfig+0x136>
 8002e64:	697b      	ldr	r3, [r7, #20]
 8002e66:	2b02      	cmp	r3, #2
 8002e68:	d002      	beq.n	8002e70 <HAL_RCC_OscConfig+0x13c>
 8002e6a:	69bb      	ldr	r3, [r7, #24]
 8002e6c:	2b04      	cmp	r3, #4
 8002e6e:	d11f      	bne.n	8002eb0 <HAL_RCC_OscConfig+0x17c>
 8002e70:	4b5b      	ldr	r3, [pc, #364]	; (8002fe0 <HAL_RCC_OscConfig+0x2ac>)
 8002e72:	681b      	ldr	r3, [r3, #0]
 8002e74:	f403 6380 	and.w	r3, r3, #1024	; 0x400
 8002e78:	2b00      	cmp	r3, #0
 8002e7a:	d005      	beq.n	8002e88 <HAL_RCC_OscConfig+0x154>
 8002e7c:	687b      	ldr	r3, [r7, #4]
 8002e7e:	68db      	ldr	r3, [r3, #12]
 8002e80:	2b00      	cmp	r3, #0
 8002e82:	d101      	bne.n	8002e88 <HAL_RCC_OscConfig+0x154>
 8002e84:	2301      	movs	r3, #1
 8002e86:	e267      	b.n	8003358 <HAL_RCC_OscConfig+0x624>
 8002e88:	4b55      	ldr	r3, [pc, #340]	; (8002fe0 <HAL_RCC_OscConfig+0x2ac>)
 8002e8a:	685b      	ldr	r3, [r3, #4]
 8002e8c:	f023 42fe 	bic.w	r2, r3, #2130706432	; 0x7f000000
 8002e90:	687b      	ldr	r3, [r7, #4]
 8002e92:	691b      	ldr	r3, [r3, #16]
 8002e94:	061b      	lsls	r3, r3, #24
 8002e96:	4952      	ldr	r1, [pc, #328]	; (8002fe0 <HAL_RCC_OscConfig+0x2ac>)
 8002e98:	4313      	orrs	r3, r2
 8002e9a:	604b      	str	r3, [r1, #4]
 8002e9c:	4b51      	ldr	r3, [pc, #324]	; (8002fe4 <HAL_RCC_OscConfig+0x2b0>)
 8002e9e:	681b      	ldr	r3, [r3, #0]
 8002ea0:	4618      	mov	r0, r3
 8002ea2:	f7fe fa19 	bl	80012d8 <HAL_InitTick>
 8002ea6:	4603      	mov	r3, r0
 8002ea8:	2b00      	cmp	r3, #0
 8002eaa:	d043      	beq.n	8002f34 <HAL_RCC_OscConfig+0x200>
 8002eac:	2301      	movs	r3, #1
 8002eae:	e253      	b.n	8003358 <HAL_RCC_OscConfig+0x624>
 8002eb0:	687b      	ldr	r3, [r7, #4]
 8002eb2:	68db      	ldr	r3, [r3, #12]
 8002eb4:	2b00      	cmp	r3, #0
 8002eb6:	d023      	beq.n	8002f00 <HAL_RCC_OscConfig+0x1cc>
 8002eb8:	4b49      	ldr	r3, [pc, #292]	; (8002fe0 <HAL_RCC_OscConfig+0x2ac>)
 8002eba:	681b      	ldr	r3, [r3, #0]
 8002ebc:	4a48      	ldr	r2, [pc, #288]	; (8002fe0 <HAL_RCC_OscConfig+0x2ac>)
 8002ebe:	f443 7380 	orr.w	r3, r3, #256	; 0x100
 8002ec2:	6013      	str	r3, [r2, #0]
 8002ec4:	f7fe fa54 	bl	8001370 <HAL_GetTick>
 8002ec8:	6138      	str	r0, [r7, #16]
 8002eca:	e008      	b.n	8002ede <HAL_RCC_OscConfig+0x1aa>
 8002ecc:	f7fe fa50 	bl	8001370 <HAL_GetTick>
 8002ed0:	4602      	mov	r2, r0
 8002ed2:	693b      	ldr	r3, [r7, #16]
 8002ed4:	1ad3      	subs	r3, r2, r3
 8002ed6:	2b02      	cmp	r3, #2
 8002ed8:	d901      	bls.n	8002ede <HAL_RCC_OscConfig+0x1aa>
 8002eda:	2303      	movs	r3, #3
 8002edc:	e23c      	b.n	8003358 <HAL_RCC_OscConfig+0x624>
 8002ede:	4b40      	ldr	r3, [pc, #256]	; (8002fe0 <HAL_RCC_OscConfig+0x2ac>)
 8002ee0:	681b      	ldr	r3, [r3, #0]
 8002ee2:	f403 6380 	and.w	r3, r3, #1024	; 0x400
 8002ee6:	2b00      	cmp	r3, #0
 8002ee8:	d0f0      	beq.n	8002ecc <HAL_RCC_OscConfig+0x198>
 8002eea:	4b3d      	ldr	r3, [pc, #244]	; (8002fe0 <HAL_RCC_OscConfig+0x2ac>)
 8002eec:	685b      	ldr	r3, [r3, #4]
 8002eee:	f023 42fe 	bic.w	r2, r3, #2130706432	; 0x7f000000
 8002ef2:	687b      	ldr	r3, [r7, #4]
 8002ef4:	691b      	ldr	r3, [r3, #16]
 8002ef6:	061b      	lsls	r3, r3, #24
 8002ef8:	4939      	ldr	r1, [pc, #228]	; (8002fe0 <HAL_RCC_OscConfig+0x2ac>)
 8002efa:	4313      	orrs	r3, r2
 8002efc:	604b      	str	r3, [r1, #4]
 8002efe:	e01a      	b.n	8002f36 <HAL_RCC_OscConfig+0x202>
 8002f00:	4b37      	ldr	r3, [pc, #220]	; (8002fe0 <HAL_RCC_OscConfig+0x2ac>)
 8002f02:	681b      	ldr	r3, [r3, #0]
 8002f04:	4a36      	ldr	r2, [pc, #216]	; (8002fe0 <HAL_RCC_OscConfig+0x2ac>)
 8002f06:	f423 7380 	bic.w	r3, r3, #256	; 0x100
 8002f0a:	6013      	str	r3, [r2, #0]
 8002f0c:	f7fe fa30 	bl	8001370 <HAL_GetTick>
 8002f10:	6138      	str	r0, [r7, #16]
 8002f12:	e008      	b.n	8002f26 <HAL_RCC_OscConfig+0x1f2>
 8002f14:	f7fe fa2c 	bl	8001370 <HAL_GetTick>
 8002f18:	4602      	mov	r2, r0
 8002f1a:	693b      	ldr	r3, [r7, #16]
 8002f1c:	1ad3      	subs	r3, r2, r3
 8002f1e:	2b02      	cmp	r3, #2
 8002f20:	d901      	bls.n	8002f26 <HAL_RCC_OscConfig+0x1f2>
 8002f22:	2303      	movs	r3, #3
 8002f24:	e218      	b.n	8003358 <HAL_RCC_OscConfig+0x624>
 8002f26:	4b2e      	ldr	r3, [pc, #184]	; (8002fe0 <HAL_RCC_OscConfig+0x2ac>)
 8002f28:	681b      	ldr	r3, [r3, #0]
 8002f2a:	f403 6380 	and.w	r3, r3, #1024	; 0x400
 8002f2e:	2b00      	cmp	r3, #0
 8002f30:	d1f0      	bne.n	8002f14 <HAL_RCC_OscConfig+0x1e0>
 8002f32:	e000      	b.n	8002f36 <HAL_RCC_OscConfig+0x202>
 8002f34:	bf00      	nop
 8002f36:	687b      	ldr	r3, [r7, #4]
 8002f38:	681b      	ldr	r3, [r3, #0]
 8002f3a:	f003 0308 	and.w	r3, r3, #8
 8002f3e:	2b00      	cmp	r3, #0
 8002f40:	d03c      	beq.n	8002fbc <HAL_RCC_OscConfig+0x288>
 8002f42:	687b      	ldr	r3, [r7, #4]
 8002f44:	695b      	ldr	r3, [r3, #20]
 8002f46:	2b00      	cmp	r3, #0
 8002f48:	d01c      	beq.n	8002f84 <HAL_RCC_OscConfig+0x250>
 8002f4a:	4b25      	ldr	r3, [pc, #148]	; (8002fe0 <HAL_RCC_OscConfig+0x2ac>)
 8002f4c:	f8d3 3094 	ldr.w	r3, [r3, #148]	; 0x94
 8002f50:	4a23      	ldr	r2, [pc, #140]	; (8002fe0 <HAL_RCC_OscConfig+0x2ac>)
 8002f52:	f043 0301 	orr.w	r3, r3, #1
 8002f56:	f8c2 3094 	str.w	r3, [r2, #148]	; 0x94
 8002f5a:	f7fe fa09 	bl	8001370 <HAL_GetTick>
 8002f5e:	6138      	str	r0, [r7, #16]
 8002f60:	e008      	b.n	8002f74 <HAL_RCC_OscConfig+0x240>
 8002f62:	f7fe fa05 	bl	8001370 <HAL_GetTick>
 8002f66:	4602      	mov	r2, r0
 8002f68:	693b      	ldr	r3, [r7, #16]
 8002f6a:	1ad3      	subs	r3, r2, r3
 8002f6c:	2b02      	cmp	r3, #2
 8002f6e:	d901      	bls.n	8002f74 <HAL_RCC_OscConfig+0x240>
 8002f70:	2303      	movs	r3, #3
 8002f72:	e1f1      	b.n	8003358 <HAL_RCC_OscConfig+0x624>
 8002f74:	4b1a      	ldr	r3, [pc, #104]	; (8002fe0 <HAL_RCC_OscConfig+0x2ac>)
 8002f76:	f8d3 3094 	ldr.w	r3, [r3, #148]	; 0x94
 8002f7a:	f003 0302 	and.w	r3, r3, #2
 8002f7e:	2b00      	cmp	r3, #0
 8002f80:	d0ef      	beq.n	8002f62 <HAL_RCC_OscConfig+0x22e>
 8002f82:	e01b      	b.n	8002fbc <HAL_RCC_OscConfig+0x288>
 8002f84:	4b16      	ldr	r3, [pc, #88]	; (8002fe0 <HAL_RCC_OscConfig+0x2ac>)
 8002f86:	f8d3 3094 	ldr.w	r3, [r3, #148]	; 0x94
 8002f8a:	4a15      	ldr	r2, [pc, #84]	; (8002fe0 <HAL_RCC_OscConfig+0x2ac>)
 8002f8c:	f023 0301 	bic.w	r3, r3, #1
 8002f90:	f8c2 3094 	str.w	r3, [r2, #148]	; 0x94
 8002f94:	f7fe f9ec 	bl	8001370 <HAL_GetTick>
 8002f98:	6138      	str	r0, [r7, #16]
 8002f9a:	e008      	b.n	8002fae <HAL_RCC_OscConfig+0x27a>
 8002f9c:	f7fe f9e8 	bl	8001370 <HAL_GetTick>
 8002fa0:	4602      	mov	r2, r0
 8002fa2:	693b      	ldr	r3, [r7, #16]
 8002fa4:	1ad3      	subs	r3, r2, r3
 8002fa6:	2b02      	cmp	r3, #2
 8002fa8:	d901      	bls.n	8002fae <HAL_RCC_OscConfig+0x27a>
 8002faa:	2303      	movs	r3, #3
 8002fac:	e1d4      	b.n	8003358 <HAL_RCC_OscConfig+0x624>
 8002fae:	4b0c      	ldr	r3, [pc, #48]	; (8002fe0 <HAL_RCC_OscConfig+0x2ac>)
 8002fb0:	f8d3 3094 	ldr.w	r3, [r3, #148]	; 0x94
 8002fb4:	f003 0302 	and.w	r3, r3, #2
 8002fb8:	2b00      	cmp	r3, #0
 8002fba:	d1ef      	bne.n	8002f9c <HAL_RCC_OscConfig+0x268>
 8002fbc:	687b      	ldr	r3, [r7, #4]
 8002fbe:	681b      	ldr	r3, [r3, #0]
 8002fc0:	f003 0304 	and.w	r3, r3, #4
 8002fc4:	2b00      	cmp	r3, #0
 8002fc6:	f000 80ab 	beq.w	8003120 <HAL_RCC_OscConfig+0x3ec>
 8002fca:	2300      	movs	r3, #0
 8002fcc:	77fb      	strb	r3, [r7, #31]
 8002fce:	4b04      	ldr	r3, [pc, #16]	; (8002fe0 <HAL_RCC_OscConfig+0x2ac>)
 8002fd0:	6d9b      	ldr	r3, [r3, #88]	; 0x58
 8002fd2:	f003 5380 	and.w	r3, r3, #268435456	; 0x10000000
 8002fd6:	2b00      	cmp	r3, #0
 8002fd8:	d106      	bne.n	8002fe8 <HAL_RCC_OscConfig+0x2b4>
 8002fda:	2301      	movs	r3, #1
 8002fdc:	e005      	b.n	8002fea <HAL_RCC_OscConfig+0x2b6>
 8002fde:	bf00      	nop
 8002fe0:	40021000 	.word	0x40021000
 8002fe4:	20000004 	.word	0x20000004
 8002fe8:	2300      	movs	r3, #0
 8002fea:	2b00      	cmp	r3, #0
 8002fec:	d00d      	beq.n	800300a <HAL_RCC_OscConfig+0x2d6>
 8002fee:	4baf      	ldr	r3, [pc, #700]	; (80032ac <HAL_RCC_OscConfig+0x578>)
 8002ff0:	6d9b      	ldr	r3, [r3, #88]	; 0x58
 8002ff2:	4aae      	ldr	r2, [pc, #696]	; (80032ac <HAL_RCC_OscConfig+0x578>)
 8002ff4:	f043 5380 	orr.w	r3, r3, #268435456	; 0x10000000
 8002ff8:	6593      	str	r3, [r2, #88]	; 0x58
 8002ffa:	4bac      	ldr	r3, [pc, #688]	; (80032ac <HAL_RCC_OscConfig+0x578>)
 8002ffc:	6d9b      	ldr	r3, [r3, #88]	; 0x58
 8002ffe:	f003 5380 	and.w	r3, r3, #268435456	; 0x10000000
 8003002:	60fb      	str	r3, [r7, #12]
 8003004:	68fb      	ldr	r3, [r7, #12]
 8003006:	2301      	movs	r3, #1
 8003008:	77fb      	strb	r3, [r7, #31]
 800300a:	4ba9      	ldr	r3, [pc, #676]	; (80032b0 <HAL_RCC_OscConfig+0x57c>)
 800300c:	681b      	ldr	r3, [r3, #0]
 800300e:	f403 7380 	and.w	r3, r3, #256	; 0x100
 8003012:	2b00      	cmp	r3, #0
 8003014:	d118      	bne.n	8003048 <HAL_RCC_OscConfig+0x314>
 8003016:	4ba6      	ldr	r3, [pc, #664]	; (80032b0 <HAL_RCC_OscConfig+0x57c>)
 8003018:	681b      	ldr	r3, [r3, #0]
 800301a:	4aa5      	ldr	r2, [pc, #660]	; (80032b0 <HAL_RCC_OscConfig+0x57c>)
 800301c:	f443 7380 	orr.w	r3, r3, #256	; 0x100
 8003020:	6013      	str	r3, [r2, #0]
 8003022:	f7fe f9a5 	bl	8001370 <HAL_GetTick>
 8003026:	6138      	str	r0, [r7, #16]
 8003028:	e008      	b.n	800303c <HAL_RCC_OscConfig+0x308>
 800302a:	f7fe f9a1 	bl	8001370 <HAL_GetTick>
 800302e:	4602      	mov	r2, r0
 8003030:	693b      	ldr	r3, [r7, #16]
 8003032:	1ad3      	subs	r3, r2, r3
 8003034:	2b02      	cmp	r3, #2
 8003036:	d901      	bls.n	800303c <HAL_RCC_OscConfig+0x308>
 8003038:	2303      	movs	r3, #3
 800303a:	e18d      	b.n	8003358 <HAL_RCC_OscConfig+0x624>
 800303c:	4b9c      	ldr	r3, [pc, #624]	; (80032b0 <HAL_RCC_OscConfig+0x57c>)
 800303e:	681b      	ldr	r3, [r3, #0]
 8003040:	f403 7380 	and.w	r3, r3, #256	; 0x100
 8003044:	2b00      	cmp	r3, #0
 8003046:	d0f0      	beq.n	800302a <HAL_RCC_OscConfig+0x2f6>
 8003048:	687b      	ldr	r3, [r7, #4]
 800304a:	689b      	ldr	r3, [r3, #8]
 800304c:	2b01      	cmp	r3, #1
 800304e:	d108      	bne.n	8003062 <HAL_RCC_OscConfig+0x32e>
 8003050:	4b96      	ldr	r3, [pc, #600]	; (80032ac <HAL_RCC_OscConfig+0x578>)
 8003052:	f8d3 3090 	ldr.w	r3, [r3, #144]	; 0x90
 8003056:	4a95      	ldr	r2, [pc, #596]	; (80032ac <HAL_RCC_OscConfig+0x578>)
 8003058:	f043 0301 	orr.w	r3, r3, #1
 800305c:	f8c2 3090 	str.w	r3, [r2, #144]	; 0x90
 8003060:	e024      	b.n	80030ac <HAL_RCC_OscConfig+0x378>
 8003062:	687b      	ldr	r3, [r7, #4]
 8003064:	689b      	ldr	r3, [r3, #8]
 8003066:	2b05      	cmp	r3, #5
 8003068:	d110      	bne.n	800308c <HAL_RCC_OscConfig+0x358>
 800306a:	4b90      	ldr	r3, [pc, #576]	; (80032ac <HAL_RCC_OscConfig+0x578>)
 800306c:	f8d3 3090 	ldr.w	r3, [r3, #144]	; 0x90
 8003070:	4a8e      	ldr	r2, [pc, #568]	; (80032ac <HAL_RCC_OscConfig+0x578>)
 8003072:	f043 0304 	orr.w	r3, r3, #4
 8003076:	f8c2 3090 	str.w	r3, [r2, #144]	; 0x90
 800307a:	4b8c      	ldr	r3, [pc, #560]	; (80032ac <HAL_RCC_OscConfig+0x578>)
 800307c:	f8d3 3090 	ldr.w	r3, [r3, #144]	; 0x90
 8003080:	4a8a      	ldr	r2, [pc, #552]	; (80032ac <HAL_RCC_OscConfig+0x578>)
 8003082:	f043 0301 	orr.w	r3, r3, #1
 8003086:	f8c2 3090 	str.w	r3, [r2, #144]	; 0x90
 800308a:	e00f      	b.n	80030ac <HAL_RCC_OscConfig+0x378>
 800308c:	4b87      	ldr	r3, [pc, #540]	; (80032ac <HAL_RCC_OscConfig+0x578>)
 800308e:	f8d3 3090 	ldr.w	r3, [r3, #144]	; 0x90
 8003092:	4a86      	ldr	r2, [pc, #536]	; (80032ac <HAL_RCC_OscConfig+0x578>)
 8003094:	f023 0301 	bic.w	r3, r3, #1
 8003098:	f8c2 3090 	str.w	r3, [r2, #144]	; 0x90
 800309c:	4b83      	ldr	r3, [pc, #524]	; (80032ac <HAL_RCC_OscConfig+0x578>)
 800309e:	f8d3 3090 	ldr.w	r3, [r3, #144]	; 0x90
 80030a2:	4a82      	ldr	r2, [pc, #520]	; (80032ac <HAL_RCC_OscConfig+0x578>)
 80030a4:	f023 0304 	bic.w	r3, r3, #4
 80030a8:	f8c2 3090 	str.w	r3, [r2, #144]	; 0x90
 80030ac:	687b      	ldr	r3, [r7, #4]
 80030ae:	689b      	ldr	r3, [r3, #8]
 80030b0:	2b00      	cmp	r3, #0
 80030b2:	d016      	beq.n	80030e2 <HAL_RCC_OscConfig+0x3ae>
 80030b4:	f7fe f95c 	bl	8001370 <HAL_GetTick>
 80030b8:	6138      	str	r0, [r7, #16]
 80030ba:	e00a      	b.n	80030d2 <HAL_RCC_OscConfig+0x39e>
 80030bc:	f7fe f958 	bl	8001370 <HAL_GetTick>
 80030c0:	4602      	mov	r2, r0
 80030c2:	693b      	ldr	r3, [r7, #16]
 80030c4:	1ad3      	subs	r3, r2, r3
 80030c6:	f241 3288 	movw	r2, #5000	; 0x1388
 80030ca:	4293      	cmp	r3, r2
 80030cc:	d901      	bls.n	80030d2 <HAL_RCC_OscConfig+0x39e>
 80030ce:	2303      	movs	r3, #3
 80030d0:	e142      	b.n	8003358 <HAL_RCC_OscConfig+0x624>
 80030d2:	4b76      	ldr	r3, [pc, #472]	; (80032ac <HAL_RCC_OscConfig+0x578>)
 80030d4:	f8d3 3090 	ldr.w	r3, [r3, #144]	; 0x90
 80030d8:	f003 0302 	and.w	r3, r3, #2
 80030dc:	2b00      	cmp	r3, #0
 80030de:	d0ed      	beq.n	80030bc <HAL_RCC_OscConfig+0x388>
 80030e0:	e015      	b.n	800310e <HAL_RCC_OscConfig+0x3da>
 80030e2:	f7fe f945 	bl	8001370 <HAL_GetTick>
 80030e6:	6138      	str	r0, [r7, #16]
 80030e8:	e00a      	b.n	8003100 <HAL_RCC_OscConfig+0x3cc>
 80030ea:	f7fe f941 	bl	8001370 <HAL_GetTick>
 80030ee:	4602      	mov	r2, r0
 80030f0:	693b      	ldr	r3, [r7, #16]
 80030f2:	1ad3      	subs	r3, r2, r3
 80030f4:	f241 3288 	movw	r2, #5000	; 0x1388
 80030f8:	4293      	cmp	r3, r2
 80030fa:	d901      	bls.n	8003100 <HAL_RCC_OscConfig+0x3cc>
 80030fc:	2303      	movs	r3, #3
 80030fe:	e12b      	b.n	8003358 <HAL_RCC_OscConfig+0x624>
 8003100:	4b6a      	ldr	r3, [pc, #424]	; (80032ac <HAL_RCC_OscConfig+0x578>)
 8003102:	f8d3 3090 	ldr.w	r3, [r3, #144]	; 0x90
 8003106:	f003 0302 	and.w	r3, r3, #2
 800310a:	2b00      	cmp	r3, #0
 800310c:	d1ed      	bne.n	80030ea <HAL_RCC_OscConfig+0x3b6>
 800310e:	7ffb      	ldrb	r3, [r7, #31]
 8003110:	2b01      	cmp	r3, #1
 8003112:	d105      	bne.n	8003120 <HAL_RCC_OscConfig+0x3ec>
 8003114:	4b65      	ldr	r3, [pc, #404]	; (80032ac <HAL_RCC_OscConfig+0x578>)
 8003116:	6d9b      	ldr	r3, [r3, #88]	; 0x58
 8003118:	4a64      	ldr	r2, [pc, #400]	; (80032ac <HAL_RCC_OscConfig+0x578>)
 800311a:	f023 5380 	bic.w	r3, r3, #268435456	; 0x10000000
 800311e:	6593      	str	r3, [r2, #88]	; 0x58
 8003120:	687b      	ldr	r3, [r7, #4]
 8003122:	681b      	ldr	r3, [r3, #0]
 8003124:	f003 0320 	and.w	r3, r3, #32
 8003128:	2b00      	cmp	r3, #0
 800312a:	d03c      	beq.n	80031a6 <HAL_RCC_OscConfig+0x472>
 800312c:	687b      	ldr	r3, [r7, #4]
 800312e:	699b      	ldr	r3, [r3, #24]
 8003130:	2b00      	cmp	r3, #0
 8003132:	d01c      	beq.n	800316e <HAL_RCC_OscConfig+0x43a>
 8003134:	4b5d      	ldr	r3, [pc, #372]	; (80032ac <HAL_RCC_OscConfig+0x578>)
 8003136:	f8d3 3098 	ldr.w	r3, [r3, #152]	; 0x98
 800313a:	4a5c      	ldr	r2, [pc, #368]	; (80032ac <HAL_RCC_OscConfig+0x578>)
 800313c:	f043 0301 	orr.w	r3, r3, #1
 8003140:	f8c2 3098 	str.w	r3, [r2, #152]	; 0x98
 8003144:	f7fe f914 	bl	8001370 <HAL_GetTick>
 8003148:	6138      	str	r0, [r7, #16]
 800314a:	e008      	b.n	800315e <HAL_RCC_OscConfig+0x42a>
 800314c:	f7fe f910 	bl	8001370 <HAL_GetTick>
 8003150:	4602      	mov	r2, r0
 8003152:	693b      	ldr	r3, [r7, #16]
 8003154:	1ad3      	subs	r3, r2, r3
 8003156:	2b02      	cmp	r3, #2
 8003158:	d901      	bls.n	800315e <HAL_RCC_OscConfig+0x42a>
 800315a:	2303      	movs	r3, #3
 800315c:	e0fc      	b.n	8003358 <HAL_RCC_OscConfig+0x624>
 800315e:	4b53      	ldr	r3, [pc, #332]	; (80032ac <HAL_RCC_OscConfig+0x578>)
 8003160:	f8d3 3098 	ldr.w	r3, [r3, #152]	; 0x98
 8003164:	f003 0302 	and.w	r3, r3, #2
 8003168:	2b00      	cmp	r3, #0
 800316a:	d0ef      	beq.n	800314c <HAL_RCC_OscConfig+0x418>
 800316c:	e01b      	b.n	80031a6 <HAL_RCC_OscConfig+0x472>
 800316e:	4b4f      	ldr	r3, [pc, #316]	; (80032ac <HAL_RCC_OscConfig+0x578>)
 8003170:	f8d3 3098 	ldr.w	r3, [r3, #152]	; 0x98
 8003174:	4a4d      	ldr	r2, [pc, #308]	; (80032ac <HAL_RCC_OscConfig+0x578>)
 8003176:	f023 0301 	bic.w	r3, r3, #1
 800317a:	f8c2 3098 	str.w	r3, [r2, #152]	; 0x98
 800317e:	f7fe f8f7 	bl	8001370 <HAL_GetTick>
 8003182:	6138      	str	r0, [r7, #16]
 8003184:	e008      	b.n	8003198 <HAL_RCC_OscConfig+0x464>
 8003186:	f7fe f8f3 	bl	8001370 <HAL_GetTick>
 800318a:	4602      	mov	r2, r0
 800318c:	693b      	ldr	r3, [r7, #16]
 800318e:	1ad3      	subs	r3, r2, r3
 8003190:	2b02      	cmp	r3, #2
 8003192:	d901      	bls.n	8003198 <HAL_RCC_OscConfig+0x464>
 8003194:	2303      	movs	r3, #3
 8003196:	e0df      	b.n	8003358 <HAL_RCC_OscConfig+0x624>
 8003198:	4b44      	ldr	r3, [pc, #272]	; (80032ac <HAL_RCC_OscConfig+0x578>)
 800319a:	f8d3 3098 	ldr.w	r3, [r3, #152]	; 0x98
 800319e:	f003 0302 	and.w	r3, r3, #2
 80031a2:	2b00      	cmp	r3, #0
 80031a4:	d1ef      	bne.n	8003186 <HAL_RCC_OscConfig+0x452>
 80031a6:	687b      	ldr	r3, [r7, #4]
 80031a8:	69db      	ldr	r3, [r3, #28]
 80031aa:	2b00      	cmp	r3, #0
 80031ac:	f000 80d3 	beq.w	8003356 <HAL_RCC_OscConfig+0x622>
 80031b0:	4b3e      	ldr	r3, [pc, #248]	; (80032ac <HAL_RCC_OscConfig+0x578>)
 80031b2:	689b      	ldr	r3, [r3, #8]
 80031b4:	f003 030c 	and.w	r3, r3, #12
 80031b8:	2b0c      	cmp	r3, #12
 80031ba:	f000 808d 	beq.w	80032d8 <HAL_RCC_OscConfig+0x5a4>
 80031be:	687b      	ldr	r3, [r7, #4]
 80031c0:	69db      	ldr	r3, [r3, #28]
 80031c2:	2b02      	cmp	r3, #2
 80031c4:	d15a      	bne.n	800327c <HAL_RCC_OscConfig+0x548>
 80031c6:	4b39      	ldr	r3, [pc, #228]	; (80032ac <HAL_RCC_OscConfig+0x578>)
 80031c8:	681b      	ldr	r3, [r3, #0]
 80031ca:	4a38      	ldr	r2, [pc, #224]	; (80032ac <HAL_RCC_OscConfig+0x578>)
 80031cc:	f023 7380 	bic.w	r3, r3, #16777216	; 0x1000000
 80031d0:	6013      	str	r3, [r2, #0]
 80031d2:	f7fe f8cd 	bl	8001370 <HAL_GetTick>
 80031d6:	6138      	str	r0, [r7, #16]
 80031d8:	e008      	b.n	80031ec <HAL_RCC_OscConfig+0x4b8>
 80031da:	f7fe f8c9 	bl	8001370 <HAL_GetTick>
 80031de:	4602      	mov	r2, r0
 80031e0:	693b      	ldr	r3, [r7, #16]
 80031e2:	1ad3      	subs	r3, r2, r3
 80031e4:	2b02      	cmp	r3, #2
 80031e6:	d901      	bls.n	80031ec <HAL_RCC_OscConfig+0x4b8>
 80031e8:	2303      	movs	r3, #3
 80031ea:	e0b5      	b.n	8003358 <HAL_RCC_OscConfig+0x624>
 80031ec:	4b2f      	ldr	r3, [pc, #188]	; (80032ac <HAL_RCC_OscConfig+0x578>)
 80031ee:	681b      	ldr	r3, [r3, #0]
 80031f0:	f003 7300 	and.w	r3, r3, #33554432	; 0x2000000
 80031f4:	2b00      	cmp	r3, #0
 80031f6:	d1f0      	bne.n	80031da <HAL_RCC_OscConfig+0x4a6>
 80031f8:	4b2c      	ldr	r3, [pc, #176]	; (80032ac <HAL_RCC_OscConfig+0x578>)
 80031fa:	68da      	ldr	r2, [r3, #12]
 80031fc:	4b2d      	ldr	r3, [pc, #180]	; (80032b4 <HAL_RCC_OscConfig+0x580>)
 80031fe:	4013      	ands	r3, r2
 8003200:	687a      	ldr	r2, [r7, #4]
 8003202:	6a11      	ldr	r1, [r2, #32]
 8003204:	687a      	ldr	r2, [r7, #4]
 8003206:	6a52      	ldr	r2, [r2, #36]	; 0x24
 8003208:	3a01      	subs	r2, #1
 800320a:	0112      	lsls	r2, r2, #4
 800320c:	4311      	orrs	r1, r2
 800320e:	687a      	ldr	r2, [r7, #4]
 8003210:	6a92      	ldr	r2, [r2, #40]	; 0x28
 8003212:	0212      	lsls	r2, r2, #8
 8003214:	4311      	orrs	r1, r2
 8003216:	687a      	ldr	r2, [r7, #4]
 8003218:	6b12      	ldr	r2, [r2, #48]	; 0x30
 800321a:	0852      	lsrs	r2, r2, #1
 800321c:	3a01      	subs	r2, #1
 800321e:	0552      	lsls	r2, r2, #21
 8003220:	4311      	orrs	r1, r2
 8003222:	687a      	ldr	r2, [r7, #4]
 8003224:	6b52      	ldr	r2, [r2, #52]	; 0x34
 8003226:	0852      	lsrs	r2, r2, #1
 8003228:	3a01      	subs	r2, #1
 800322a:	0652      	lsls	r2, r2, #25
 800322c:	4311      	orrs	r1, r2
 800322e:	687a      	ldr	r2, [r7, #4]
 8003230:	6ad2      	ldr	r2, [r2, #44]	; 0x2c
 8003232:	06d2      	lsls	r2, r2, #27
 8003234:	430a      	orrs	r2, r1
 8003236:	491d      	ldr	r1, [pc, #116]	; (80032ac <HAL_RCC_OscConfig+0x578>)
 8003238:	4313      	orrs	r3, r2
 800323a:	60cb      	str	r3, [r1, #12]
 800323c:	4b1b      	ldr	r3, [pc, #108]	; (80032ac <HAL_RCC_OscConfig+0x578>)
 800323e:	681b      	ldr	r3, [r3, #0]
 8003240:	4a1a      	ldr	r2, [pc, #104]	; (80032ac <HAL_RCC_OscConfig+0x578>)
 8003242:	f043 7380 	orr.w	r3, r3, #16777216	; 0x1000000
 8003246:	6013      	str	r3, [r2, #0]
 8003248:	4b18      	ldr	r3, [pc, #96]	; (80032ac <HAL_RCC_OscConfig+0x578>)
 800324a:	68db      	ldr	r3, [r3, #12]
 800324c:	4a17      	ldr	r2, [pc, #92]	; (80032ac <HAL_RCC_OscConfig+0x578>)
 800324e:	f043 7380 	orr.w	r3, r3, #16777216	; 0x1000000
 8003252:	60d3      	str	r3, [r2, #12]
 8003254:	f7fe f88c 	bl	8001370 <HAL_GetTick>
 8003258:	6138      	str	r0, [r7, #16]
 800325a:	e008      	b.n	800326e <HAL_RCC_OscConfig+0x53a>
 800325c:	f7fe f888 	bl	8001370 <HAL_GetTick>
 8003260:	4602      	mov	r2, r0
 8003262:	693b      	ldr	r3, [r7, #16]
 8003264:	1ad3      	subs	r3, r2, r3
 8003266:	2b02      	cmp	r3, #2
 8003268:	d901      	bls.n	800326e <HAL_RCC_OscConfig+0x53a>
 800326a:	2303      	movs	r3, #3
 800326c:	e074      	b.n	8003358 <HAL_RCC_OscConfig+0x624>
 800326e:	4b0f      	ldr	r3, [pc, #60]	; (80032ac <HAL_RCC_OscConfig+0x578>)
 8003270:	681b      	ldr	r3, [r3, #0]
 8003272:	f003 7300 	and.w	r3, r3, #33554432	; 0x2000000
 8003276:	2b00      	cmp	r3, #0
 8003278:	d0f0      	beq.n	800325c <HAL_RCC_OscConfig+0x528>
 800327a:	e06c      	b.n	8003356 <HAL_RCC_OscConfig+0x622>
 800327c:	4b0b      	ldr	r3, [pc, #44]	; (80032ac <HAL_RCC_OscConfig+0x578>)
 800327e:	681b      	ldr	r3, [r3, #0]
 8003280:	4a0a      	ldr	r2, [pc, #40]	; (80032ac <HAL_RCC_OscConfig+0x578>)
 8003282:	f023 7380 	bic.w	r3, r3, #16777216	; 0x1000000
 8003286:	6013      	str	r3, [r2, #0]
 8003288:	4b08      	ldr	r3, [pc, #32]	; (80032ac <HAL_RCC_OscConfig+0x578>)
 800328a:	68db      	ldr	r3, [r3, #12]
 800328c:	4a07      	ldr	r2, [pc, #28]	; (80032ac <HAL_RCC_OscConfig+0x578>)
 800328e:	f023 0303 	bic.w	r3, r3, #3
 8003292:	60d3      	str	r3, [r2, #12]
 8003294:	4b05      	ldr	r3, [pc, #20]	; (80032ac <HAL_RCC_OscConfig+0x578>)
 8003296:	68db      	ldr	r3, [r3, #12]
 8003298:	4a04      	ldr	r2, [pc, #16]	; (80032ac <HAL_RCC_OscConfig+0x578>)
 800329a:	f023 7388 	bic.w	r3, r3, #17825792	; 0x1100000
 800329e:	f423 3380 	bic.w	r3, r3, #65536	; 0x10000
 80032a2:	60d3      	str	r3, [r2, #12]
 80032a4:	f7fe f864 	bl	8001370 <HAL_GetTick>
 80032a8:	6138      	str	r0, [r7, #16]
 80032aa:	e00e      	b.n	80032ca <HAL_RCC_OscConfig+0x596>
 80032ac:	40021000 	.word	0x40021000
 80032b0:	40007000 	.word	0x40007000
 80032b4:	019f800c 	.word	0x019f800c
 80032b8:	f7fe f85a 	bl	8001370 <HAL_GetTick>
 80032bc:	4602      	mov	r2, r0
 80032be:	693b      	ldr	r3, [r7, #16]
 80032c0:	1ad3      	subs	r3, r2, r3
 80032c2:	2b02      	cmp	r3, #2
 80032c4:	d901      	bls.n	80032ca <HAL_RCC_OscConfig+0x596>
 80032c6:	2303      	movs	r3, #3
 80032c8:	e046      	b.n	8003358 <HAL_RCC_OscConfig+0x624>
 80032ca:	4b25      	ldr	r3, [pc, #148]	; (8003360 <HAL_RCC_OscConfig+0x62c>)
 80032cc:	681b      	ldr	r3, [r3, #0]
 80032ce:	f003 7300 	and.w	r3, r3, #33554432	; 0x2000000
 80032d2:	2b00      	cmp	r3, #0
 80032d4:	d1f0      	bne.n	80032b8 <HAL_RCC_OscConfig+0x584>
 80032d6:	e03e      	b.n	8003356 <HAL_RCC_OscConfig+0x622>
 80032d8:	687b      	ldr	r3, [r7, #4]
 80032da:	69db      	ldr	r3, [r3, #28]
 80032dc:	2b01      	cmp	r3, #1
 80032de:	d101      	bne.n	80032e4 <HAL_RCC_OscConfig+0x5b0>
 80032e0:	2301      	movs	r3, #1
 80032e2:	e039      	b.n	8003358 <HAL_RCC_OscConfig+0x624>
 80032e4:	4b1e      	ldr	r3, [pc, #120]	; (8003360 <HAL_RCC_OscConfig+0x62c>)
 80032e6:	68db      	ldr	r3, [r3, #12]
 80032e8:	617b      	str	r3, [r7, #20]
 80032ea:	697b      	ldr	r3, [r7, #20]
 80032ec:	f003 0203 	and.w	r2, r3, #3
 80032f0:	687b      	ldr	r3, [r7, #4]
 80032f2:	6a1b      	ldr	r3, [r3, #32]
 80032f4:	429a      	cmp	r2, r3
 80032f6:	d12c      	bne.n	8003352 <HAL_RCC_OscConfig+0x61e>
 80032f8:	697b      	ldr	r3, [r7, #20]
 80032fa:	f003 02f0 	and.w	r2, r3, #240	; 0xf0
 80032fe:	687b      	ldr	r3, [r7, #4]
 8003300:	6a5b      	ldr	r3, [r3, #36]	; 0x24
 8003302:	3b01      	subs	r3, #1
 8003304:	011b      	lsls	r3, r3, #4
 8003306:	429a      	cmp	r2, r3
 8003308:	d123      	bne.n	8003352 <HAL_RCC_OscConfig+0x61e>
 800330a:	697b      	ldr	r3, [r7, #20]
 800330c:	f403 42fe 	and.w	r2, r3, #32512	; 0x7f00
 8003310:	687b      	ldr	r3, [r7, #4]
 8003312:	6a9b      	ldr	r3, [r3, #40]	; 0x28
 8003314:	021b      	lsls	r3, r3, #8
 8003316:	429a      	cmp	r2, r3
 8003318:	d11b      	bne.n	8003352 <HAL_RCC_OscConfig+0x61e>
 800331a:	697b      	ldr	r3, [r7, #20]
 800331c:	f003 4278 	and.w	r2, r3, #4160749568	; 0xf8000000
 8003320:	687b      	ldr	r3, [r7, #4]
 8003322:	6adb      	ldr	r3, [r3, #44]	; 0x2c
 8003324:	06db      	lsls	r3, r3, #27
 8003326:	429a      	cmp	r2, r3
 8003328:	d113      	bne.n	8003352 <HAL_RCC_OscConfig+0x61e>
 800332a:	697b      	ldr	r3, [r7, #20]
 800332c:	f403 02c0 	and.w	r2, r3, #6291456	; 0x600000
 8003330:	687b      	ldr	r3, [r7, #4]
 8003332:	6b1b      	ldr	r3, [r3, #48]	; 0x30
 8003334:	085b      	lsrs	r3, r3, #1
 8003336:	3b01      	subs	r3, #1
 8003338:	055b      	lsls	r3, r3, #21
 800333a:	429a      	cmp	r2, r3
 800333c:	d109      	bne.n	8003352 <HAL_RCC_OscConfig+0x61e>
 800333e:	697b      	ldr	r3, [r7, #20]
 8003340:	f003 62c0 	and.w	r2, r3, #100663296	; 0x6000000
 8003344:	687b      	ldr	r3, [r7, #4]
 8003346:	6b5b      	ldr	r3, [r3, #52]	; 0x34
 8003348:	085b      	lsrs	r3, r3, #1
 800334a:	3b01      	subs	r3, #1
 800334c:	065b      	lsls	r3, r3, #25
 800334e:	429a      	cmp	r2, r3
 8003350:	d001      	beq.n	8003356 <HAL_RCC_OscConfig+0x622>
 8003352:	2301      	movs	r3, #1
 8003354:	e000      	b.n	8003358 <HAL_RCC_OscConfig+0x624>
 8003356:	2300      	movs	r3, #0
 8003358:	4618      	mov	r0, r3
 800335a:	3720      	adds	r7, #32
 800335c:	46bd      	mov	sp, r7
 800335e:	bd80      	pop	{r7, pc}
 8003360:	40021000 	.word	0x40021000

08003364 <HAL_RCC_ClockConfig>:
 8003364:	b580      	push	{r7, lr}
 8003366:	b086      	sub	sp, #24
 8003368:	af00      	add	r7, sp, #0
 800336a:	6078      	str	r0, [r7, #4]
 800336c:	6039      	str	r1, [r7, #0]
 800336e:	2300      	movs	r3, #0
 8003370:	617b      	str	r3, [r7, #20]
 8003372:	687b      	ldr	r3, [r7, #4]
 8003374:	2b00      	cmp	r3, #0
 8003376:	d101      	bne.n	800337c <HAL_RCC_ClockConfig+0x18>
 8003378:	2301      	movs	r3, #1
 800337a:	e11e      	b.n	80035ba <HAL_RCC_ClockConfig+0x256>
 800337c:	4b91      	ldr	r3, [pc, #580]	; (80035c4 <HAL_RCC_ClockConfig+0x260>)
 800337e:	681b      	ldr	r3, [r3, #0]
 8003380:	f003 030f 	and.w	r3, r3, #15
 8003384:	683a      	ldr	r2, [r7, #0]
 8003386:	429a      	cmp	r2, r3
 8003388:	d910      	bls.n	80033ac <HAL_RCC_ClockConfig+0x48>
 800338a:	4b8e      	ldr	r3, [pc, #568]	; (80035c4 <HAL_RCC_ClockConfig+0x260>)
 800338c:	681b      	ldr	r3, [r3, #0]
 800338e:	f023 020f 	bic.w	r2, r3, #15
 8003392:	498c      	ldr	r1, [pc, #560]	; (80035c4 <HAL_RCC_ClockConfig+0x260>)
 8003394:	683b      	ldr	r3, [r7, #0]
 8003396:	4313      	orrs	r3, r2
 8003398:	600b      	str	r3, [r1, #0]
 800339a:	4b8a      	ldr	r3, [pc, #552]	; (80035c4 <HAL_RCC_ClockConfig+0x260>)
 800339c:	681b      	ldr	r3, [r3, #0]
 800339e:	f003 030f 	and.w	r3, r3, #15
 80033a2:	683a      	ldr	r2, [r7, #0]
 80033a4:	429a      	cmp	r2, r3
 80033a6:	d001      	beq.n	80033ac <HAL_RCC_ClockConfig+0x48>
 80033a8:	2301      	movs	r3, #1
 80033aa:	e106      	b.n	80035ba <HAL_RCC_ClockConfig+0x256>
 80033ac:	687b      	ldr	r3, [r7, #4]
 80033ae:	681b      	ldr	r3, [r3, #0]
 80033b0:	f003 0301 	and.w	r3, r3, #1
 80033b4:	2b00      	cmp	r3, #0
 80033b6:	d073      	beq.n	80034a0 <HAL_RCC_ClockConfig+0x13c>
 80033b8:	687b      	ldr	r3, [r7, #4]
 80033ba:	685b      	ldr	r3, [r3, #4]
 80033bc:	2b03      	cmp	r3, #3
 80033be:	d129      	bne.n	8003414 <HAL_RCC_ClockConfig+0xb0>
 80033c0:	4b81      	ldr	r3, [pc, #516]	; (80035c8 <HAL_RCC_ClockConfig+0x264>)
 80033c2:	681b      	ldr	r3, [r3, #0]
 80033c4:	f003 7300 	and.w	r3, r3, #33554432	; 0x2000000
 80033c8:	2b00      	cmp	r3, #0
 80033ca:	d101      	bne.n	80033d0 <HAL_RCC_ClockConfig+0x6c>
 80033cc:	2301      	movs	r3, #1
 80033ce:	e0f4      	b.n	80035ba <HAL_RCC_ClockConfig+0x256>
 80033d0:	f000 f964 	bl	800369c <RCC_GetSysClockFreqFromPLLSource>
 80033d4:	6138      	str	r0, [r7, #16]
 80033d6:	693b      	ldr	r3, [r7, #16]
 80033d8:	4a7c      	ldr	r2, [pc, #496]	; (80035cc <HAL_RCC_ClockConfig+0x268>)
 80033da:	4293      	cmp	r3, r2
 80033dc:	d93f      	bls.n	800345e <HAL_RCC_ClockConfig+0xfa>
 80033de:	4b7a      	ldr	r3, [pc, #488]	; (80035c8 <HAL_RCC_ClockConfig+0x264>)
 80033e0:	689b      	ldr	r3, [r3, #8]
 80033e2:	f003 03f0 	and.w	r3, r3, #240	; 0xf0
 80033e6:	2b00      	cmp	r3, #0
 80033e8:	d009      	beq.n	80033fe <HAL_RCC_ClockConfig+0x9a>
 80033ea:	687b      	ldr	r3, [r7, #4]
 80033ec:	681b      	ldr	r3, [r3, #0]
 80033ee:	f003 0302 	and.w	r3, r3, #2
 80033f2:	2b00      	cmp	r3, #0
 80033f4:	d033      	beq.n	800345e <HAL_RCC_ClockConfig+0xfa>
 80033f6:	687b      	ldr	r3, [r7, #4]
 80033f8:	689b      	ldr	r3, [r3, #8]
 80033fa:	2b00      	cmp	r3, #0
 80033fc:	d12f      	bne.n	800345e <HAL_RCC_ClockConfig+0xfa>
 80033fe:	4b72      	ldr	r3, [pc, #456]	; (80035c8 <HAL_RCC_ClockConfig+0x264>)
 8003400:	689b      	ldr	r3, [r3, #8]
 8003402:	f023 03f0 	bic.w	r3, r3, #240	; 0xf0
 8003406:	4a70      	ldr	r2, [pc, #448]	; (80035c8 <HAL_RCC_ClockConfig+0x264>)
 8003408:	f043 0380 	orr.w	r3, r3, #128	; 0x80
 800340c:	6093      	str	r3, [r2, #8]
 800340e:	2380      	movs	r3, #128	; 0x80
 8003410:	617b      	str	r3, [r7, #20]
 8003412:	e024      	b.n	800345e <HAL_RCC_ClockConfig+0xfa>
 8003414:	687b      	ldr	r3, [r7, #4]
 8003416:	685b      	ldr	r3, [r3, #4]
 8003418:	2b02      	cmp	r3, #2
 800341a:	d107      	bne.n	800342c <HAL_RCC_ClockConfig+0xc8>
 800341c:	4b6a      	ldr	r3, [pc, #424]	; (80035c8 <HAL_RCC_ClockConfig+0x264>)
 800341e:	681b      	ldr	r3, [r3, #0]
 8003420:	f403 3300 	and.w	r3, r3, #131072	; 0x20000
 8003424:	2b00      	cmp	r3, #0
 8003426:	d109      	bne.n	800343c <HAL_RCC_ClockConfig+0xd8>
 8003428:	2301      	movs	r3, #1
 800342a:	e0c6      	b.n	80035ba <HAL_RCC_ClockConfig+0x256>
 800342c:	4b66      	ldr	r3, [pc, #408]	; (80035c8 <HAL_RCC_ClockConfig+0x264>)
 800342e:	681b      	ldr	r3, [r3, #0]
 8003430:	f403 6380 	and.w	r3, r3, #1024	; 0x400
 8003434:	2b00      	cmp	r3, #0
 8003436:	d101      	bne.n	800343c <HAL_RCC_ClockConfig+0xd8>
 8003438:	2301      	movs	r3, #1
 800343a:	e0be      	b.n	80035ba <HAL_RCC_ClockConfig+0x256>
 800343c:	f000 f8ce 	bl	80035dc <HAL_RCC_GetSysClockFreq>
 8003440:	6138      	str	r0, [r7, #16]
 8003442:	693b      	ldr	r3, [r7, #16]
 8003444:	4a61      	ldr	r2, [pc, #388]	; (80035cc <HAL_RCC_ClockConfig+0x268>)
 8003446:	4293      	cmp	r3, r2
 8003448:	d909      	bls.n	800345e <HAL_RCC_ClockConfig+0xfa>
 800344a:	4b5f      	ldr	r3, [pc, #380]	; (80035c8 <HAL_RCC_ClockConfig+0x264>)
 800344c:	689b      	ldr	r3, [r3, #8]
 800344e:	f023 03f0 	bic.w	r3, r3, #240	; 0xf0
 8003452:	4a5d      	ldr	r2, [pc, #372]	; (80035c8 <HAL_RCC_ClockConfig+0x264>)
 8003454:	f043 0380 	orr.w	r3, r3, #128	; 0x80
 8003458:	6093      	str	r3, [r2, #8]
 800345a:	2380      	movs	r3, #128	; 0x80
 800345c:	617b      	str	r3, [r7, #20]
 800345e:	4b5a      	ldr	r3, [pc, #360]	; (80035c8 <HAL_RCC_ClockConfig+0x264>)
 8003460:	689b      	ldr	r3, [r3, #8]
 8003462:	f023 0203 	bic.w	r2, r3, #3
 8003466:	687b      	ldr	r3, [r7, #4]
 8003468:	685b      	ldr	r3, [r3, #4]
 800346a:	4957      	ldr	r1, [pc, #348]	; (80035c8 <HAL_RCC_ClockConfig+0x264>)
 800346c:	4313      	orrs	r3, r2
 800346e:	608b      	str	r3, [r1, #8]
 8003470:	f7fd ff7e 	bl	8001370 <HAL_GetTick>
 8003474:	60f8      	str	r0, [r7, #12]
 8003476:	e00a      	b.n	800348e <HAL_RCC_ClockConfig+0x12a>
 8003478:	f7fd ff7a 	bl	8001370 <HAL_GetTick>
 800347c:	4602      	mov	r2, r0
 800347e:	68fb      	ldr	r3, [r7, #12]
 8003480:	1ad3      	subs	r3, r2, r3
 8003482:	f241 3288 	movw	r2, #5000	; 0x1388
 8003486:	4293      	cmp	r3, r2
 8003488:	d901      	bls.n	800348e <HAL_RCC_ClockConfig+0x12a>
 800348a:	2303      	movs	r3, #3
 800348c:	e095      	b.n	80035ba <HAL_RCC_ClockConfig+0x256>
 800348e:	4b4e      	ldr	r3, [pc, #312]	; (80035c8 <HAL_RCC_ClockConfig+0x264>)
 8003490:	689b      	ldr	r3, [r3, #8]
 8003492:	f003 020c 	and.w	r2, r3, #12
 8003496:	687b      	ldr	r3, [r7, #4]
 8003498:	685b      	ldr	r3, [r3, #4]
 800349a:	009b      	lsls	r3, r3, #2
 800349c:	429a      	cmp	r2, r3
 800349e:	d1eb      	bne.n	8003478 <HAL_RCC_ClockConfig+0x114>
 80034a0:	687b      	ldr	r3, [r7, #4]
 80034a2:	681b      	ldr	r3, [r3, #0]
 80034a4:	f003 0302 	and.w	r3, r3, #2
 80034a8:	2b00      	cmp	r3, #0
 80034aa:	d023      	beq.n	80034f4 <HAL_RCC_ClockConfig+0x190>
 80034ac:	687b      	ldr	r3, [r7, #4]
 80034ae:	681b      	ldr	r3, [r3, #0]
 80034b0:	f003 0304 	and.w	r3, r3, #4
 80034b4:	2b00      	cmp	r3, #0
 80034b6:	d005      	beq.n	80034c4 <HAL_RCC_ClockConfig+0x160>
 80034b8:	4b43      	ldr	r3, [pc, #268]	; (80035c8 <HAL_RCC_ClockConfig+0x264>)
 80034ba:	689b      	ldr	r3, [r3, #8]
 80034bc:	4a42      	ldr	r2, [pc, #264]	; (80035c8 <HAL_RCC_ClockConfig+0x264>)
 80034be:	f443 63e0 	orr.w	r3, r3, #1792	; 0x700
 80034c2:	6093      	str	r3, [r2, #8]
 80034c4:	687b      	ldr	r3, [r7, #4]
 80034c6:	681b      	ldr	r3, [r3, #0]
 80034c8:	f003 0308 	and.w	r3, r3, #8
 80034cc:	2b00      	cmp	r3, #0
 80034ce:	d007      	beq.n	80034e0 <HAL_RCC_ClockConfig+0x17c>
 80034d0:	4b3d      	ldr	r3, [pc, #244]	; (80035c8 <HAL_RCC_ClockConfig+0x264>)
 80034d2:	689b      	ldr	r3, [r3, #8]
 80034d4:	f423 537c 	bic.w	r3, r3, #16128	; 0x3f00
 80034d8:	4a3b      	ldr	r2, [pc, #236]	; (80035c8 <HAL_RCC_ClockConfig+0x264>)
 80034da:	f443 63e0 	orr.w	r3, r3, #1792	; 0x700
 80034de:	6093      	str	r3, [r2, #8]
 80034e0:	4b39      	ldr	r3, [pc, #228]	; (80035c8 <HAL_RCC_ClockConfig+0x264>)
 80034e2:	689b      	ldr	r3, [r3, #8]
 80034e4:	f023 02f0 	bic.w	r2, r3, #240	; 0xf0
 80034e8:	687b      	ldr	r3, [r7, #4]
 80034ea:	689b      	ldr	r3, [r3, #8]
 80034ec:	4936      	ldr	r1, [pc, #216]	; (80035c8 <HAL_RCC_ClockConfig+0x264>)
 80034ee:	4313      	orrs	r3, r2
 80034f0:	608b      	str	r3, [r1, #8]
 80034f2:	e008      	b.n	8003506 <HAL_RCC_ClockConfig+0x1a2>
 80034f4:	697b      	ldr	r3, [r7, #20]
 80034f6:	2b80      	cmp	r3, #128	; 0x80
 80034f8:	d105      	bne.n	8003506 <HAL_RCC_ClockConfig+0x1a2>
 80034fa:	4b33      	ldr	r3, [pc, #204]	; (80035c8 <HAL_RCC_ClockConfig+0x264>)
 80034fc:	689b      	ldr	r3, [r3, #8]
 80034fe:	4a32      	ldr	r2, [pc, #200]	; (80035c8 <HAL_RCC_ClockConfig+0x264>)
 8003500:	f023 03f0 	bic.w	r3, r3, #240	; 0xf0
 8003504:	6093      	str	r3, [r2, #8]
 8003506:	4b2f      	ldr	r3, [pc, #188]	; (80035c4 <HAL_RCC_ClockConfig+0x260>)
 8003508:	681b      	ldr	r3, [r3, #0]
 800350a:	f003 030f 	and.w	r3, r3, #15
 800350e:	683a      	ldr	r2, [r7, #0]
 8003510:	429a      	cmp	r2, r3
 8003512:	d21d      	bcs.n	8003550 <HAL_RCC_ClockConfig+0x1ec>
 8003514:	4b2b      	ldr	r3, [pc, #172]	; (80035c4 <HAL_RCC_ClockConfig+0x260>)
 8003516:	681b      	ldr	r3, [r3, #0]
 8003518:	f023 020f 	bic.w	r2, r3, #15
 800351c:	4929      	ldr	r1, [pc, #164]	; (80035c4 <HAL_RCC_ClockConfig+0x260>)
 800351e:	683b      	ldr	r3, [r7, #0]
 8003520:	4313      	orrs	r3, r2
 8003522:	600b      	str	r3, [r1, #0]
 8003524:	f7fd ff24 	bl	8001370 <HAL_GetTick>
 8003528:	60f8      	str	r0, [r7, #12]
 800352a:	e00a      	b.n	8003542 <HAL_RCC_ClockConfig+0x1de>
 800352c:	f7fd ff20 	bl	8001370 <HAL_GetTick>
 8003530:	4602      	mov	r2, r0
 8003532:	68fb      	ldr	r3, [r7, #12]
 8003534:	1ad3      	subs	r3, r2, r3
 8003536:	f241 3288 	movw	r2, #5000	; 0x1388
 800353a:	4293      	cmp	r3, r2
 800353c:	d901      	bls.n	8003542 <HAL_RCC_ClockConfig+0x1de>
 800353e:	2303      	movs	r3, #3
 8003540:	e03b      	b.n	80035ba <HAL_RCC_ClockConfig+0x256>
 8003542:	4b20      	ldr	r3, [pc, #128]	; (80035c4 <HAL_RCC_ClockConfig+0x260>)
 8003544:	681b      	ldr	r3, [r3, #0]
 8003546:	f003 030f 	and.w	r3, r3, #15
 800354a:	683a      	ldr	r2, [r7, #0]
 800354c:	429a      	cmp	r2, r3
 800354e:	d1ed      	bne.n	800352c <HAL_RCC_ClockConfig+0x1c8>
 8003550:	687b      	ldr	r3, [r7, #4]
 8003552:	681b      	ldr	r3, [r3, #0]
 8003554:	f003 0304 	and.w	r3, r3, #4
 8003558:	2b00      	cmp	r3, #0
 800355a:	d008      	beq.n	800356e <HAL_RCC_ClockConfig+0x20a>
 800355c:	4b1a      	ldr	r3, [pc, #104]	; (80035c8 <HAL_RCC_ClockConfig+0x264>)
 800355e:	689b      	ldr	r3, [r3, #8]
 8003560:	f423 62e0 	bic.w	r2, r3, #1792	; 0x700
 8003564:	687b      	ldr	r3, [r7, #4]
 8003566:	68db      	ldr	r3, [r3, #12]
 8003568:	4917      	ldr	r1, [pc, #92]	; (80035c8 <HAL_RCC_ClockConfig+0x264>)
 800356a:	4313      	orrs	r3, r2
 800356c:	608b      	str	r3, [r1, #8]
 800356e:	687b      	ldr	r3, [r7, #4]
 8003570:	681b      	ldr	r3, [r3, #0]
 8003572:	f003 0308 	and.w	r3, r3, #8
 8003576:	2b00      	cmp	r3, #0
 8003578:	d009      	beq.n	800358e <HAL_RCC_ClockConfig+0x22a>
 800357a:	4b13      	ldr	r3, [pc, #76]	; (80035c8 <HAL_RCC_ClockConfig+0x264>)
 800357c:	689b      	ldr	r3, [r3, #8]
 800357e:	f423 5260 	bic.w	r2, r3, #14336	; 0x3800
 8003582:	687b      	ldr	r3, [r7, #4]
 8003584:	691b      	ldr	r3, [r3, #16]
 8003586:	00db      	lsls	r3, r3, #3
 8003588:	490f      	ldr	r1, [pc, #60]	; (80035c8 <HAL_RCC_ClockConfig+0x264>)
 800358a:	4313      	orrs	r3, r2
 800358c:	608b      	str	r3, [r1, #8]
 800358e:	f000 f825 	bl	80035dc <HAL_RCC_GetSysClockFreq>
 8003592:	4601      	mov	r1, r0
 8003594:	4b0c      	ldr	r3, [pc, #48]	; (80035c8 <HAL_RCC_ClockConfig+0x264>)
 8003596:	689b      	ldr	r3, [r3, #8]
 8003598:	091b      	lsrs	r3, r3, #4
 800359a:	f003 030f 	and.w	r3, r3, #15
 800359e:	4a0c      	ldr	r2, [pc, #48]	; (80035d0 <HAL_RCC_ClockConfig+0x26c>)
 80035a0:	5cd3      	ldrb	r3, [r2, r3]
 80035a2:	f003 031f 	and.w	r3, r3, #31
 80035a6:	fa21 f303 	lsr.w	r3, r1, r3
 80035aa:	4a0a      	ldr	r2, [pc, #40]	; (80035d4 <HAL_RCC_ClockConfig+0x270>)
 80035ac:	6013      	str	r3, [r2, #0]
 80035ae:	4b0a      	ldr	r3, [pc, #40]	; (80035d8 <HAL_RCC_ClockConfig+0x274>)
 80035b0:	681b      	ldr	r3, [r3, #0]
 80035b2:	4618      	mov	r0, r3
 80035b4:	f7fd fe90 	bl	80012d8 <HAL_InitTick>
 80035b8:	4603      	mov	r3, r0
 80035ba:	4618      	mov	r0, r3
 80035bc:	3718      	adds	r7, #24
 80035be:	46bd      	mov	sp, r7
 80035c0:	bd80      	pop	{r7, pc}
 80035c2:	bf00      	nop
 80035c4:	40022000 	.word	0x40022000
 80035c8:	40021000 	.word	0x40021000
 80035cc:	04c4b400 	.word	0x04c4b400
 80035d0:	08008288 	.word	0x08008288
 80035d4:	20000000 	.word	0x20000000
 80035d8:	20000004 	.word	0x20000004

080035dc <HAL_RCC_GetSysClockFreq>:
 80035dc:	b480      	push	{r7}
 80035de:	b087      	sub	sp, #28
 80035e0:	af00      	add	r7, sp, #0
 80035e2:	4b2c      	ldr	r3, [pc, #176]	; (8003694 <HAL_RCC_GetSysClockFreq+0xb8>)
 80035e4:	689b      	ldr	r3, [r3, #8]
 80035e6:	f003 030c 	and.w	r3, r3, #12
 80035ea:	2b04      	cmp	r3, #4
 80035ec:	d102      	bne.n	80035f4 <HAL_RCC_GetSysClockFreq+0x18>
 80035ee:	4b2a      	ldr	r3, [pc, #168]	; (8003698 <HAL_RCC_GetSysClockFreq+0xbc>)
 80035f0:	613b      	str	r3, [r7, #16]
 80035f2:	e047      	b.n	8003684 <HAL_RCC_GetSysClockFreq+0xa8>
 80035f4:	4b27      	ldr	r3, [pc, #156]	; (8003694 <HAL_RCC_GetSysClockFreq+0xb8>)
 80035f6:	689b      	ldr	r3, [r3, #8]
 80035f8:	f003 030c 	and.w	r3, r3, #12
 80035fc:	2b08      	cmp	r3, #8
 80035fe:	d102      	bne.n	8003606 <HAL_RCC_GetSysClockFreq+0x2a>
 8003600:	4b25      	ldr	r3, [pc, #148]	; (8003698 <HAL_RCC_GetSysClockFreq+0xbc>)
 8003602:	613b      	str	r3, [r7, #16]
 8003604:	e03e      	b.n	8003684 <HAL_RCC_GetSysClockFreq+0xa8>
 8003606:	4b23      	ldr	r3, [pc, #140]	; (8003694 <HAL_RCC_GetSysClockFreq+0xb8>)
 8003608:	689b      	ldr	r3, [r3, #8]
 800360a:	f003 030c 	and.w	r3, r3, #12
 800360e:	2b0c      	cmp	r3, #12
 8003610:	d136      	bne.n	8003680 <HAL_RCC_GetSysClockFreq+0xa4>
 8003612:	4b20      	ldr	r3, [pc, #128]	; (8003694 <HAL_RCC_GetSysClockFreq+0xb8>)
 8003614:	68db      	ldr	r3, [r3, #12]
 8003616:	f003 0303 	and.w	r3, r3, #3
 800361a:	60fb      	str	r3, [r7, #12]
 800361c:	4b1d      	ldr	r3, [pc, #116]	; (8003694 <HAL_RCC_GetSysClockFreq+0xb8>)
 800361e:	68db      	ldr	r3, [r3, #12]
 8003620:	091b      	lsrs	r3, r3, #4
 8003622:	f003 030f 	and.w	r3, r3, #15
 8003626:	3301      	adds	r3, #1
 8003628:	60bb      	str	r3, [r7, #8]
 800362a:	68fb      	ldr	r3, [r7, #12]
 800362c:	2b03      	cmp	r3, #3
 800362e:	d10c      	bne.n	800364a <HAL_RCC_GetSysClockFreq+0x6e>
 8003630:	4a19      	ldr	r2, [pc, #100]	; (8003698 <HAL_RCC_GetSysClockFreq+0xbc>)
 8003632:	68bb      	ldr	r3, [r7, #8]
 8003634:	fbb2 f3f3 	udiv	r3, r2, r3
 8003638:	4a16      	ldr	r2, [pc, #88]	; (8003694 <HAL_RCC_GetSysClockFreq+0xb8>)
 800363a:	68d2      	ldr	r2, [r2, #12]
 800363c:	0a12      	lsrs	r2, r2, #8
 800363e:	f002 027f 	and.w	r2, r2, #127	; 0x7f
 8003642:	fb02 f303 	mul.w	r3, r2, r3
 8003646:	617b      	str	r3, [r7, #20]
 8003648:	e00c      	b.n	8003664 <HAL_RCC_GetSysClockFreq+0x88>
 800364a:	4a13      	ldr	r2, [pc, #76]	; (8003698 <HAL_RCC_GetSysClockFreq+0xbc>)
 800364c:	68bb      	ldr	r3, [r7, #8]
 800364e:	fbb2 f3f3 	udiv	r3, r2, r3
 8003652:	4a10      	ldr	r2, [pc, #64]	; (8003694 <HAL_RCC_GetSysClockFreq+0xb8>)
 8003654:	68d2      	ldr	r2, [r2, #12]
 8003656:	0a12      	lsrs	r2, r2, #8
 8003658:	f002 027f 	and.w	r2, r2, #127	; 0x7f
 800365c:	fb02 f303 	mul.w	r3, r2, r3
 8003660:	617b      	str	r3, [r7, #20]
 8003662:	bf00      	nop
 8003664:	4b0b      	ldr	r3, [pc, #44]	; (8003694 <HAL_RCC_GetSysClockFreq+0xb8>)
 8003666:	68db      	ldr	r3, [r3, #12]
 8003668:	0e5b      	lsrs	r3, r3, #25
 800366a:	f003 0303 	and.w	r3, r3, #3
 800366e:	3301      	adds	r3, #1
 8003670:	005b      	lsls	r3, r3, #1
 8003672:	607b      	str	r3, [r7, #4]
 8003674:	697a      	ldr	r2, [r7, #20]
 8003676:	687b      	ldr	r3, [r7, #4]
 8003678:	fbb2 f3f3 	udiv	r3, r2, r3
 800367c:	613b      	str	r3, [r7, #16]
 800367e:	e001      	b.n	8003684 <HAL_RCC_GetSysClockFreq+0xa8>
 8003680:	2300      	movs	r3, #0
 8003682:	613b      	str	r3, [r7, #16]
 8003684:	693b      	ldr	r3, [r7, #16]
 8003686:	4618      	mov	r0, r3
 8003688:	371c      	adds	r7, #28
 800368a:	46bd      	mov	sp, r7
 800368c:	f85d 7b04 	ldr.w	r7, [sp], #4
 8003690:	4770      	bx	lr
 8003692:	bf00      	nop
 8003694:	40021000 	.word	0x40021000
 8003698:	00f42400 	.word	0x00f42400

0800369c <RCC_GetSysClockFreqFromPLLSource>:
 800369c:	b480      	push	{r7}
 800369e:	b087      	sub	sp, #28
 80036a0:	af00      	add	r7, sp, #0
 80036a2:	4b1e      	ldr	r3, [pc, #120]	; (800371c <RCC_GetSysClockFreqFromPLLSource+0x80>)
 80036a4:	68db      	ldr	r3, [r3, #12]
 80036a6:	f003 0303 	and.w	r3, r3, #3
 80036aa:	613b      	str	r3, [r7, #16]
 80036ac:	4b1b      	ldr	r3, [pc, #108]	; (800371c <RCC_GetSysClockFreqFromPLLSource+0x80>)
 80036ae:	68db      	ldr	r3, [r3, #12]
 80036b0:	091b      	lsrs	r3, r3, #4
 80036b2:	f003 030f 	and.w	r3, r3, #15
 80036b6:	3301      	adds	r3, #1
 80036b8:	60fb      	str	r3, [r7, #12]
 80036ba:	693b      	ldr	r3, [r7, #16]
 80036bc:	2b03      	cmp	r3, #3
 80036be:	d10c      	bne.n	80036da <RCC_GetSysClockFreqFromPLLSource+0x3e>
 80036c0:	4a17      	ldr	r2, [pc, #92]	; (8003720 <RCC_GetSysClockFreqFromPLLSource+0x84>)
 80036c2:	68fb      	ldr	r3, [r7, #12]
 80036c4:	fbb2 f3f3 	udiv	r3, r2, r3
 80036c8:	4a14      	ldr	r2, [pc, #80]	; (800371c <RCC_GetSysClockFreqFromPLLSource+0x80>)
 80036ca:	68d2      	ldr	r2, [r2, #12]
 80036cc:	0a12      	lsrs	r2, r2, #8
 80036ce:	f002 027f 	and.w	r2, r2, #127	; 0x7f
 80036d2:	fb02 f303 	mul.w	r3, r2, r3
 80036d6:	617b      	str	r3, [r7, #20]
 80036d8:	e00c      	b.n	80036f4 <RCC_GetSysClockFreqFromPLLSource+0x58>
 80036da:	4a11      	ldr	r2, [pc, #68]	; (8003720 <RCC_GetSysClockFreqFromPLLSource+0x84>)
 80036dc:	68fb      	ldr	r3, [r7, #12]
 80036de:	fbb2 f3f3 	udiv	r3, r2, r3
 80036e2:	4a0e      	ldr	r2, [pc, #56]	; (800371c <RCC_GetSysClockFreqFromPLLSource+0x80>)
 80036e4:	68d2      	ldr	r2, [r2, #12]
 80036e6:	0a12      	lsrs	r2, r2, #8
 80036e8:	f002 027f 	and.w	r2, r2, #127	; 0x7f
 80036ec:	fb02 f303 	mul.w	r3, r2, r3
 80036f0:	617b      	str	r3, [r7, #20]
 80036f2:	bf00      	nop
 80036f4:	4b09      	ldr	r3, [pc, #36]	; (800371c <RCC_GetSysClockFreqFromPLLSource+0x80>)
 80036f6:	68db      	ldr	r3, [r3, #12]
 80036f8:	0e5b      	lsrs	r3, r3, #25
 80036fa:	f003 0303 	and.w	r3, r3, #3
 80036fe:	3301      	adds	r3, #1
 8003700:	005b      	lsls	r3, r3, #1
 8003702:	60bb      	str	r3, [r7, #8]
 8003704:	697a      	ldr	r2, [r7, #20]
 8003706:	68bb      	ldr	r3, [r7, #8]
 8003708:	fbb2 f3f3 	udiv	r3, r2, r3
 800370c:	607b      	str	r3, [r7, #4]
 800370e:	687b      	ldr	r3, [r7, #4]
 8003710:	4618      	mov	r0, r3
 8003712:	371c      	adds	r7, #28
 8003714:	46bd      	mov	sp, r7
 8003716:	f85d 7b04 	ldr.w	r7, [sp], #4
 800371a:	4770      	bx	lr
 800371c:	40021000 	.word	0x40021000
 8003720:	00f42400 	.word	0x00f42400

08003724 <HAL_RCCEx_PeriphCLKConfig>:
 8003724:	b580      	push	{r7, lr}
 8003726:	b086      	sub	sp, #24
 8003728:	af00      	add	r7, sp, #0
 800372a:	6078      	str	r0, [r7, #4]
 800372c:	2300      	movs	r3, #0
 800372e:	74fb      	strb	r3, [r7, #19]
 8003730:	2300      	movs	r3, #0
 8003732:	74bb      	strb	r3, [r7, #18]
 8003734:	687b      	ldr	r3, [r7, #4]
 8003736:	681b      	ldr	r3, [r3, #0]
 8003738:	f403 2300 	and.w	r3, r3, #524288	; 0x80000
 800373c:	2b00      	cmp	r3, #0
 800373e:	f000 8098 	beq.w	8003872 <HAL_RCCEx_PeriphCLKConfig+0x14e>
 8003742:	2300      	movs	r3, #0
 8003744:	747b      	strb	r3, [r7, #17]
 8003746:	4b43      	ldr	r3, [pc, #268]	; (8003854 <HAL_RCCEx_PeriphCLKConfig+0x130>)
 8003748:	6d9b      	ldr	r3, [r3, #88]	; 0x58
 800374a:	f003 5380 	and.w	r3, r3, #268435456	; 0x10000000
 800374e:	2b00      	cmp	r3, #0
 8003750:	d10d      	bne.n	800376e <HAL_RCCEx_PeriphCLKConfig+0x4a>
 8003752:	4b40      	ldr	r3, [pc, #256]	; (8003854 <HAL_RCCEx_PeriphCLKConfig+0x130>)
 8003754:	6d9b      	ldr	r3, [r3, #88]	; 0x58
 8003756:	4a3f      	ldr	r2, [pc, #252]	; (8003854 <HAL_RCCEx_PeriphCLKConfig+0x130>)
 8003758:	f043 5380 	orr.w	r3, r3, #268435456	; 0x10000000
 800375c:	6593      	str	r3, [r2, #88]	; 0x58
 800375e:	4b3d      	ldr	r3, [pc, #244]	; (8003854 <HAL_RCCEx_PeriphCLKConfig+0x130>)
 8003760:	6d9b      	ldr	r3, [r3, #88]	; 0x58
 8003762:	f003 5380 	and.w	r3, r3, #268435456	; 0x10000000
 8003766:	60bb      	str	r3, [r7, #8]
 8003768:	68bb      	ldr	r3, [r7, #8]
 800376a:	2301      	movs	r3, #1
 800376c:	747b      	strb	r3, [r7, #17]
 800376e:	4b3a      	ldr	r3, [pc, #232]	; (8003858 <HAL_RCCEx_PeriphCLKConfig+0x134>)
 8003770:	681b      	ldr	r3, [r3, #0]
 8003772:	4a39      	ldr	r2, [pc, #228]	; (8003858 <HAL_RCCEx_PeriphCLKConfig+0x134>)
 8003774:	f443 7380 	orr.w	r3, r3, #256	; 0x100
 8003778:	6013      	str	r3, [r2, #0]
 800377a:	f7fd fdf9 	bl	8001370 <HAL_GetTick>
 800377e:	60f8      	str	r0, [r7, #12]
 8003780:	e009      	b.n	8003796 <HAL_RCCEx_PeriphCLKConfig+0x72>
 8003782:	f7fd fdf5 	bl	8001370 <HAL_GetTick>
 8003786:	4602      	mov	r2, r0
 8003788:	68fb      	ldr	r3, [r7, #12]
 800378a:	1ad3      	subs	r3, r2, r3
 800378c:	2b02      	cmp	r3, #2
 800378e:	d902      	bls.n	8003796 <HAL_RCCEx_PeriphCLKConfig+0x72>
 8003790:	2303      	movs	r3, #3
 8003792:	74fb      	strb	r3, [r7, #19]
 8003794:	e005      	b.n	80037a2 <HAL_RCCEx_PeriphCLKConfig+0x7e>
 8003796:	4b30      	ldr	r3, [pc, #192]	; (8003858 <HAL_RCCEx_PeriphCLKConfig+0x134>)
 8003798:	681b      	ldr	r3, [r3, #0]
 800379a:	f403 7380 	and.w	r3, r3, #256	; 0x100
 800379e:	2b00      	cmp	r3, #0
 80037a0:	d0ef      	beq.n	8003782 <HAL_RCCEx_PeriphCLKConfig+0x5e>
 80037a2:	7cfb      	ldrb	r3, [r7, #19]
 80037a4:	2b00      	cmp	r3, #0
 80037a6:	d159      	bne.n	800385c <HAL_RCCEx_PeriphCLKConfig+0x138>
 80037a8:	4b2a      	ldr	r3, [pc, #168]	; (8003854 <HAL_RCCEx_PeriphCLKConfig+0x130>)
 80037aa:	f8d3 3090 	ldr.w	r3, [r3, #144]	; 0x90
 80037ae:	f403 7340 	and.w	r3, r3, #768	; 0x300
 80037b2:	617b      	str	r3, [r7, #20]
 80037b4:	697b      	ldr	r3, [r7, #20]
 80037b6:	2b00      	cmp	r3, #0
 80037b8:	d01e      	beq.n	80037f8 <HAL_RCCEx_PeriphCLKConfig+0xd4>
 80037ba:	687b      	ldr	r3, [r7, #4]
 80037bc:	6c1b      	ldr	r3, [r3, #64]	; 0x40
 80037be:	697a      	ldr	r2, [r7, #20]
 80037c0:	429a      	cmp	r2, r3
 80037c2:	d019      	beq.n	80037f8 <HAL_RCCEx_PeriphCLKConfig+0xd4>
 80037c4:	4b23      	ldr	r3, [pc, #140]	; (8003854 <HAL_RCCEx_PeriphCLKConfig+0x130>)
 80037c6:	f8d3 3090 	ldr.w	r3, [r3, #144]	; 0x90
 80037ca:	f423 7340 	bic.w	r3, r3, #768	; 0x300
 80037ce:	617b      	str	r3, [r7, #20]
 80037d0:	4b20      	ldr	r3, [pc, #128]	; (8003854 <HAL_RCCEx_PeriphCLKConfig+0x130>)
 80037d2:	f8d3 3090 	ldr.w	r3, [r3, #144]	; 0x90
 80037d6:	4a1f      	ldr	r2, [pc, #124]	; (8003854 <HAL_RCCEx_PeriphCLKConfig+0x130>)
 80037d8:	f443 3380 	orr.w	r3, r3, #65536	; 0x10000
 80037dc:	f8c2 3090 	str.w	r3, [r2, #144]	; 0x90
 80037e0:	4b1c      	ldr	r3, [pc, #112]	; (8003854 <HAL_RCCEx_PeriphCLKConfig+0x130>)
 80037e2:	f8d3 3090 	ldr.w	r3, [r3, #144]	; 0x90
 80037e6:	4a1b      	ldr	r2, [pc, #108]	; (8003854 <HAL_RCCEx_PeriphCLKConfig+0x130>)
 80037e8:	f423 3380 	bic.w	r3, r3, #65536	; 0x10000
 80037ec:	f8c2 3090 	str.w	r3, [r2, #144]	; 0x90
 80037f0:	4a18      	ldr	r2, [pc, #96]	; (8003854 <HAL_RCCEx_PeriphCLKConfig+0x130>)
 80037f2:	697b      	ldr	r3, [r7, #20]
 80037f4:	f8c2 3090 	str.w	r3, [r2, #144]	; 0x90
 80037f8:	697b      	ldr	r3, [r7, #20]
 80037fa:	f003 0301 	and.w	r3, r3, #1
 80037fe:	2b00      	cmp	r3, #0
 8003800:	d016      	beq.n	8003830 <HAL_RCCEx_PeriphCLKConfig+0x10c>
 8003802:	f7fd fdb5 	bl	8001370 <HAL_GetTick>
 8003806:	60f8      	str	r0, [r7, #12]
 8003808:	e00b      	b.n	8003822 <HAL_RCCEx_PeriphCLKConfig+0xfe>
 800380a:	f7fd fdb1 	bl	8001370 <HAL_GetTick>
 800380e:	4602      	mov	r2, r0
 8003810:	68fb      	ldr	r3, [r7, #12]
 8003812:	1ad3      	subs	r3, r2, r3
 8003814:	f241 3288 	movw	r2, #5000	; 0x1388
 8003818:	4293      	cmp	r3, r2
 800381a:	d902      	bls.n	8003822 <HAL_RCCEx_PeriphCLKConfig+0xfe>
 800381c:	2303      	movs	r3, #3
 800381e:	74fb      	strb	r3, [r7, #19]
 8003820:	e006      	b.n	8003830 <HAL_RCCEx_PeriphCLKConfig+0x10c>
 8003822:	4b0c      	ldr	r3, [pc, #48]	; (8003854 <HAL_RCCEx_PeriphCLKConfig+0x130>)
 8003824:	f8d3 3090 	ldr.w	r3, [r3, #144]	; 0x90
 8003828:	f003 0302 	and.w	r3, r3, #2
 800382c:	2b00      	cmp	r3, #0
 800382e:	d0ec      	beq.n	800380a <HAL_RCCEx_PeriphCLKConfig+0xe6>
 8003830:	7cfb      	ldrb	r3, [r7, #19]
 8003832:	2b00      	cmp	r3, #0
 8003834:	d10b      	bne.n	800384e <HAL_RCCEx_PeriphCLKConfig+0x12a>
 8003836:	4b07      	ldr	r3, [pc, #28]	; (8003854 <HAL_RCCEx_PeriphCLKConfig+0x130>)
 8003838:	f8d3 3090 	ldr.w	r3, [r3, #144]	; 0x90
 800383c:	f423 7240 	bic.w	r2, r3, #768	; 0x300
 8003840:	687b      	ldr	r3, [r7, #4]
 8003842:	6c1b      	ldr	r3, [r3, #64]	; 0x40
 8003844:	4903      	ldr	r1, [pc, #12]	; (8003854 <HAL_RCCEx_PeriphCLKConfig+0x130>)
 8003846:	4313      	orrs	r3, r2
 8003848:	f8c1 3090 	str.w	r3, [r1, #144]	; 0x90
 800384c:	e008      	b.n	8003860 <HAL_RCCEx_PeriphCLKConfig+0x13c>
 800384e:	7cfb      	ldrb	r3, [r7, #19]
 8003850:	74bb      	strb	r3, [r7, #18]
 8003852:	e005      	b.n	8003860 <HAL_RCCEx_PeriphCLKConfig+0x13c>
 8003854:	40021000 	.word	0x40021000
 8003858:	40007000 	.word	0x40007000
 800385c:	7cfb      	ldrb	r3, [r7, #19]
 800385e:	74bb      	strb	r3, [r7, #18]
 8003860:	7c7b      	ldrb	r3, [r7, #17]
 8003862:	2b01      	cmp	r3, #1
 8003864:	d105      	bne.n	8003872 <HAL_RCCEx_PeriphCLKConfig+0x14e>
 8003866:	4ba6      	ldr	r3, [pc, #664]	; (8003b00 <HAL_RCCEx_PeriphCLKConfig+0x3dc>)
 8003868:	6d9b      	ldr	r3, [r3, #88]	; 0x58
 800386a:	4aa5      	ldr	r2, [pc, #660]	; (8003b00 <HAL_RCCEx_PeriphCLKConfig+0x3dc>)
 800386c:	f023 5380 	bic.w	r3, r3, #268435456	; 0x10000000
 8003870:	6593      	str	r3, [r2, #88]	; 0x58
 8003872:	687b      	ldr	r3, [r7, #4]
 8003874:	681b      	ldr	r3, [r3, #0]
 8003876:	f003 0301 	and.w	r3, r3, #1
 800387a:	2b00      	cmp	r3, #0
 800387c:	d00a      	beq.n	8003894 <HAL_RCCEx_PeriphCLKConfig+0x170>
 800387e:	4ba0      	ldr	r3, [pc, #640]	; (8003b00 <HAL_RCCEx_PeriphCLKConfig+0x3dc>)
 8003880:	f8d3 3088 	ldr.w	r3, [r3, #136]	; 0x88
 8003884:	f023 0203 	bic.w	r2, r3, #3
 8003888:	687b      	ldr	r3, [r7, #4]
 800388a:	685b      	ldr	r3, [r3, #4]
 800388c:	499c      	ldr	r1, [pc, #624]	; (8003b00 <HAL_RCCEx_PeriphCLKConfig+0x3dc>)
 800388e:	4313      	orrs	r3, r2
 8003890:	f8c1 3088 	str.w	r3, [r1, #136]	; 0x88
 8003894:	687b      	ldr	r3, [r7, #4]
 8003896:	681b      	ldr	r3, [r3, #0]
 8003898:	f003 0302 	and.w	r3, r3, #2
 800389c:	2b00      	cmp	r3, #0
 800389e:	d00a      	beq.n	80038b6 <HAL_RCCEx_PeriphCLKConfig+0x192>
 80038a0:	4b97      	ldr	r3, [pc, #604]	; (8003b00 <HAL_RCCEx_PeriphCLKConfig+0x3dc>)
 80038a2:	f8d3 3088 	ldr.w	r3, [r3, #136]	; 0x88
 80038a6:	f023 020c 	bic.w	r2, r3, #12
 80038aa:	687b      	ldr	r3, [r7, #4]
 80038ac:	689b      	ldr	r3, [r3, #8]
 80038ae:	4994      	ldr	r1, [pc, #592]	; (8003b00 <HAL_RCCEx_PeriphCLKConfig+0x3dc>)
 80038b0:	4313      	orrs	r3, r2
 80038b2:	f8c1 3088 	str.w	r3, [r1, #136]	; 0x88
 80038b6:	687b      	ldr	r3, [r7, #4]
 80038b8:	681b      	ldr	r3, [r3, #0]
 80038ba:	f003 0304 	and.w	r3, r3, #4
 80038be:	2b00      	cmp	r3, #0
 80038c0:	d00a      	beq.n	80038d8 <HAL_RCCEx_PeriphCLKConfig+0x1b4>
 80038c2:	4b8f      	ldr	r3, [pc, #572]	; (8003b00 <HAL_RCCEx_PeriphCLKConfig+0x3dc>)
 80038c4:	f8d3 3088 	ldr.w	r3, [r3, #136]	; 0x88
 80038c8:	f023 0230 	bic.w	r2, r3, #48	; 0x30
 80038cc:	687b      	ldr	r3, [r7, #4]
 80038ce:	68db      	ldr	r3, [r3, #12]
 80038d0:	498b      	ldr	r1, [pc, #556]	; (8003b00 <HAL_RCCEx_PeriphCLKConfig+0x3dc>)
 80038d2:	4313      	orrs	r3, r2
 80038d4:	f8c1 3088 	str.w	r3, [r1, #136]	; 0x88
 80038d8:	687b      	ldr	r3, [r7, #4]
 80038da:	681b      	ldr	r3, [r3, #0]
 80038dc:	f003 0308 	and.w	r3, r3, #8
 80038e0:	2b00      	cmp	r3, #0
 80038e2:	d00a      	beq.n	80038fa <HAL_RCCEx_PeriphCLKConfig+0x1d6>
 80038e4:	4b86      	ldr	r3, [pc, #536]	; (8003b00 <HAL_RCCEx_PeriphCLKConfig+0x3dc>)
 80038e6:	f8d3 3088 	ldr.w	r3, [r3, #136]	; 0x88
 80038ea:	f023 02c0 	bic.w	r2, r3, #192	; 0xc0
 80038ee:	687b      	ldr	r3, [r7, #4]
 80038f0:	691b      	ldr	r3, [r3, #16]
 80038f2:	4983      	ldr	r1, [pc, #524]	; (8003b00 <HAL_RCCEx_PeriphCLKConfig+0x3dc>)
 80038f4:	4313      	orrs	r3, r2
 80038f6:	f8c1 3088 	str.w	r3, [r1, #136]	; 0x88
 80038fa:	687b      	ldr	r3, [r7, #4]
 80038fc:	681b      	ldr	r3, [r3, #0]
 80038fe:	f003 0320 	and.w	r3, r3, #32
 8003902:	2b00      	cmp	r3, #0
 8003904:	d00a      	beq.n	800391c <HAL_RCCEx_PeriphCLKConfig+0x1f8>
 8003906:	4b7e      	ldr	r3, [pc, #504]	; (8003b00 <HAL_RCCEx_PeriphCLKConfig+0x3dc>)
 8003908:	f8d3 3088 	ldr.w	r3, [r3, #136]	; 0x88
 800390c:	f423 6240 	bic.w	r2, r3, #3072	; 0xc00
 8003910:	687b      	ldr	r3, [r7, #4]
 8003912:	695b      	ldr	r3, [r3, #20]
 8003914:	497a      	ldr	r1, [pc, #488]	; (8003b00 <HAL_RCCEx_PeriphCLKConfig+0x3dc>)
 8003916:	4313      	orrs	r3, r2
 8003918:	f8c1 3088 	str.w	r3, [r1, #136]	; 0x88
 800391c:	687b      	ldr	r3, [r7, #4]
 800391e:	681b      	ldr	r3, [r3, #0]
 8003920:	f003 0340 	and.w	r3, r3, #64	; 0x40
 8003924:	2b00      	cmp	r3, #0
 8003926:	d00a      	beq.n	800393e <HAL_RCCEx_PeriphCLKConfig+0x21a>
 8003928:	4b75      	ldr	r3, [pc, #468]	; (8003b00 <HAL_RCCEx_PeriphCLKConfig+0x3dc>)
 800392a:	f8d3 3088 	ldr.w	r3, [r3, #136]	; 0x88
 800392e:	f423 5240 	bic.w	r2, r3, #12288	; 0x3000
 8003932:	687b      	ldr	r3, [r7, #4]
 8003934:	699b      	ldr	r3, [r3, #24]
 8003936:	4972      	ldr	r1, [pc, #456]	; (8003b00 <HAL_RCCEx_PeriphCLKConfig+0x3dc>)
 8003938:	4313      	orrs	r3, r2
 800393a:	f8c1 3088 	str.w	r3, [r1, #136]	; 0x88
 800393e:	687b      	ldr	r3, [r7, #4]
 8003940:	681b      	ldr	r3, [r3, #0]
 8003942:	f003 0380 	and.w	r3, r3, #128	; 0x80
 8003946:	2b00      	cmp	r3, #0
 8003948:	d00a      	beq.n	8003960 <HAL_RCCEx_PeriphCLKConfig+0x23c>
 800394a:	4b6d      	ldr	r3, [pc, #436]	; (8003b00 <HAL_RCCEx_PeriphCLKConfig+0x3dc>)
 800394c:	f8d3 3088 	ldr.w	r3, [r3, #136]	; 0x88
 8003950:	f423 4240 	bic.w	r2, r3, #49152	; 0xc000
 8003954:	687b      	ldr	r3, [r7, #4]
 8003956:	69db      	ldr	r3, [r3, #28]
 8003958:	4969      	ldr	r1, [pc, #420]	; (8003b00 <HAL_RCCEx_PeriphCLKConfig+0x3dc>)
 800395a:	4313      	orrs	r3, r2
 800395c:	f8c1 3088 	str.w	r3, [r1, #136]	; 0x88
 8003960:	687b      	ldr	r3, [r7, #4]
 8003962:	681b      	ldr	r3, [r3, #0]
 8003964:	f403 7380 	and.w	r3, r3, #256	; 0x100
 8003968:	2b00      	cmp	r3, #0
 800396a:	d00a      	beq.n	8003982 <HAL_RCCEx_PeriphCLKConfig+0x25e>
 800396c:	4b64      	ldr	r3, [pc, #400]	; (8003b00 <HAL_RCCEx_PeriphCLKConfig+0x3dc>)
 800396e:	f8d3 3088 	ldr.w	r3, [r3, #136]	; 0x88
 8003972:	f423 3240 	bic.w	r2, r3, #196608	; 0x30000
 8003976:	687b      	ldr	r3, [r7, #4]
 8003978:	6a1b      	ldr	r3, [r3, #32]
 800397a:	4961      	ldr	r1, [pc, #388]	; (8003b00 <HAL_RCCEx_PeriphCLKConfig+0x3dc>)
 800397c:	4313      	orrs	r3, r2
 800397e:	f8c1 3088 	str.w	r3, [r1, #136]	; 0x88
 8003982:	687b      	ldr	r3, [r7, #4]
 8003984:	681b      	ldr	r3, [r3, #0]
 8003986:	f403 7300 	and.w	r3, r3, #512	; 0x200
 800398a:	2b00      	cmp	r3, #0
 800398c:	d00a      	beq.n	80039a4 <HAL_RCCEx_PeriphCLKConfig+0x280>
 800398e:	4b5c      	ldr	r3, [pc, #368]	; (8003b00 <HAL_RCCEx_PeriphCLKConfig+0x3dc>)
 8003990:	f8d3 3088 	ldr.w	r3, [r3, #136]	; 0x88
 8003994:	f423 2240 	bic.w	r2, r3, #786432	; 0xc0000
 8003998:	687b      	ldr	r3, [r7, #4]
 800399a:	6a5b      	ldr	r3, [r3, #36]	; 0x24
 800399c:	4958      	ldr	r1, [pc, #352]	; (8003b00 <HAL_RCCEx_PeriphCLKConfig+0x3dc>)
 800399e:	4313      	orrs	r3, r2
 80039a0:	f8c1 3088 	str.w	r3, [r1, #136]	; 0x88
 80039a4:	687b      	ldr	r3, [r7, #4]
 80039a6:	681b      	ldr	r3, [r3, #0]
 80039a8:	f403 6380 	and.w	r3, r3, #1024	; 0x400
 80039ac:	2b00      	cmp	r3, #0
 80039ae:	d015      	beq.n	80039dc <HAL_RCCEx_PeriphCLKConfig+0x2b8>
 80039b0:	4b53      	ldr	r3, [pc, #332]	; (8003b00 <HAL_RCCEx_PeriphCLKConfig+0x3dc>)
 80039b2:	f8d3 3088 	ldr.w	r3, [r3, #136]	; 0x88
 80039b6:	f423 1240 	bic.w	r2, r3, #3145728	; 0x300000
 80039ba:	687b      	ldr	r3, [r7, #4]
 80039bc:	6a9b      	ldr	r3, [r3, #40]	; 0x28
 80039be:	4950      	ldr	r1, [pc, #320]	; (8003b00 <HAL_RCCEx_PeriphCLKConfig+0x3dc>)
 80039c0:	4313      	orrs	r3, r2
 80039c2:	f8c1 3088 	str.w	r3, [r1, #136]	; 0x88
 80039c6:	687b      	ldr	r3, [r7, #4]
 80039c8:	6a9b      	ldr	r3, [r3, #40]	; 0x28
 80039ca:	f5b3 1f80 	cmp.w	r3, #1048576	; 0x100000
 80039ce:	d105      	bne.n	80039dc <HAL_RCCEx_PeriphCLKConfig+0x2b8>
 80039d0:	4b4b      	ldr	r3, [pc, #300]	; (8003b00 <HAL_RCCEx_PeriphCLKConfig+0x3dc>)
 80039d2:	68db      	ldr	r3, [r3, #12]
 80039d4:	4a4a      	ldr	r2, [pc, #296]	; (8003b00 <HAL_RCCEx_PeriphCLKConfig+0x3dc>)
 80039d6:	f443 1380 	orr.w	r3, r3, #1048576	; 0x100000
 80039da:	60d3      	str	r3, [r2, #12]
 80039dc:	687b      	ldr	r3, [r7, #4]
 80039de:	681b      	ldr	r3, [r3, #0]
 80039e0:	f403 6300 	and.w	r3, r3, #2048	; 0x800
 80039e4:	2b00      	cmp	r3, #0
 80039e6:	d015      	beq.n	8003a14 <HAL_RCCEx_PeriphCLKConfig+0x2f0>
 80039e8:	4b45      	ldr	r3, [pc, #276]	; (8003b00 <HAL_RCCEx_PeriphCLKConfig+0x3dc>)
 80039ea:	f8d3 3088 	ldr.w	r3, [r3, #136]	; 0x88
 80039ee:	f423 0240 	bic.w	r2, r3, #12582912	; 0xc00000
 80039f2:	687b      	ldr	r3, [r7, #4]
 80039f4:	6adb      	ldr	r3, [r3, #44]	; 0x2c
 80039f6:	4942      	ldr	r1, [pc, #264]	; (8003b00 <HAL_RCCEx_PeriphCLKConfig+0x3dc>)
 80039f8:	4313      	orrs	r3, r2
 80039fa:	f8c1 3088 	str.w	r3, [r1, #136]	; 0x88
 80039fe:	687b      	ldr	r3, [r7, #4]
 8003a00:	6adb      	ldr	r3, [r3, #44]	; 0x2c
 8003a02:	f5b3 0f80 	cmp.w	r3, #4194304	; 0x400000
 8003a06:	d105      	bne.n	8003a14 <HAL_RCCEx_PeriphCLKConfig+0x2f0>
 8003a08:	4b3d      	ldr	r3, [pc, #244]	; (8003b00 <HAL_RCCEx_PeriphCLKConfig+0x3dc>)
 8003a0a:	68db      	ldr	r3, [r3, #12]
 8003a0c:	4a3c      	ldr	r2, [pc, #240]	; (8003b00 <HAL_RCCEx_PeriphCLKConfig+0x3dc>)
 8003a0e:	f443 1380 	orr.w	r3, r3, #1048576	; 0x100000
 8003a12:	60d3      	str	r3, [r2, #12]
 8003a14:	687b      	ldr	r3, [r7, #4]
 8003a16:	681b      	ldr	r3, [r3, #0]
 8003a18:	f403 5380 	and.w	r3, r3, #4096	; 0x1000
 8003a1c:	2b00      	cmp	r3, #0
 8003a1e:	d015      	beq.n	8003a4c <HAL_RCCEx_PeriphCLKConfig+0x328>
 8003a20:	4b37      	ldr	r3, [pc, #220]	; (8003b00 <HAL_RCCEx_PeriphCLKConfig+0x3dc>)
 8003a22:	f8d3 3088 	ldr.w	r3, [r3, #136]	; 0x88
 8003a26:	f023 7240 	bic.w	r2, r3, #50331648	; 0x3000000
 8003a2a:	687b      	ldr	r3, [r7, #4]
 8003a2c:	6b1b      	ldr	r3, [r3, #48]	; 0x30
 8003a2e:	4934      	ldr	r1, [pc, #208]	; (8003b00 <HAL_RCCEx_PeriphCLKConfig+0x3dc>)
 8003a30:	4313      	orrs	r3, r2
 8003a32:	f8c1 3088 	str.w	r3, [r1, #136]	; 0x88
 8003a36:	687b      	ldr	r3, [r7, #4]
 8003a38:	6b1b      	ldr	r3, [r3, #48]	; 0x30
 8003a3a:	f1b3 7f80 	cmp.w	r3, #16777216	; 0x1000000
 8003a3e:	d105      	bne.n	8003a4c <HAL_RCCEx_PeriphCLKConfig+0x328>
 8003a40:	4b2f      	ldr	r3, [pc, #188]	; (8003b00 <HAL_RCCEx_PeriphCLKConfig+0x3dc>)
 8003a42:	68db      	ldr	r3, [r3, #12]
 8003a44:	4a2e      	ldr	r2, [pc, #184]	; (8003b00 <HAL_RCCEx_PeriphCLKConfig+0x3dc>)
 8003a46:	f443 1380 	orr.w	r3, r3, #1048576	; 0x100000
 8003a4a:	60d3      	str	r3, [r2, #12]
 8003a4c:	687b      	ldr	r3, [r7, #4]
 8003a4e:	681b      	ldr	r3, [r3, #0]
 8003a50:	f403 5300 	and.w	r3, r3, #8192	; 0x2000
 8003a54:	2b00      	cmp	r3, #0
 8003a56:	d015      	beq.n	8003a84 <HAL_RCCEx_PeriphCLKConfig+0x360>
 8003a58:	4b29      	ldr	r3, [pc, #164]	; (8003b00 <HAL_RCCEx_PeriphCLKConfig+0x3dc>)
 8003a5a:	f8d3 3088 	ldr.w	r3, [r3, #136]	; 0x88
 8003a5e:	f023 6240 	bic.w	r2, r3, #201326592	; 0xc000000
 8003a62:	687b      	ldr	r3, [r7, #4]
 8003a64:	6b5b      	ldr	r3, [r3, #52]	; 0x34
 8003a66:	4926      	ldr	r1, [pc, #152]	; (8003b00 <HAL_RCCEx_PeriphCLKConfig+0x3dc>)
 8003a68:	4313      	orrs	r3, r2
 8003a6a:	f8c1 3088 	str.w	r3, [r1, #136]	; 0x88
 8003a6e:	687b      	ldr	r3, [r7, #4]
 8003a70:	6b5b      	ldr	r3, [r3, #52]	; 0x34
 8003a72:	f1b3 6f00 	cmp.w	r3, #134217728	; 0x8000000
 8003a76:	d105      	bne.n	8003a84 <HAL_RCCEx_PeriphCLKConfig+0x360>
 8003a78:	4b21      	ldr	r3, [pc, #132]	; (8003b00 <HAL_RCCEx_PeriphCLKConfig+0x3dc>)
 8003a7a:	68db      	ldr	r3, [r3, #12]
 8003a7c:	4a20      	ldr	r2, [pc, #128]	; (8003b00 <HAL_RCCEx_PeriphCLKConfig+0x3dc>)
 8003a7e:	f443 1380 	orr.w	r3, r3, #1048576	; 0x100000
 8003a82:	60d3      	str	r3, [r2, #12]
 8003a84:	687b      	ldr	r3, [r7, #4]
 8003a86:	681b      	ldr	r3, [r3, #0]
 8003a88:	f403 4380 	and.w	r3, r3, #16384	; 0x4000
 8003a8c:	2b00      	cmp	r3, #0
 8003a8e:	d015      	beq.n	8003abc <HAL_RCCEx_PeriphCLKConfig+0x398>
 8003a90:	4b1b      	ldr	r3, [pc, #108]	; (8003b00 <HAL_RCCEx_PeriphCLKConfig+0x3dc>)
 8003a92:	f8d3 3088 	ldr.w	r3, [r3, #136]	; 0x88
 8003a96:	f023 6240 	bic.w	r2, r3, #201326592	; 0xc000000
 8003a9a:	687b      	ldr	r3, [r7, #4]
 8003a9c:	6b9b      	ldr	r3, [r3, #56]	; 0x38
 8003a9e:	4918      	ldr	r1, [pc, #96]	; (8003b00 <HAL_RCCEx_PeriphCLKConfig+0x3dc>)
 8003aa0:	4313      	orrs	r3, r2
 8003aa2:	f8c1 3088 	str.w	r3, [r1, #136]	; 0x88
 8003aa6:	687b      	ldr	r3, [r7, #4]
 8003aa8:	6b9b      	ldr	r3, [r3, #56]	; 0x38
 8003aaa:	f1b3 6f00 	cmp.w	r3, #134217728	; 0x8000000
 8003aae:	d105      	bne.n	8003abc <HAL_RCCEx_PeriphCLKConfig+0x398>
 8003ab0:	4b13      	ldr	r3, [pc, #76]	; (8003b00 <HAL_RCCEx_PeriphCLKConfig+0x3dc>)
 8003ab2:	68db      	ldr	r3, [r3, #12]
 8003ab4:	4a12      	ldr	r2, [pc, #72]	; (8003b00 <HAL_RCCEx_PeriphCLKConfig+0x3dc>)
 8003ab6:	f443 1380 	orr.w	r3, r3, #1048576	; 0x100000
 8003aba:	60d3      	str	r3, [r2, #12]
 8003abc:	687b      	ldr	r3, [r7, #4]
 8003abe:	681b      	ldr	r3, [r3, #0]
 8003ac0:	f403 4300 	and.w	r3, r3, #32768	; 0x8000
 8003ac4:	2b00      	cmp	r3, #0
 8003ac6:	d015      	beq.n	8003af4 <HAL_RCCEx_PeriphCLKConfig+0x3d0>
 8003ac8:	4b0d      	ldr	r3, [pc, #52]	; (8003b00 <HAL_RCCEx_PeriphCLKConfig+0x3dc>)
 8003aca:	f8d3 3088 	ldr.w	r3, [r3, #136]	; 0x88
 8003ace:	f023 5240 	bic.w	r2, r3, #805306368	; 0x30000000
 8003ad2:	687b      	ldr	r3, [r7, #4]
 8003ad4:	6bdb      	ldr	r3, [r3, #60]	; 0x3c
 8003ad6:	490a      	ldr	r1, [pc, #40]	; (8003b00 <HAL_RCCEx_PeriphCLKConfig+0x3dc>)
 8003ad8:	4313      	orrs	r3, r2
 8003ada:	f8c1 3088 	str.w	r3, [r1, #136]	; 0x88
 8003ade:	687b      	ldr	r3, [r7, #4]
 8003ae0:	6bdb      	ldr	r3, [r3, #60]	; 0x3c
 8003ae2:	f1b3 5f80 	cmp.w	r3, #268435456	; 0x10000000
 8003ae6:	d105      	bne.n	8003af4 <HAL_RCCEx_PeriphCLKConfig+0x3d0>
 8003ae8:	4b05      	ldr	r3, [pc, #20]	; (8003b00 <HAL_RCCEx_PeriphCLKConfig+0x3dc>)
 8003aea:	68db      	ldr	r3, [r3, #12]
 8003aec:	4a04      	ldr	r2, [pc, #16]	; (8003b00 <HAL_RCCEx_PeriphCLKConfig+0x3dc>)
 8003aee:	f443 3380 	orr.w	r3, r3, #65536	; 0x10000
 8003af2:	60d3      	str	r3, [r2, #12]
 8003af4:	7cbb      	ldrb	r3, [r7, #18]
 8003af6:	4618      	mov	r0, r3
 8003af8:	3718      	adds	r7, #24
 8003afa:	46bd      	mov	sp, r7
 8003afc:	bd80      	pop	{r7, pc}
 8003afe:	bf00      	nop
 8003b00:	40021000 	.word	0x40021000

08003b04 <HAL_SPI_Init>:
 8003b04:	b580      	push	{r7, lr}
 8003b06:	b084      	sub	sp, #16
 8003b08:	af00      	add	r7, sp, #0
 8003b0a:	6078      	str	r0, [r7, #4]
 8003b0c:	687b      	ldr	r3, [r7, #4]
 8003b0e:	2b00      	cmp	r3, #0
 8003b10:	d101      	bne.n	8003b16 <HAL_SPI_Init+0x12>
 8003b12:	2301      	movs	r3, #1
 8003b14:	e084      	b.n	8003c20 <HAL_SPI_Init+0x11c>
 8003b16:	687b      	ldr	r3, [r7, #4]
 8003b18:	2200      	movs	r2, #0
 8003b1a:	629a      	str	r2, [r3, #40]	; 0x28
 8003b1c:	687b      	ldr	r3, [r7, #4]
 8003b1e:	f893 305d 	ldrb.w	r3, [r3, #93]	; 0x5d
 8003b22:	b2db      	uxtb	r3, r3
 8003b24:	2b00      	cmp	r3, #0
 8003b26:	d106      	bne.n	8003b36 <HAL_SPI_Init+0x32>
 8003b28:	687b      	ldr	r3, [r7, #4]
 8003b2a:	2200      	movs	r2, #0
 8003b2c:	f883 205c 	strb.w	r2, [r3, #92]	; 0x5c
 8003b30:	6878      	ldr	r0, [r7, #4]
 8003b32:	f7fc ff17 	bl	8000964 <HAL_SPI_MspInit>
 8003b36:	687b      	ldr	r3, [r7, #4]
 8003b38:	2202      	movs	r2, #2
 8003b3a:	f883 205d 	strb.w	r2, [r3, #93]	; 0x5d
 8003b3e:	687b      	ldr	r3, [r7, #4]
 8003b40:	681b      	ldr	r3, [r3, #0]
 8003b42:	681a      	ldr	r2, [r3, #0]
 8003b44:	687b      	ldr	r3, [r7, #4]
 8003b46:	681b      	ldr	r3, [r3, #0]
 8003b48:	f022 0240 	bic.w	r2, r2, #64	; 0x40
 8003b4c:	601a      	str	r2, [r3, #0]
 8003b4e:	687b      	ldr	r3, [r7, #4]
 8003b50:	68db      	ldr	r3, [r3, #12]
 8003b52:	f5b3 6fe0 	cmp.w	r3, #1792	; 0x700
 8003b56:	d902      	bls.n	8003b5e <HAL_SPI_Init+0x5a>
 8003b58:	2300      	movs	r3, #0
 8003b5a:	60fb      	str	r3, [r7, #12]
 8003b5c:	e002      	b.n	8003b64 <HAL_SPI_Init+0x60>
 8003b5e:	f44f 5380 	mov.w	r3, #4096	; 0x1000
 8003b62:	60fb      	str	r3, [r7, #12]
 8003b64:	687b      	ldr	r3, [r7, #4]
 8003b66:	68db      	ldr	r3, [r3, #12]
 8003b68:	f5b3 6f70 	cmp.w	r3, #3840	; 0xf00
 8003b6c:	d007      	beq.n	8003b7e <HAL_SPI_Init+0x7a>
 8003b6e:	687b      	ldr	r3, [r7, #4]
 8003b70:	68db      	ldr	r3, [r3, #12]
 8003b72:	f5b3 6fe0 	cmp.w	r3, #1792	; 0x700
 8003b76:	d002      	beq.n	8003b7e <HAL_SPI_Init+0x7a>
 8003b78:	687b      	ldr	r3, [r7, #4]
 8003b7a:	2200      	movs	r2, #0
 8003b7c:	629a      	str	r2, [r3, #40]	; 0x28
 8003b7e:	687b      	ldr	r3, [r7, #4]
 8003b80:	6b1b      	ldr	r3, [r3, #48]	; 0x30
 8003b82:	2b00      	cmp	r3, #0
 8003b84:	d10b      	bne.n	8003b9e <HAL_SPI_Init+0x9a>
 8003b86:	687b      	ldr	r3, [r7, #4]
 8003b88:	68db      	ldr	r3, [r3, #12]
 8003b8a:	f5b3 6fe0 	cmp.w	r3, #1792	; 0x700
 8003b8e:	d903      	bls.n	8003b98 <HAL_SPI_Init+0x94>
 8003b90:	687b      	ldr	r3, [r7, #4]
 8003b92:	2202      	movs	r2, #2
 8003b94:	631a      	str	r2, [r3, #48]	; 0x30
 8003b96:	e002      	b.n	8003b9e <HAL_SPI_Init+0x9a>
 8003b98:	687b      	ldr	r3, [r7, #4]
 8003b9a:	2201      	movs	r2, #1
 8003b9c:	631a      	str	r2, [r3, #48]	; 0x30
 8003b9e:	687b      	ldr	r3, [r7, #4]
 8003ba0:	685a      	ldr	r2, [r3, #4]
 8003ba2:	687b      	ldr	r3, [r7, #4]
 8003ba4:	689b      	ldr	r3, [r3, #8]
 8003ba6:	431a      	orrs	r2, r3
 8003ba8:	687b      	ldr	r3, [r7, #4]
 8003baa:	691b      	ldr	r3, [r3, #16]
 8003bac:	431a      	orrs	r2, r3
 8003bae:	687b      	ldr	r3, [r7, #4]
 8003bb0:	695b      	ldr	r3, [r3, #20]
 8003bb2:	431a      	orrs	r2, r3
 8003bb4:	687b      	ldr	r3, [r7, #4]
 8003bb6:	699b      	ldr	r3, [r3, #24]
 8003bb8:	f403 7300 	and.w	r3, r3, #512	; 0x200
 8003bbc:	431a      	orrs	r2, r3
 8003bbe:	687b      	ldr	r3, [r7, #4]
 8003bc0:	69db      	ldr	r3, [r3, #28]
 8003bc2:	431a      	orrs	r2, r3
 8003bc4:	687b      	ldr	r3, [r7, #4]
 8003bc6:	6a1b      	ldr	r3, [r3, #32]
 8003bc8:	ea42 0103 	orr.w	r1, r2, r3
 8003bcc:	687b      	ldr	r3, [r7, #4]
 8003bce:	6a9a      	ldr	r2, [r3, #40]	; 0x28
 8003bd0:	687b      	ldr	r3, [r7, #4]
 8003bd2:	681b      	ldr	r3, [r3, #0]
 8003bd4:	430a      	orrs	r2, r1
 8003bd6:	601a      	str	r2, [r3, #0]
 8003bd8:	687b      	ldr	r3, [r7, #4]
 8003bda:	699b      	ldr	r3, [r3, #24]
 8003bdc:	0c1b      	lsrs	r3, r3, #16
 8003bde:	f003 0204 	and.w	r2, r3, #4
 8003be2:	687b      	ldr	r3, [r7, #4]
 8003be4:	6a5b      	ldr	r3, [r3, #36]	; 0x24
 8003be6:	431a      	orrs	r2, r3
 8003be8:	687b      	ldr	r3, [r7, #4]
 8003bea:	6b5b      	ldr	r3, [r3, #52]	; 0x34
 8003bec:	431a      	orrs	r2, r3
 8003bee:	687b      	ldr	r3, [r7, #4]
 8003bf0:	68db      	ldr	r3, [r3, #12]
 8003bf2:	ea42 0103 	orr.w	r1, r2, r3
 8003bf6:	687b      	ldr	r3, [r7, #4]
 8003bf8:	681b      	ldr	r3, [r3, #0]
 8003bfa:	68fa      	ldr	r2, [r7, #12]
 8003bfc:	430a      	orrs	r2, r1
 8003bfe:	605a      	str	r2, [r3, #4]
 8003c00:	687b      	ldr	r3, [r7, #4]
 8003c02:	681b      	ldr	r3, [r3, #0]
 8003c04:	69da      	ldr	r2, [r3, #28]
 8003c06:	687b      	ldr	r3, [r7, #4]
 8003c08:	681b      	ldr	r3, [r3, #0]
 8003c0a:	f422 6200 	bic.w	r2, r2, #2048	; 0x800
 8003c0e:	61da      	str	r2, [r3, #28]
 8003c10:	687b      	ldr	r3, [r7, #4]
 8003c12:	2200      	movs	r2, #0
 8003c14:	661a      	str	r2, [r3, #96]	; 0x60
 8003c16:	687b      	ldr	r3, [r7, #4]
 8003c18:	2201      	movs	r2, #1
 8003c1a:	f883 205d 	strb.w	r2, [r3, #93]	; 0x5d
 8003c1e:	2300      	movs	r3, #0
 8003c20:	4618      	mov	r0, r3
 8003c22:	3710      	adds	r7, #16
 8003c24:	46bd      	mov	sp, r7
 8003c26:	bd80      	pop	{r7, pc}

08003c28 <HAL_TIM_Base_Init>:
 8003c28:	b580      	push	{r7, lr}
 8003c2a:	b082      	sub	sp, #8
 8003c2c:	af00      	add	r7, sp, #0
 8003c2e:	6078      	str	r0, [r7, #4]
 8003c30:	687b      	ldr	r3, [r7, #4]
 8003c32:	2b00      	cmp	r3, #0
 8003c34:	d101      	bne.n	8003c3a <HAL_TIM_Base_Init+0x12>
 8003c36:	2301      	movs	r3, #1
 8003c38:	e049      	b.n	8003cce <HAL_TIM_Base_Init+0xa6>
 8003c3a:	687b      	ldr	r3, [r7, #4]
 8003c3c:	f893 303d 	ldrb.w	r3, [r3, #61]	; 0x3d
 8003c40:	b2db      	uxtb	r3, r3
 8003c42:	2b00      	cmp	r3, #0
 8003c44:	d106      	bne.n	8003c54 <HAL_TIM_Base_Init+0x2c>
 8003c46:	687b      	ldr	r3, [r7, #4]
 8003c48:	2200      	movs	r2, #0
 8003c4a:	f883 203c 	strb.w	r2, [r3, #60]	; 0x3c
 8003c4e:	6878      	ldr	r0, [r7, #4]
 8003c50:	f7fc ff92 	bl	8000b78 <HAL_TIM_Base_MspInit>
 8003c54:	687b      	ldr	r3, [r7, #4]
 8003c56:	2202      	movs	r2, #2
 8003c58:	f883 203d 	strb.w	r2, [r3, #61]	; 0x3d
 8003c5c:	687b      	ldr	r3, [r7, #4]
 8003c5e:	681a      	ldr	r2, [r3, #0]
 8003c60:	687b      	ldr	r3, [r7, #4]
 8003c62:	3304      	adds	r3, #4
 8003c64:	4619      	mov	r1, r3
 8003c66:	4610      	mov	r0, r2
 8003c68:	f000 fc70 	bl	800454c <TIM_Base_SetConfig>
 8003c6c:	687b      	ldr	r3, [r7, #4]
 8003c6e:	2201      	movs	r2, #1
 8003c70:	f883 2048 	strb.w	r2, [r3, #72]	; 0x48
 8003c74:	687b      	ldr	r3, [r7, #4]
 8003c76:	2201      	movs	r2, #1
 8003c78:	f883 203e 	strb.w	r2, [r3, #62]	; 0x3e
 8003c7c:	687b      	ldr	r3, [r7, #4]
 8003c7e:	2201      	movs	r2, #1
 8003c80:	f883 203f 	strb.w	r2, [r3, #63]	; 0x3f
 8003c84:	687b      	ldr	r3, [r7, #4]
 8003c86:	2201      	movs	r2, #1
 8003c88:	f883 2040 	strb.w	r2, [r3, #64]	; 0x40
 8003c8c:	687b      	ldr	r3, [r7, #4]
 8003c8e:	2201      	movs	r2, #1
 8003c90:	f883 2041 	strb.w	r2, [r3, #65]	; 0x41
 8003c94:	687b      	ldr	r3, [r7, #4]
 8003c96:	2201      	movs	r2, #1
 8003c98:	f883 2042 	strb.w	r2, [r3, #66]	; 0x42
 8003c9c:	687b      	ldr	r3, [r7, #4]
 8003c9e:	2201      	movs	r2, #1
 8003ca0:	f883 2043 	strb.w	r2, [r3, #67]	; 0x43
 8003ca4:	687b      	ldr	r3, [r7, #4]
 8003ca6:	2201      	movs	r2, #1
 8003ca8:	f883 2044 	strb.w	r2, [r3, #68]	; 0x44
 8003cac:	687b      	ldr	r3, [r7, #4]
 8003cae:	2201      	movs	r2, #1
 8003cb0:	f883 2045 	strb.w	r2, [r3, #69]	; 0x45
 8003cb4:	687b      	ldr	r3, [r7, #4]
 8003cb6:	2201      	movs	r2, #1
 8003cb8:	f883 2046 	strb.w	r2, [r3, #70]	; 0x46
 8003cbc:	687b      	ldr	r3, [r7, #4]
 8003cbe:	2201      	movs	r2, #1
 8003cc0:	f883 2047 	strb.w	r2, [r3, #71]	; 0x47
 8003cc4:	687b      	ldr	r3, [r7, #4]
 8003cc6:	2201      	movs	r2, #1
 8003cc8:	f883 203d 	strb.w	r2, [r3, #61]	; 0x3d
 8003ccc:	2300      	movs	r3, #0
 8003cce:	4618      	mov	r0, r3
 8003cd0:	3708      	adds	r7, #8
 8003cd2:	46bd      	mov	sp, r7
 8003cd4:	bd80      	pop	{r7, pc}

08003cd6 <HAL_TIM_PWM_Init>:
 8003cd6:	b580      	push	{r7, lr}
 8003cd8:	b082      	sub	sp, #8
 8003cda:	af00      	add	r7, sp, #0
 8003cdc:	6078      	str	r0, [r7, #4]
 8003cde:	687b      	ldr	r3, [r7, #4]
 8003ce0:	2b00      	cmp	r3, #0
 8003ce2:	d101      	bne.n	8003ce8 <HAL_TIM_PWM_Init+0x12>
 8003ce4:	2301      	movs	r3, #1
 8003ce6:	e049      	b.n	8003d7c <HAL_TIM_PWM_Init+0xa6>
 8003ce8:	687b      	ldr	r3, [r7, #4]
 8003cea:	f893 303d 	ldrb.w	r3, [r3, #61]	; 0x3d
 8003cee:	b2db      	uxtb	r3, r3
 8003cf0:	2b00      	cmp	r3, #0
 8003cf2:	d106      	bne.n	8003d02 <HAL_TIM_PWM_Init+0x2c>
 8003cf4:	687b      	ldr	r3, [r7, #4]
 8003cf6:	2200      	movs	r2, #0
 8003cf8:	f883 203c 	strb.w	r2, [r3, #60]	; 0x3c
 8003cfc:	6878      	ldr	r0, [r7, #4]
 8003cfe:	f7fc fef1 	bl	8000ae4 <HAL_TIM_PWM_MspInit>
 8003d02:	687b      	ldr	r3, [r7, #4]
 8003d04:	2202      	movs	r2, #2
 8003d06:	f883 203d 	strb.w	r2, [r3, #61]	; 0x3d
 8003d0a:	687b      	ldr	r3, [r7, #4]
 8003d0c:	681a      	ldr	r2, [r3, #0]
 8003d0e:	687b      	ldr	r3, [r7, #4]
 8003d10:	3304      	adds	r3, #4
 8003d12:	4619      	mov	r1, r3
 8003d14:	4610      	mov	r0, r2
 8003d16:	f000 fc19 	bl	800454c <TIM_Base_SetConfig>
 8003d1a:	687b      	ldr	r3, [r7, #4]
 8003d1c:	2201      	movs	r2, #1
 8003d1e:	f883 2048 	strb.w	r2, [r3, #72]	; 0x48
 8003d22:	687b      	ldr	r3, [r7, #4]
 8003d24:	2201      	movs	r2, #1
 8003d26:	f883 203e 	strb.w	r2, [r3, #62]	; 0x3e
 8003d2a:	687b      	ldr	r3, [r7, #4]
 8003d2c:	2201      	movs	r2, #1
 8003d2e:	f883 203f 	strb.w	r2, [r3, #63]	; 0x3f
 8003d32:	687b      	ldr	r3, [r7, #4]
 8003d34:	2201      	movs	r2, #1
 8003d36:	f883 2040 	strb.w	r2, [r3, #64]	; 0x40
 8003d3a:	687b      	ldr	r3, [r7, #4]
 8003d3c:	2201      	movs	r2, #1
 8003d3e:	f883 2041 	strb.w	r2, [r3, #65]	; 0x41
 8003d42:	687b      	ldr	r3, [r7, #4]
 8003d44:	2201      	movs	r2, #1
 8003d46:	f883 2042 	strb.w	r2, [r3, #66]	; 0x42
 8003d4a:	687b      	ldr	r3, [r7, #4]
 8003d4c:	2201      	movs	r2, #1
 8003d4e:	f883 2043 	strb.w	r2, [r3, #67]	; 0x43
 8003d52:	687b      	ldr	r3, [r7, #4]
 8003d54:	2201      	movs	r2, #1
 8003d56:	f883 2044 	strb.w	r2, [r3, #68]	; 0x44
 8003d5a:	687b      	ldr	r3, [r7, #4]
 8003d5c:	2201      	movs	r2, #1
 8003d5e:	f883 2045 	strb.w	r2, [r3, #69]	; 0x45
 8003d62:	687b      	ldr	r3, [r7, #4]
 8003d64:	2201      	movs	r2, #1
 8003d66:	f883 2046 	strb.w	r2, [r3, #70]	; 0x46
 8003d6a:	687b      	ldr	r3, [r7, #4]
 8003d6c:	2201      	movs	r2, #1
 8003d6e:	f883 2047 	strb.w	r2, [r3, #71]	; 0x47
 8003d72:	687b      	ldr	r3, [r7, #4]
 8003d74:	2201      	movs	r2, #1
 8003d76:	f883 203d 	strb.w	r2, [r3, #61]	; 0x3d
 8003d7a:	2300      	movs	r3, #0
 8003d7c:	4618      	mov	r0, r3
 8003d7e:	3708      	adds	r7, #8
 8003d80:	46bd      	mov	sp, r7
 8003d82:	bd80      	pop	{r7, pc}

08003d84 <HAL_TIM_PWM_Start_DMA>:
 8003d84:	b580      	push	{r7, lr}
 8003d86:	b086      	sub	sp, #24
 8003d88:	af00      	add	r7, sp, #0
 8003d8a:	60f8      	str	r0, [r7, #12]
 8003d8c:	60b9      	str	r1, [r7, #8]
 8003d8e:	607a      	str	r2, [r7, #4]
 8003d90:	807b      	strh	r3, [r7, #2]
 8003d92:	68bb      	ldr	r3, [r7, #8]
 8003d94:	2b00      	cmp	r3, #0
 8003d96:	d109      	bne.n	8003dac <HAL_TIM_PWM_Start_DMA+0x28>
 8003d98:	68fb      	ldr	r3, [r7, #12]
 8003d9a:	f893 303e 	ldrb.w	r3, [r3, #62]	; 0x3e
 8003d9e:	b2db      	uxtb	r3, r3
 8003da0:	2b02      	cmp	r3, #2
 8003da2:	bf0c      	ite	eq
 8003da4:	2301      	moveq	r3, #1
 8003da6:	2300      	movne	r3, #0
 8003da8:	b2db      	uxtb	r3, r3
 8003daa:	e03c      	b.n	8003e26 <HAL_TIM_PWM_Start_DMA+0xa2>
 8003dac:	68bb      	ldr	r3, [r7, #8]
 8003dae:	2b04      	cmp	r3, #4
 8003db0:	d109      	bne.n	8003dc6 <HAL_TIM_PWM_Start_DMA+0x42>
 8003db2:	68fb      	ldr	r3, [r7, #12]
 8003db4:	f893 303f 	ldrb.w	r3, [r3, #63]	; 0x3f
 8003db8:	b2db      	uxtb	r3, r3
 8003dba:	2b02      	cmp	r3, #2
 8003dbc:	bf0c      	ite	eq
 8003dbe:	2301      	moveq	r3, #1
 8003dc0:	2300      	movne	r3, #0
 8003dc2:	b2db      	uxtb	r3, r3
 8003dc4:	e02f      	b.n	8003e26 <HAL_TIM_PWM_Start_DMA+0xa2>
 8003dc6:	68bb      	ldr	r3, [r7, #8]
 8003dc8:	2b08      	cmp	r3, #8
 8003dca:	d109      	bne.n	8003de0 <HAL_TIM_PWM_Start_DMA+0x5c>
 8003dcc:	68fb      	ldr	r3, [r7, #12]
 8003dce:	f893 3040 	ldrb.w	r3, [r3, #64]	; 0x40
 8003dd2:	b2db      	uxtb	r3, r3
 8003dd4:	2b02      	cmp	r3, #2
 8003dd6:	bf0c      	ite	eq
 8003dd8:	2301      	moveq	r3, #1
 8003dda:	2300      	movne	r3, #0
 8003ddc:	b2db      	uxtb	r3, r3
 8003dde:	e022      	b.n	8003e26 <HAL_TIM_PWM_Start_DMA+0xa2>
 8003de0:	68bb      	ldr	r3, [r7, #8]
 8003de2:	2b0c      	cmp	r3, #12
 8003de4:	d109      	bne.n	8003dfa <HAL_TIM_PWM_Start_DMA+0x76>
 8003de6:	68fb      	ldr	r3, [r7, #12]
 8003de8:	f893 3041 	ldrb.w	r3, [r3, #65]	; 0x41
 8003dec:	b2db      	uxtb	r3, r3
 8003dee:	2b02      	cmp	r3, #2
 8003df0:	bf0c      	ite	eq
 8003df2:	2301      	moveq	r3, #1
 8003df4:	2300      	movne	r3, #0
 8003df6:	b2db      	uxtb	r3, r3
 8003df8:	e015      	b.n	8003e26 <HAL_TIM_PWM_Start_DMA+0xa2>
 8003dfa:	68bb      	ldr	r3, [r7, #8]
 8003dfc:	2b10      	cmp	r3, #16
 8003dfe:	d109      	bne.n	8003e14 <HAL_TIM_PWM_Start_DMA+0x90>
 8003e00:	68fb      	ldr	r3, [r7, #12]
 8003e02:	f893 3042 	ldrb.w	r3, [r3, #66]	; 0x42
 8003e06:	b2db      	uxtb	r3, r3
 8003e08:	2b02      	cmp	r3, #2
 8003e0a:	bf0c      	ite	eq
 8003e0c:	2301      	moveq	r3, #1
 8003e0e:	2300      	movne	r3, #0
 8003e10:	b2db      	uxtb	r3, r3
 8003e12:	e008      	b.n	8003e26 <HAL_TIM_PWM_Start_DMA+0xa2>
 8003e14:	68fb      	ldr	r3, [r7, #12]
 8003e16:	f893 3043 	ldrb.w	r3, [r3, #67]	; 0x43
 8003e1a:	b2db      	uxtb	r3, r3
 8003e1c:	2b02      	cmp	r3, #2
 8003e1e:	bf0c      	ite	eq
 8003e20:	2301      	moveq	r3, #1
 8003e22:	2300      	movne	r3, #0
 8003e24:	b2db      	uxtb	r3, r3
 8003e26:	2b00      	cmp	r3, #0
 8003e28:	d001      	beq.n	8003e2e <HAL_TIM_PWM_Start_DMA+0xaa>
 8003e2a:	2302      	movs	r3, #2
 8003e2c:	e178      	b.n	8004120 <HAL_TIM_PWM_Start_DMA+0x39c>
 8003e2e:	68bb      	ldr	r3, [r7, #8]
 8003e30:	2b00      	cmp	r3, #0
 8003e32:	d109      	bne.n	8003e48 <HAL_TIM_PWM_Start_DMA+0xc4>
 8003e34:	68fb      	ldr	r3, [r7, #12]
 8003e36:	f893 303e 	ldrb.w	r3, [r3, #62]	; 0x3e
 8003e3a:	b2db      	uxtb	r3, r3
 8003e3c:	2b01      	cmp	r3, #1
 8003e3e:	bf0c      	ite	eq
 8003e40:	2301      	moveq	r3, #1
 8003e42:	2300      	movne	r3, #0
 8003e44:	b2db      	uxtb	r3, r3
 8003e46:	e03c      	b.n	8003ec2 <HAL_TIM_PWM_Start_DMA+0x13e>
 8003e48:	68bb      	ldr	r3, [r7, #8]
 8003e4a:	2b04      	cmp	r3, #4
 8003e4c:	d109      	bne.n	8003e62 <HAL_TIM_PWM_Start_DMA+0xde>
 8003e4e:	68fb      	ldr	r3, [r7, #12]
 8003e50:	f893 303f 	ldrb.w	r3, [r3, #63]	; 0x3f
 8003e54:	b2db      	uxtb	r3, r3
 8003e56:	2b01      	cmp	r3, #1
 8003e58:	bf0c      	ite	eq
 8003e5a:	2301      	moveq	r3, #1
 8003e5c:	2300      	movne	r3, #0
 8003e5e:	b2db      	uxtb	r3, r3
 8003e60:	e02f      	b.n	8003ec2 <HAL_TIM_PWM_Start_DMA+0x13e>
 8003e62:	68bb      	ldr	r3, [r7, #8]
 8003e64:	2b08      	cmp	r3, #8
 8003e66:	d109      	bne.n	8003e7c <HAL_TIM_PWM_Start_DMA+0xf8>
 8003e68:	68fb      	ldr	r3, [r7, #12]
 8003e6a:	f893 3040 	ldrb.w	r3, [r3, #64]	; 0x40
 8003e6e:	b2db      	uxtb	r3, r3
 8003e70:	2b01      	cmp	r3, #1
 8003e72:	bf0c      	ite	eq
 8003e74:	2301      	moveq	r3, #1
 8003e76:	2300      	movne	r3, #0
 8003e78:	b2db      	uxtb	r3, r3
 8003e7a:	e022      	b.n	8003ec2 <HAL_TIM_PWM_Start_DMA+0x13e>
 8003e7c:	68bb      	ldr	r3, [r7, #8]
 8003e7e:	2b0c      	cmp	r3, #12
 8003e80:	d109      	bne.n	8003e96 <HAL_TIM_PWM_Start_DMA+0x112>
 8003e82:	68fb      	ldr	r3, [r7, #12]
 8003e84:	f893 3041 	ldrb.w	r3, [r3, #65]	; 0x41
 8003e88:	b2db      	uxtb	r3, r3
 8003e8a:	2b01      	cmp	r3, #1
 8003e8c:	bf0c      	ite	eq
 8003e8e:	2301      	moveq	r3, #1
 8003e90:	2300      	movne	r3, #0
 8003e92:	b2db      	uxtb	r3, r3
 8003e94:	e015      	b.n	8003ec2 <HAL_TIM_PWM_Start_DMA+0x13e>
 8003e96:	68bb      	ldr	r3, [r7, #8]
 8003e98:	2b10      	cmp	r3, #16
 8003e9a:	d109      	bne.n	8003eb0 <HAL_TIM_PWM_Start_DMA+0x12c>
 8003e9c:	68fb      	ldr	r3, [r7, #12]
 8003e9e:	f893 3042 	ldrb.w	r3, [r3, #66]	; 0x42
 8003ea2:	b2db      	uxtb	r3, r3
 8003ea4:	2b01      	cmp	r3, #1
 8003ea6:	bf0c      	ite	eq
 8003ea8:	2301      	moveq	r3, #1
 8003eaa:	2300      	movne	r3, #0
 8003eac:	b2db      	uxtb	r3, r3
 8003eae:	e008      	b.n	8003ec2 <HAL_TIM_PWM_Start_DMA+0x13e>
 8003eb0:	68fb      	ldr	r3, [r7, #12]
 8003eb2:	f893 3043 	ldrb.w	r3, [r3, #67]	; 0x43
 8003eb6:	b2db      	uxtb	r3, r3
 8003eb8:	2b01      	cmp	r3, #1
 8003eba:	bf0c      	ite	eq
 8003ebc:	2301      	moveq	r3, #1
 8003ebe:	2300      	movne	r3, #0
 8003ec0:	b2db      	uxtb	r3, r3
 8003ec2:	2b00      	cmp	r3, #0
 8003ec4:	d034      	beq.n	8003f30 <HAL_TIM_PWM_Start_DMA+0x1ac>
 8003ec6:	687b      	ldr	r3, [r7, #4]
 8003ec8:	2b00      	cmp	r3, #0
 8003eca:	d104      	bne.n	8003ed6 <HAL_TIM_PWM_Start_DMA+0x152>
 8003ecc:	887b      	ldrh	r3, [r7, #2]
 8003ece:	2b00      	cmp	r3, #0
 8003ed0:	d001      	beq.n	8003ed6 <HAL_TIM_PWM_Start_DMA+0x152>
 8003ed2:	2301      	movs	r3, #1
 8003ed4:	e124      	b.n	8004120 <HAL_TIM_PWM_Start_DMA+0x39c>
 8003ed6:	68bb      	ldr	r3, [r7, #8]
 8003ed8:	2b00      	cmp	r3, #0
 8003eda:	d104      	bne.n	8003ee6 <HAL_TIM_PWM_Start_DMA+0x162>
 8003edc:	68fb      	ldr	r3, [r7, #12]
 8003ede:	2202      	movs	r2, #2
 8003ee0:	f883 203e 	strb.w	r2, [r3, #62]	; 0x3e
 8003ee4:	e026      	b.n	8003f34 <HAL_TIM_PWM_Start_DMA+0x1b0>
 8003ee6:	68bb      	ldr	r3, [r7, #8]
 8003ee8:	2b04      	cmp	r3, #4
 8003eea:	d104      	bne.n	8003ef6 <HAL_TIM_PWM_Start_DMA+0x172>
 8003eec:	68fb      	ldr	r3, [r7, #12]
 8003eee:	2202      	movs	r2, #2
 8003ef0:	f883 203f 	strb.w	r2, [r3, #63]	; 0x3f
 8003ef4:	e01e      	b.n	8003f34 <HAL_TIM_PWM_Start_DMA+0x1b0>
 8003ef6:	68bb      	ldr	r3, [r7, #8]
 8003ef8:	2b08      	cmp	r3, #8
 8003efa:	d104      	bne.n	8003f06 <HAL_TIM_PWM_Start_DMA+0x182>
 8003efc:	68fb      	ldr	r3, [r7, #12]
 8003efe:	2202      	movs	r2, #2
 8003f00:	f883 2040 	strb.w	r2, [r3, #64]	; 0x40
 8003f04:	e016      	b.n	8003f34 <HAL_TIM_PWM_Start_DMA+0x1b0>
 8003f06:	68bb      	ldr	r3, [r7, #8]
 8003f08:	2b0c      	cmp	r3, #12
 8003f0a:	d104      	bne.n	8003f16 <HAL_TIM_PWM_Start_DMA+0x192>
 8003f0c:	68fb      	ldr	r3, [r7, #12]
 8003f0e:	2202      	movs	r2, #2
 8003f10:	f883 2041 	strb.w	r2, [r3, #65]	; 0x41
 8003f14:	e00e      	b.n	8003f34 <HAL_TIM_PWM_Start_DMA+0x1b0>
 8003f16:	68bb      	ldr	r3, [r7, #8]
 8003f18:	2b10      	cmp	r3, #16
 8003f1a:	d104      	bne.n	8003f26 <HAL_TIM_PWM_Start_DMA+0x1a2>
 8003f1c:	68fb      	ldr	r3, [r7, #12]
 8003f1e:	2202      	movs	r2, #2
 8003f20:	f883 2042 	strb.w	r2, [r3, #66]	; 0x42
 8003f24:	e006      	b.n	8003f34 <HAL_TIM_PWM_Start_DMA+0x1b0>
 8003f26:	68fb      	ldr	r3, [r7, #12]
 8003f28:	2202      	movs	r2, #2
 8003f2a:	f883 2043 	strb.w	r2, [r3, #67]	; 0x43
 8003f2e:	e001      	b.n	8003f34 <HAL_TIM_PWM_Start_DMA+0x1b0>
 8003f30:	2301      	movs	r3, #1
 8003f32:	e0f5      	b.n	8004120 <HAL_TIM_PWM_Start_DMA+0x39c>
 8003f34:	68bb      	ldr	r3, [r7, #8]
 8003f36:	2b0c      	cmp	r3, #12
 8003f38:	f200 80ae 	bhi.w	8004098 <HAL_TIM_PWM_Start_DMA+0x314>
 8003f3c:	a201      	add	r2, pc, #4	; (adr r2, 8003f44 <HAL_TIM_PWM_Start_DMA+0x1c0>)
 8003f3e:	f852 f023 	ldr.w	pc, [r2, r3, lsl #2]
 8003f42:	bf00      	nop
 8003f44:	08003f79 	.word	0x08003f79
 8003f48:	08004099 	.word	0x08004099
 8003f4c:	08004099 	.word	0x08004099
 8003f50:	08004099 	.word	0x08004099
 8003f54:	08003fc1 	.word	0x08003fc1
 8003f58:	08004099 	.word	0x08004099
 8003f5c:	08004099 	.word	0x08004099
 8003f60:	08004099 	.word	0x08004099
 8003f64:	08004009 	.word	0x08004009
 8003f68:	08004099 	.word	0x08004099
 8003f6c:	08004099 	.word	0x08004099
 8003f70:	08004099 	.word	0x08004099
 8003f74:	08004051 	.word	0x08004051
 8003f78:	68fb      	ldr	r3, [r7, #12]
 8003f7a:	6a5b      	ldr	r3, [r3, #36]	; 0x24
 8003f7c:	4a6a      	ldr	r2, [pc, #424]	; (8004128 <HAL_TIM_PWM_Start_DMA+0x3a4>)
 8003f7e:	62da      	str	r2, [r3, #44]	; 0x2c
 8003f80:	68fb      	ldr	r3, [r7, #12]
 8003f82:	6a5b      	ldr	r3, [r3, #36]	; 0x24
 8003f84:	4a69      	ldr	r2, [pc, #420]	; (800412c <HAL_TIM_PWM_Start_DMA+0x3a8>)
 8003f86:	631a      	str	r2, [r3, #48]	; 0x30
 8003f88:	68fb      	ldr	r3, [r7, #12]
 8003f8a:	6a5b      	ldr	r3, [r3, #36]	; 0x24
 8003f8c:	4a68      	ldr	r2, [pc, #416]	; (8004130 <HAL_TIM_PWM_Start_DMA+0x3ac>)
 8003f8e:	635a      	str	r2, [r3, #52]	; 0x34
 8003f90:	68fb      	ldr	r3, [r7, #12]
 8003f92:	6a58      	ldr	r0, [r3, #36]	; 0x24
 8003f94:	6879      	ldr	r1, [r7, #4]
 8003f96:	68fb      	ldr	r3, [r7, #12]
 8003f98:	681b      	ldr	r3, [r3, #0]
 8003f9a:	3334      	adds	r3, #52	; 0x34
 8003f9c:	461a      	mov	r2, r3
 8003f9e:	887b      	ldrh	r3, [r7, #2]
 8003fa0:	f7fd fbaa 	bl	80016f8 <HAL_DMA_Start_IT>
 8003fa4:	4603      	mov	r3, r0
 8003fa6:	2b00      	cmp	r3, #0
 8003fa8:	d001      	beq.n	8003fae <HAL_TIM_PWM_Start_DMA+0x22a>
 8003faa:	2301      	movs	r3, #1
 8003fac:	e0b8      	b.n	8004120 <HAL_TIM_PWM_Start_DMA+0x39c>
 8003fae:	68fb      	ldr	r3, [r7, #12]
 8003fb0:	681b      	ldr	r3, [r3, #0]
 8003fb2:	68da      	ldr	r2, [r3, #12]
 8003fb4:	68fb      	ldr	r3, [r7, #12]
 8003fb6:	681b      	ldr	r3, [r3, #0]
 8003fb8:	f442 7200 	orr.w	r2, r2, #512	; 0x200
 8003fbc:	60da      	str	r2, [r3, #12]
 8003fbe:	e06c      	b.n	800409a <HAL_TIM_PWM_Start_DMA+0x316>
 8003fc0:	68fb      	ldr	r3, [r7, #12]
 8003fc2:	6a9b      	ldr	r3, [r3, #40]	; 0x28
 8003fc4:	4a58      	ldr	r2, [pc, #352]	; (8004128 <HAL_TIM_PWM_Start_DMA+0x3a4>)
 8003fc6:	62da      	str	r2, [r3, #44]	; 0x2c
 8003fc8:	68fb      	ldr	r3, [r7, #12]
 8003fca:	6a9b      	ldr	r3, [r3, #40]	; 0x28
 8003fcc:	4a57      	ldr	r2, [pc, #348]	; (800412c <HAL_TIM_PWM_Start_DMA+0x3a8>)
 8003fce:	631a      	str	r2, [r3, #48]	; 0x30
 8003fd0:	68fb      	ldr	r3, [r7, #12]
 8003fd2:	6a9b      	ldr	r3, [r3, #40]	; 0x28
 8003fd4:	4a56      	ldr	r2, [pc, #344]	; (8004130 <HAL_TIM_PWM_Start_DMA+0x3ac>)
 8003fd6:	635a      	str	r2, [r3, #52]	; 0x34
 8003fd8:	68fb      	ldr	r3, [r7, #12]
 8003fda:	6a98      	ldr	r0, [r3, #40]	; 0x28
 8003fdc:	6879      	ldr	r1, [r7, #4]
 8003fde:	68fb      	ldr	r3, [r7, #12]
 8003fe0:	681b      	ldr	r3, [r3, #0]
 8003fe2:	3338      	adds	r3, #56	; 0x38
 8003fe4:	461a      	mov	r2, r3
 8003fe6:	887b      	ldrh	r3, [r7, #2]
 8003fe8:	f7fd fb86 	bl	80016f8 <HAL_DMA_Start_IT>
 8003fec:	4603      	mov	r3, r0
 8003fee:	2b00      	cmp	r3, #0
 8003ff0:	d001      	beq.n	8003ff6 <HAL_TIM_PWM_Start_DMA+0x272>
 8003ff2:	2301      	movs	r3, #1
 8003ff4:	e094      	b.n	8004120 <HAL_TIM_PWM_Start_DMA+0x39c>
 8003ff6:	68fb      	ldr	r3, [r7, #12]
 8003ff8:	681b      	ldr	r3, [r3, #0]
 8003ffa:	68da      	ldr	r2, [r3, #12]
 8003ffc:	68fb      	ldr	r3, [r7, #12]
 8003ffe:	681b      	ldr	r3, [r3, #0]
 8004000:	f442 6280 	orr.w	r2, r2, #1024	; 0x400
 8004004:	60da      	str	r2, [r3, #12]
 8004006:	e048      	b.n	800409a <HAL_TIM_PWM_Start_DMA+0x316>
 8004008:	68fb      	ldr	r3, [r7, #12]
 800400a:	6adb      	ldr	r3, [r3, #44]	; 0x2c
 800400c:	4a46      	ldr	r2, [pc, #280]	; (8004128 <HAL_TIM_PWM_Start_DMA+0x3a4>)
 800400e:	62da      	str	r2, [r3, #44]	; 0x2c
 8004010:	68fb      	ldr	r3, [r7, #12]
 8004012:	6adb      	ldr	r3, [r3, #44]	; 0x2c
 8004014:	4a45      	ldr	r2, [pc, #276]	; (800412c <HAL_TIM_PWM_Start_DMA+0x3a8>)
 8004016:	631a      	str	r2, [r3, #48]	; 0x30
 8004018:	68fb      	ldr	r3, [r7, #12]
 800401a:	6adb      	ldr	r3, [r3, #44]	; 0x2c
 800401c:	4a44      	ldr	r2, [pc, #272]	; (8004130 <HAL_TIM_PWM_Start_DMA+0x3ac>)
 800401e:	635a      	str	r2, [r3, #52]	; 0x34
 8004020:	68fb      	ldr	r3, [r7, #12]
 8004022:	6ad8      	ldr	r0, [r3, #44]	; 0x2c
 8004024:	6879      	ldr	r1, [r7, #4]
 8004026:	68fb      	ldr	r3, [r7, #12]
 8004028:	681b      	ldr	r3, [r3, #0]
 800402a:	333c      	adds	r3, #60	; 0x3c
 800402c:	461a      	mov	r2, r3
 800402e:	887b      	ldrh	r3, [r7, #2]
 8004030:	f7fd fb62 	bl	80016f8 <HAL_DMA_Start_IT>
 8004034:	4603      	mov	r3, r0
 8004036:	2b00      	cmp	r3, #0
 8004038:	d001      	beq.n	800403e <HAL_TIM_PWM_Start_DMA+0x2ba>
 800403a:	2301      	movs	r3, #1
 800403c:	e070      	b.n	8004120 <HAL_TIM_PWM_Start_DMA+0x39c>
 800403e:	68fb      	ldr	r3, [r7, #12]
 8004040:	681b      	ldr	r3, [r3, #0]
 8004042:	68da      	ldr	r2, [r3, #12]
 8004044:	68fb      	ldr	r3, [r7, #12]
 8004046:	681b      	ldr	r3, [r3, #0]
 8004048:	f442 6200 	orr.w	r2, r2, #2048	; 0x800
 800404c:	60da      	str	r2, [r3, #12]
 800404e:	e024      	b.n	800409a <HAL_TIM_PWM_Start_DMA+0x316>
 8004050:	68fb      	ldr	r3, [r7, #12]
 8004052:	6b1b      	ldr	r3, [r3, #48]	; 0x30
 8004054:	4a34      	ldr	r2, [pc, #208]	; (8004128 <HAL_TIM_PWM_Start_DMA+0x3a4>)
 8004056:	62da      	str	r2, [r3, #44]	; 0x2c
 8004058:	68fb      	ldr	r3, [r7, #12]
 800405a:	6b1b      	ldr	r3, [r3, #48]	; 0x30
 800405c:	4a33      	ldr	r2, [pc, #204]	; (800412c <HAL_TIM_PWM_Start_DMA+0x3a8>)
 800405e:	631a      	str	r2, [r3, #48]	; 0x30
 8004060:	68fb      	ldr	r3, [r7, #12]
 8004062:	6b1b      	ldr	r3, [r3, #48]	; 0x30
 8004064:	4a32      	ldr	r2, [pc, #200]	; (8004130 <HAL_TIM_PWM_Start_DMA+0x3ac>)
 8004066:	635a      	str	r2, [r3, #52]	; 0x34
 8004068:	68fb      	ldr	r3, [r7, #12]
 800406a:	6b18      	ldr	r0, [r3, #48]	; 0x30
 800406c:	6879      	ldr	r1, [r7, #4]
 800406e:	68fb      	ldr	r3, [r7, #12]
 8004070:	681b      	ldr	r3, [r3, #0]
 8004072:	3340      	adds	r3, #64	; 0x40
 8004074:	461a      	mov	r2, r3
 8004076:	887b      	ldrh	r3, [r7, #2]
 8004078:	f7fd fb3e 	bl	80016f8 <HAL_DMA_Start_IT>
 800407c:	4603      	mov	r3, r0
 800407e:	2b00      	cmp	r3, #0
 8004080:	d001      	beq.n	8004086 <HAL_TIM_PWM_Start_DMA+0x302>
 8004082:	2301      	movs	r3, #1
 8004084:	e04c      	b.n	8004120 <HAL_TIM_PWM_Start_DMA+0x39c>
 8004086:	68fb      	ldr	r3, [r7, #12]
 8004088:	681b      	ldr	r3, [r3, #0]
 800408a:	68da      	ldr	r2, [r3, #12]
 800408c:	68fb      	ldr	r3, [r7, #12]
 800408e:	681b      	ldr	r3, [r3, #0]
 8004090:	f442 5280 	orr.w	r2, r2, #4096	; 0x1000
 8004094:	60da      	str	r2, [r3, #12]
 8004096:	e000      	b.n	800409a <HAL_TIM_PWM_Start_DMA+0x316>
 8004098:	bf00      	nop
 800409a:	68fb      	ldr	r3, [r7, #12]
 800409c:	681b      	ldr	r3, [r3, #0]
 800409e:	2201      	movs	r2, #1
 80040a0:	68b9      	ldr	r1, [r7, #8]
 80040a2:	4618      	mov	r0, r3
 80040a4:	f000 fdd8 	bl	8004c58 <TIM_CCxChannelCmd>
 80040a8:	68fb      	ldr	r3, [r7, #12]
 80040aa:	681b      	ldr	r3, [r3, #0]
 80040ac:	4a21      	ldr	r2, [pc, #132]	; (8004134 <HAL_TIM_PWM_Start_DMA+0x3b0>)
 80040ae:	4293      	cmp	r3, r2
 80040b0:	d013      	beq.n	80040da <HAL_TIM_PWM_Start_DMA+0x356>
 80040b2:	68fb      	ldr	r3, [r7, #12]
 80040b4:	681b      	ldr	r3, [r3, #0]
 80040b6:	4a20      	ldr	r2, [pc, #128]	; (8004138 <HAL_TIM_PWM_Start_DMA+0x3b4>)
 80040b8:	4293      	cmp	r3, r2
 80040ba:	d00e      	beq.n	80040da <HAL_TIM_PWM_Start_DMA+0x356>
 80040bc:	68fb      	ldr	r3, [r7, #12]
 80040be:	681b      	ldr	r3, [r3, #0]
 80040c0:	4a1e      	ldr	r2, [pc, #120]	; (800413c <HAL_TIM_PWM_Start_DMA+0x3b8>)
 80040c2:	4293      	cmp	r3, r2
 80040c4:	d009      	beq.n	80040da <HAL_TIM_PWM_Start_DMA+0x356>
 80040c6:	68fb      	ldr	r3, [r7, #12]
 80040c8:	681b      	ldr	r3, [r3, #0]
 80040ca:	4a1d      	ldr	r2, [pc, #116]	; (8004140 <HAL_TIM_PWM_Start_DMA+0x3bc>)
 80040cc:	4293      	cmp	r3, r2
 80040ce:	d004      	beq.n	80040da <HAL_TIM_PWM_Start_DMA+0x356>
 80040d0:	68fb      	ldr	r3, [r7, #12]
 80040d2:	681b      	ldr	r3, [r3, #0]
 80040d4:	4a1b      	ldr	r2, [pc, #108]	; (8004144 <HAL_TIM_PWM_Start_DMA+0x3c0>)
 80040d6:	4293      	cmp	r3, r2
 80040d8:	d101      	bne.n	80040de <HAL_TIM_PWM_Start_DMA+0x35a>
 80040da:	2301      	movs	r3, #1
 80040dc:	e000      	b.n	80040e0 <HAL_TIM_PWM_Start_DMA+0x35c>
 80040de:	2300      	movs	r3, #0
 80040e0:	2b00      	cmp	r3, #0
 80040e2:	d007      	beq.n	80040f4 <HAL_TIM_PWM_Start_DMA+0x370>
 80040e4:	68fb      	ldr	r3, [r7, #12]
 80040e6:	681b      	ldr	r3, [r3, #0]
 80040e8:	6c5a      	ldr	r2, [r3, #68]	; 0x44
 80040ea:	68fb      	ldr	r3, [r7, #12]
 80040ec:	681b      	ldr	r3, [r3, #0]
 80040ee:	f442 4200 	orr.w	r2, r2, #32768	; 0x8000
 80040f2:	645a      	str	r2, [r3, #68]	; 0x44
 80040f4:	68fb      	ldr	r3, [r7, #12]
 80040f6:	681b      	ldr	r3, [r3, #0]
 80040f8:	689a      	ldr	r2, [r3, #8]
 80040fa:	4b13      	ldr	r3, [pc, #76]	; (8004148 <HAL_TIM_PWM_Start_DMA+0x3c4>)
 80040fc:	4013      	ands	r3, r2
 80040fe:	617b      	str	r3, [r7, #20]
 8004100:	697b      	ldr	r3, [r7, #20]
 8004102:	2b06      	cmp	r3, #6
 8004104:	d00b      	beq.n	800411e <HAL_TIM_PWM_Start_DMA+0x39a>
 8004106:	697b      	ldr	r3, [r7, #20]
 8004108:	f5b3 3f80 	cmp.w	r3, #65536	; 0x10000
 800410c:	d007      	beq.n	800411e <HAL_TIM_PWM_Start_DMA+0x39a>
 800410e:	68fb      	ldr	r3, [r7, #12]
 8004110:	681b      	ldr	r3, [r3, #0]
 8004112:	681a      	ldr	r2, [r3, #0]
 8004114:	68fb      	ldr	r3, [r7, #12]
 8004116:	681b      	ldr	r3, [r3, #0]
 8004118:	f042 0201 	orr.w	r2, r2, #1
 800411c:	601a      	str	r2, [r3, #0]
 800411e:	2300      	movs	r3, #0
 8004120:	4618      	mov	r0, r3
 8004122:	3718      	adds	r7, #24
 8004124:	46bd      	mov	sp, r7
 8004126:	bd80      	pop	{r7, pc}
 8004128:	0800443b 	.word	0x0800443b
 800412c:	080044e3 	.word	0x080044e3
 8004130:	080043a9 	.word	0x080043a9
 8004134:	40012c00 	.word	0x40012c00
 8004138:	40013400 	.word	0x40013400
 800413c:	40014000 	.word	0x40014000
 8004140:	40014400 	.word	0x40014400
 8004144:	40014800 	.word	0x40014800
 8004148:	00010007 	.word	0x00010007

0800414c <HAL_TIM_PWM_ConfigChannel>:
 800414c:	b580      	push	{r7, lr}
 800414e:	b084      	sub	sp, #16
 8004150:	af00      	add	r7, sp, #0
 8004152:	60f8      	str	r0, [r7, #12]
 8004154:	60b9      	str	r1, [r7, #8]
 8004156:	607a      	str	r2, [r7, #4]
 8004158:	68fb      	ldr	r3, [r7, #12]
 800415a:	f893 303c 	ldrb.w	r3, [r3, #60]	; 0x3c
 800415e:	2b01      	cmp	r3, #1
 8004160:	d101      	bne.n	8004166 <HAL_TIM_PWM_ConfigChannel+0x1a>
 8004162:	2302      	movs	r3, #2
 8004164:	e0fd      	b.n	8004362 <HAL_TIM_PWM_ConfigChannel+0x216>
 8004166:	68fb      	ldr	r3, [r7, #12]
 8004168:	2201      	movs	r2, #1
 800416a:	f883 203c 	strb.w	r2, [r3, #60]	; 0x3c
 800416e:	687b      	ldr	r3, [r7, #4]
 8004170:	2b14      	cmp	r3, #20
 8004172:	f200 80f0 	bhi.w	8004356 <HAL_TIM_PWM_ConfigChannel+0x20a>
 8004176:	a201      	add	r2, pc, #4	; (adr r2, 800417c <HAL_TIM_PWM_ConfigChannel+0x30>)
 8004178:	f852 f023 	ldr.w	pc, [r2, r3, lsl #2]
 800417c:	080041d1 	.word	0x080041d1
 8004180:	08004357 	.word	0x08004357
 8004184:	08004357 	.word	0x08004357
 8004188:	08004357 	.word	0x08004357
 800418c:	08004211 	.word	0x08004211
 8004190:	08004357 	.word	0x08004357
 8004194:	08004357 	.word	0x08004357
 8004198:	08004357 	.word	0x08004357
 800419c:	08004253 	.word	0x08004253
 80041a0:	08004357 	.word	0x08004357
 80041a4:	08004357 	.word	0x08004357
 80041a8:	08004357 	.word	0x08004357
 80041ac:	08004293 	.word	0x08004293
 80041b0:	08004357 	.word	0x08004357
 80041b4:	08004357 	.word	0x08004357
 80041b8:	08004357 	.word	0x08004357
 80041bc:	080042d5 	.word	0x080042d5
 80041c0:	08004357 	.word	0x08004357
 80041c4:	08004357 	.word	0x08004357
 80041c8:	08004357 	.word	0x08004357
 80041cc:	08004315 	.word	0x08004315
 80041d0:	68fb      	ldr	r3, [r7, #12]
 80041d2:	681b      	ldr	r3, [r3, #0]
 80041d4:	68b9      	ldr	r1, [r7, #8]
 80041d6:	4618      	mov	r0, r3
 80041d8:	f000 fa48 	bl	800466c <TIM_OC1_SetConfig>
 80041dc:	68fb      	ldr	r3, [r7, #12]
 80041de:	681b      	ldr	r3, [r3, #0]
 80041e0:	699a      	ldr	r2, [r3, #24]
 80041e2:	68fb      	ldr	r3, [r7, #12]
 80041e4:	681b      	ldr	r3, [r3, #0]
 80041e6:	f042 0208 	orr.w	r2, r2, #8
 80041ea:	619a      	str	r2, [r3, #24]
 80041ec:	68fb      	ldr	r3, [r7, #12]
 80041ee:	681b      	ldr	r3, [r3, #0]
 80041f0:	699a      	ldr	r2, [r3, #24]
 80041f2:	68fb      	ldr	r3, [r7, #12]
 80041f4:	681b      	ldr	r3, [r3, #0]
 80041f6:	f022 0204 	bic.w	r2, r2, #4
 80041fa:	619a      	str	r2, [r3, #24]
 80041fc:	68fb      	ldr	r3, [r7, #12]
 80041fe:	681b      	ldr	r3, [r3, #0]
 8004200:	6999      	ldr	r1, [r3, #24]
 8004202:	68bb      	ldr	r3, [r7, #8]
 8004204:	691a      	ldr	r2, [r3, #16]
 8004206:	68fb      	ldr	r3, [r7, #12]
 8004208:	681b      	ldr	r3, [r3, #0]
 800420a:	430a      	orrs	r2, r1
 800420c:	619a      	str	r2, [r3, #24]
 800420e:	e0a3      	b.n	8004358 <HAL_TIM_PWM_ConfigChannel+0x20c>
 8004210:	68fb      	ldr	r3, [r7, #12]
 8004212:	681b      	ldr	r3, [r3, #0]
 8004214:	68b9      	ldr	r1, [r7, #8]
 8004216:	4618      	mov	r0, r3
 8004218:	f000 fab8 	bl	800478c <TIM_OC2_SetConfig>
 800421c:	68fb      	ldr	r3, [r7, #12]
 800421e:	681b      	ldr	r3, [r3, #0]
 8004220:	699a      	ldr	r2, [r3, #24]
 8004222:	68fb      	ldr	r3, [r7, #12]
 8004224:	681b      	ldr	r3, [r3, #0]
 8004226:	f442 6200 	orr.w	r2, r2, #2048	; 0x800
 800422a:	619a      	str	r2, [r3, #24]
 800422c:	68fb      	ldr	r3, [r7, #12]
 800422e:	681b      	ldr	r3, [r3, #0]
 8004230:	699a      	ldr	r2, [r3, #24]
 8004232:	68fb      	ldr	r3, [r7, #12]
 8004234:	681b      	ldr	r3, [r3, #0]
 8004236:	f422 6280 	bic.w	r2, r2, #1024	; 0x400
 800423a:	619a      	str	r2, [r3, #24]
 800423c:	68fb      	ldr	r3, [r7, #12]
 800423e:	681b      	ldr	r3, [r3, #0]
 8004240:	6999      	ldr	r1, [r3, #24]
 8004242:	68bb      	ldr	r3, [r7, #8]
 8004244:	691b      	ldr	r3, [r3, #16]
 8004246:	021a      	lsls	r2, r3, #8
 8004248:	68fb      	ldr	r3, [r7, #12]
 800424a:	681b      	ldr	r3, [r3, #0]
 800424c:	430a      	orrs	r2, r1
 800424e:	619a      	str	r2, [r3, #24]
 8004250:	e082      	b.n	8004358 <HAL_TIM_PWM_ConfigChannel+0x20c>
 8004252:	68fb      	ldr	r3, [r7, #12]
 8004254:	681b      	ldr	r3, [r3, #0]
 8004256:	68b9      	ldr	r1, [r7, #8]
 8004258:	4618      	mov	r0, r3
 800425a:	f000 fb21 	bl	80048a0 <TIM_OC3_SetConfig>
 800425e:	68fb      	ldr	r3, [r7, #12]
 8004260:	681b      	ldr	r3, [r3, #0]
 8004262:	69da      	ldr	r2, [r3, #28]
 8004264:	68fb      	ldr	r3, [r7, #12]
 8004266:	681b      	ldr	r3, [r3, #0]
 8004268:	f042 0208 	orr.w	r2, r2, #8
 800426c:	61da      	str	r2, [r3, #28]
 800426e:	68fb      	ldr	r3, [r7, #12]
 8004270:	681b      	ldr	r3, [r3, #0]
 8004272:	69da      	ldr	r2, [r3, #28]
 8004274:	68fb      	ldr	r3, [r7, #12]
 8004276:	681b      	ldr	r3, [r3, #0]
 8004278:	f022 0204 	bic.w	r2, r2, #4
 800427c:	61da      	str	r2, [r3, #28]
 800427e:	68fb      	ldr	r3, [r7, #12]
 8004280:	681b      	ldr	r3, [r3, #0]
 8004282:	69d9      	ldr	r1, [r3, #28]
 8004284:	68bb      	ldr	r3, [r7, #8]
 8004286:	691a      	ldr	r2, [r3, #16]
 8004288:	68fb      	ldr	r3, [r7, #12]
 800428a:	681b      	ldr	r3, [r3, #0]
 800428c:	430a      	orrs	r2, r1
 800428e:	61da      	str	r2, [r3, #28]
 8004290:	e062      	b.n	8004358 <HAL_TIM_PWM_ConfigChannel+0x20c>
 8004292:	68fb      	ldr	r3, [r7, #12]
 8004294:	681b      	ldr	r3, [r3, #0]
 8004296:	68b9      	ldr	r1, [r7, #8]
 8004298:	4618      	mov	r0, r3
 800429a:	f000 fb89 	bl	80049b0 <TIM_OC4_SetConfig>
 800429e:	68fb      	ldr	r3, [r7, #12]
 80042a0:	681b      	ldr	r3, [r3, #0]
 80042a2:	69da      	ldr	r2, [r3, #28]
 80042a4:	68fb      	ldr	r3, [r7, #12]
 80042a6:	681b      	ldr	r3, [r3, #0]
 80042a8:	f442 6200 	orr.w	r2, r2, #2048	; 0x800
 80042ac:	61da      	str	r2, [r3, #28]
 80042ae:	68fb      	ldr	r3, [r7, #12]
 80042b0:	681b      	ldr	r3, [r3, #0]
 80042b2:	69da      	ldr	r2, [r3, #28]
 80042b4:	68fb      	ldr	r3, [r7, #12]
 80042b6:	681b      	ldr	r3, [r3, #0]
 80042b8:	f422 6280 	bic.w	r2, r2, #1024	; 0x400
 80042bc:	61da      	str	r2, [r3, #28]
 80042be:	68fb      	ldr	r3, [r7, #12]
 80042c0:	681b      	ldr	r3, [r3, #0]
 80042c2:	69d9      	ldr	r1, [r3, #28]
 80042c4:	68bb      	ldr	r3, [r7, #8]
 80042c6:	691b      	ldr	r3, [r3, #16]
 80042c8:	021a      	lsls	r2, r3, #8
 80042ca:	68fb      	ldr	r3, [r7, #12]
 80042cc:	681b      	ldr	r3, [r3, #0]
 80042ce:	430a      	orrs	r2, r1
 80042d0:	61da      	str	r2, [r3, #28]
 80042d2:	e041      	b.n	8004358 <HAL_TIM_PWM_ConfigChannel+0x20c>
 80042d4:	68fb      	ldr	r3, [r7, #12]
 80042d6:	681b      	ldr	r3, [r3, #0]
 80042d8:	68b9      	ldr	r1, [r7, #8]
 80042da:	4618      	mov	r0, r3
 80042dc:	f000 fbf2 	bl	8004ac4 <TIM_OC5_SetConfig>
 80042e0:	68fb      	ldr	r3, [r7, #12]
 80042e2:	681b      	ldr	r3, [r3, #0]
 80042e4:	6d1a      	ldr	r2, [r3, #80]	; 0x50
 80042e6:	68fb      	ldr	r3, [r7, #12]
 80042e8:	681b      	ldr	r3, [r3, #0]
 80042ea:	f042 0208 	orr.w	r2, r2, #8
 80042ee:	651a      	str	r2, [r3, #80]	; 0x50
 80042f0:	68fb      	ldr	r3, [r7, #12]
 80042f2:	681b      	ldr	r3, [r3, #0]
 80042f4:	6d1a      	ldr	r2, [r3, #80]	; 0x50
 80042f6:	68fb      	ldr	r3, [r7, #12]
 80042f8:	681b      	ldr	r3, [r3, #0]
 80042fa:	f022 0204 	bic.w	r2, r2, #4
 80042fe:	651a      	str	r2, [r3, #80]	; 0x50
 8004300:	68fb      	ldr	r3, [r7, #12]
 8004302:	681b      	ldr	r3, [r3, #0]
 8004304:	6d19      	ldr	r1, [r3, #80]	; 0x50
 8004306:	68bb      	ldr	r3, [r7, #8]
 8004308:	691a      	ldr	r2, [r3, #16]
 800430a:	68fb      	ldr	r3, [r7, #12]
 800430c:	681b      	ldr	r3, [r3, #0]
 800430e:	430a      	orrs	r2, r1
 8004310:	651a      	str	r2, [r3, #80]	; 0x50
 8004312:	e021      	b.n	8004358 <HAL_TIM_PWM_ConfigChannel+0x20c>
 8004314:	68fb      	ldr	r3, [r7, #12]
 8004316:	681b      	ldr	r3, [r3, #0]
 8004318:	68b9      	ldr	r1, [r7, #8]
 800431a:	4618      	mov	r0, r3
 800431c:	f000 fc36 	bl	8004b8c <TIM_OC6_SetConfig>
 8004320:	68fb      	ldr	r3, [r7, #12]
 8004322:	681b      	ldr	r3, [r3, #0]
 8004324:	6d1a      	ldr	r2, [r3, #80]	; 0x50
 8004326:	68fb      	ldr	r3, [r7, #12]
 8004328:	681b      	ldr	r3, [r3, #0]
 800432a:	f442 6200 	orr.w	r2, r2, #2048	; 0x800
 800432e:	651a      	str	r2, [r3, #80]	; 0x50
 8004330:	68fb      	ldr	r3, [r7, #12]
 8004332:	681b      	ldr	r3, [r3, #0]
 8004334:	6d1a      	ldr	r2, [r3, #80]	; 0x50
 8004336:	68fb      	ldr	r3, [r7, #12]
 8004338:	681b      	ldr	r3, [r3, #0]
 800433a:	f422 6280 	bic.w	r2, r2, #1024	; 0x400
 800433e:	651a      	str	r2, [r3, #80]	; 0x50
 8004340:	68fb      	ldr	r3, [r7, #12]
 8004342:	681b      	ldr	r3, [r3, #0]
 8004344:	6d19      	ldr	r1, [r3, #80]	; 0x50
 8004346:	68bb      	ldr	r3, [r7, #8]
 8004348:	691b      	ldr	r3, [r3, #16]
 800434a:	021a      	lsls	r2, r3, #8
 800434c:	68fb      	ldr	r3, [r7, #12]
 800434e:	681b      	ldr	r3, [r3, #0]
 8004350:	430a      	orrs	r2, r1
 8004352:	651a      	str	r2, [r3, #80]	; 0x50
 8004354:	e000      	b.n	8004358 <HAL_TIM_PWM_ConfigChannel+0x20c>
 8004356:	bf00      	nop
 8004358:	68fb      	ldr	r3, [r7, #12]
 800435a:	2200      	movs	r2, #0
 800435c:	f883 203c 	strb.w	r2, [r3, #60]	; 0x3c
 8004360:	2300      	movs	r3, #0
 8004362:	4618      	mov	r0, r3
 8004364:	3710      	adds	r7, #16
 8004366:	46bd      	mov	sp, r7
 8004368:	bd80      	pop	{r7, pc}
 800436a:	bf00      	nop

0800436c <HAL_TIM_PWM_PulseFinishedCallback>:
 800436c:	b480      	push	{r7}
 800436e:	b083      	sub	sp, #12
 8004370:	af00      	add	r7, sp, #0
 8004372:	6078      	str	r0, [r7, #4]
 8004374:	bf00      	nop
 8004376:	370c      	adds	r7, #12
 8004378:	46bd      	mov	sp, r7
 800437a:	f85d 7b04 	ldr.w	r7, [sp], #4
 800437e:	4770      	bx	lr

08004380 <HAL_TIM_PWM_PulseFinishedHalfCpltCallback>:
 8004380:	b480      	push	{r7}
 8004382:	b083      	sub	sp, #12
 8004384:	af00      	add	r7, sp, #0
 8004386:	6078      	str	r0, [r7, #4]
 8004388:	bf00      	nop
 800438a:	370c      	adds	r7, #12
 800438c:	46bd      	mov	sp, r7
 800438e:	f85d 7b04 	ldr.w	r7, [sp], #4
 8004392:	4770      	bx	lr

08004394 <HAL_TIM_ErrorCallback>:
 8004394:	b480      	push	{r7}
 8004396:	b083      	sub	sp, #12
 8004398:	af00      	add	r7, sp, #0
 800439a:	6078      	str	r0, [r7, #4]
 800439c:	bf00      	nop
 800439e:	370c      	adds	r7, #12
 80043a0:	46bd      	mov	sp, r7
 80043a2:	f85d 7b04 	ldr.w	r7, [sp], #4
 80043a6:	4770      	bx	lr

080043a8 <TIM_DMAError>:
 80043a8:	b580      	push	{r7, lr}
 80043aa:	b084      	sub	sp, #16
 80043ac:	af00      	add	r7, sp, #0
 80043ae:	6078      	str	r0, [r7, #4]
 80043b0:	687b      	ldr	r3, [r7, #4]
 80043b2:	6a9b      	ldr	r3, [r3, #40]	; 0x28
 80043b4:	60fb      	str	r3, [r7, #12]
 80043b6:	68fb      	ldr	r3, [r7, #12]
 80043b8:	6a5b      	ldr	r3, [r3, #36]	; 0x24
 80043ba:	687a      	ldr	r2, [r7, #4]
 80043bc:	429a      	cmp	r2, r3
 80043be:	d107      	bne.n	80043d0 <TIM_DMAError+0x28>
 80043c0:	68fb      	ldr	r3, [r7, #12]
 80043c2:	2201      	movs	r2, #1
 80043c4:	771a      	strb	r2, [r3, #28]
 80043c6:	68fb      	ldr	r3, [r7, #12]
 80043c8:	2201      	movs	r2, #1
 80043ca:	f883 203e 	strb.w	r2, [r3, #62]	; 0x3e
 80043ce:	e02a      	b.n	8004426 <TIM_DMAError+0x7e>
 80043d0:	68fb      	ldr	r3, [r7, #12]
 80043d2:	6a9b      	ldr	r3, [r3, #40]	; 0x28
 80043d4:	687a      	ldr	r2, [r7, #4]
 80043d6:	429a      	cmp	r2, r3
 80043d8:	d107      	bne.n	80043ea <TIM_DMAError+0x42>
 80043da:	68fb      	ldr	r3, [r7, #12]
 80043dc:	2202      	movs	r2, #2
 80043de:	771a      	strb	r2, [r3, #28]
 80043e0:	68fb      	ldr	r3, [r7, #12]
 80043e2:	2201      	movs	r2, #1
 80043e4:	f883 203f 	strb.w	r2, [r3, #63]	; 0x3f
 80043e8:	e01d      	b.n	8004426 <TIM_DMAError+0x7e>
 80043ea:	68fb      	ldr	r3, [r7, #12]
 80043ec:	6adb      	ldr	r3, [r3, #44]	; 0x2c
 80043ee:	687a      	ldr	r2, [r7, #4]
 80043f0:	429a      	cmp	r2, r3
 80043f2:	d107      	bne.n	8004404 <TIM_DMAError+0x5c>
 80043f4:	68fb      	ldr	r3, [r7, #12]
 80043f6:	2204      	movs	r2, #4
 80043f8:	771a      	strb	r2, [r3, #28]
 80043fa:	68fb      	ldr	r3, [r7, #12]
 80043fc:	2201      	movs	r2, #1
 80043fe:	f883 2040 	strb.w	r2, [r3, #64]	; 0x40
 8004402:	e010      	b.n	8004426 <TIM_DMAError+0x7e>
 8004404:	68fb      	ldr	r3, [r7, #12]
 8004406:	6b1b      	ldr	r3, [r3, #48]	; 0x30
 8004408:	687a      	ldr	r2, [r7, #4]
 800440a:	429a      	cmp	r2, r3
 800440c:	d107      	bne.n	800441e <TIM_DMAError+0x76>
 800440e:	68fb      	ldr	r3, [r7, #12]
 8004410:	2208      	movs	r2, #8
 8004412:	771a      	strb	r2, [r3, #28]
 8004414:	68fb      	ldr	r3, [r7, #12]
 8004416:	2201      	movs	r2, #1
 8004418:	f883 2041 	strb.w	r2, [r3, #65]	; 0x41
 800441c:	e003      	b.n	8004426 <TIM_DMAError+0x7e>
 800441e:	68fb      	ldr	r3, [r7, #12]
 8004420:	2201      	movs	r2, #1
 8004422:	f883 203d 	strb.w	r2, [r3, #61]	; 0x3d
 8004426:	68f8      	ldr	r0, [r7, #12]
 8004428:	f7ff ffb4 	bl	8004394 <HAL_TIM_ErrorCallback>
 800442c:	68fb      	ldr	r3, [r7, #12]
 800442e:	2200      	movs	r2, #0
 8004430:	771a      	strb	r2, [r3, #28]
 8004432:	bf00      	nop
 8004434:	3710      	adds	r7, #16
 8004436:	46bd      	mov	sp, r7
 8004438:	bd80      	pop	{r7, pc}

0800443a <TIM_DMADelayPulseCplt>:
 800443a:	b580      	push	{r7, lr}
 800443c:	b084      	sub	sp, #16
 800443e:	af00      	add	r7, sp, #0
 8004440:	6078      	str	r0, [r7, #4]
 8004442:	687b      	ldr	r3, [r7, #4]
 8004444:	6a9b      	ldr	r3, [r3, #40]	; 0x28
 8004446:	60fb      	str	r3, [r7, #12]
 8004448:	68fb      	ldr	r3, [r7, #12]
 800444a:	6a5b      	ldr	r3, [r3, #36]	; 0x24
 800444c:	687a      	ldr	r2, [r7, #4]
 800444e:	429a      	cmp	r2, r3
 8004450:	d10b      	bne.n	800446a <TIM_DMADelayPulseCplt+0x30>
 8004452:	68fb      	ldr	r3, [r7, #12]
 8004454:	2201      	movs	r2, #1
 8004456:	771a      	strb	r2, [r3, #28]
 8004458:	687b      	ldr	r3, [r7, #4]
 800445a:	69db      	ldr	r3, [r3, #28]
 800445c:	2b00      	cmp	r3, #0
 800445e:	d136      	bne.n	80044ce <TIM_DMADelayPulseCplt+0x94>
 8004460:	68fb      	ldr	r3, [r7, #12]
 8004462:	2201      	movs	r2, #1
 8004464:	f883 203e 	strb.w	r2, [r3, #62]	; 0x3e
 8004468:	e031      	b.n	80044ce <TIM_DMADelayPulseCplt+0x94>
 800446a:	68fb      	ldr	r3, [r7, #12]
 800446c:	6a9b      	ldr	r3, [r3, #40]	; 0x28
 800446e:	687a      	ldr	r2, [r7, #4]
 8004470:	429a      	cmp	r2, r3
 8004472:	d10b      	bne.n	800448c <TIM_DMADelayPulseCplt+0x52>
 8004474:	68fb      	ldr	r3, [r7, #12]
 8004476:	2202      	movs	r2, #2
 8004478:	771a      	strb	r2, [r3, #28]
 800447a:	687b      	ldr	r3, [r7, #4]
 800447c:	69db      	ldr	r3, [r3, #28]
 800447e:	2b00      	cmp	r3, #0
 8004480:	d125      	bne.n	80044ce <TIM_DMADelayPulseCplt+0x94>
 8004482:	68fb      	ldr	r3, [r7, #12]
 8004484:	2201      	movs	r2, #1
 8004486:	f883 203f 	strb.w	r2, [r3, #63]	; 0x3f
 800448a:	e020      	b.n	80044ce <TIM_DMADelayPulseCplt+0x94>
 800448c:	68fb      	ldr	r3, [r7, #12]
 800448e:	6adb      	ldr	r3, [r3, #44]	; 0x2c
 8004490:	687a      	ldr	r2, [r7, #4]
 8004492:	429a      	cmp	r2, r3
 8004494:	d10b      	bne.n	80044ae <TIM_DMADelayPulseCplt+0x74>
 8004496:	68fb      	ldr	r3, [r7, #12]
 8004498:	2204      	movs	r2, #4
 800449a:	771a      	strb	r2, [r3, #28]
 800449c:	687b      	ldr	r3, [r7, #4]
 800449e:	69db      	ldr	r3, [r3, #28]
 80044a0:	2b00      	cmp	r3, #0
 80044a2:	d114      	bne.n	80044ce <TIM_DMADelayPulseCplt+0x94>
 80044a4:	68fb      	ldr	r3, [r7, #12]
 80044a6:	2201      	movs	r2, #1
 80044a8:	f883 2040 	strb.w	r2, [r3, #64]	; 0x40
 80044ac:	e00f      	b.n	80044ce <TIM_DMADelayPulseCplt+0x94>
 80044ae:	68fb      	ldr	r3, [r7, #12]
 80044b0:	6b1b      	ldr	r3, [r3, #48]	; 0x30
 80044b2:	687a      	ldr	r2, [r7, #4]
 80044b4:	429a      	cmp	r2, r3
 80044b6:	d10a      	bne.n	80044ce <TIM_DMADelayPulseCplt+0x94>
 80044b8:	68fb      	ldr	r3, [r7, #12]
 80044ba:	2208      	movs	r2, #8
 80044bc:	771a      	strb	r2, [r3, #28]
 80044be:	687b      	ldr	r3, [r7, #4]
 80044c0:	69db      	ldr	r3, [r3, #28]
 80044c2:	2b00      	cmp	r3, #0
 80044c4:	d103      	bne.n	80044ce <TIM_DMADelayPulseCplt+0x94>
 80044c6:	68fb      	ldr	r3, [r7, #12]
 80044c8:	2201      	movs	r2, #1
 80044ca:	f883 2041 	strb.w	r2, [r3, #65]	; 0x41
 80044ce:	68f8      	ldr	r0, [r7, #12]
 80044d0:	f7ff ff4c 	bl	800436c <HAL_TIM_PWM_PulseFinishedCallback>
 80044d4:	68fb      	ldr	r3, [r7, #12]
 80044d6:	2200      	movs	r2, #0
 80044d8:	771a      	strb	r2, [r3, #28]
 80044da:	bf00      	nop
 80044dc:	3710      	adds	r7, #16
 80044de:	46bd      	mov	sp, r7
 80044e0:	bd80      	pop	{r7, pc}

080044e2 <TIM_DMADelayPulseHalfCplt>:
 80044e2:	b580      	push	{r7, lr}
 80044e4:	b084      	sub	sp, #16
 80044e6:	af00      	add	r7, sp, #0
 80044e8:	6078      	str	r0, [r7, #4]
 80044ea:	687b      	ldr	r3, [r7, #4]
 80044ec:	6a9b      	ldr	r3, [r3, #40]	; 0x28
 80044ee:	60fb      	str	r3, [r7, #12]
 80044f0:	68fb      	ldr	r3, [r7, #12]
 80044f2:	6a5b      	ldr	r3, [r3, #36]	; 0x24
 80044f4:	687a      	ldr	r2, [r7, #4]
 80044f6:	429a      	cmp	r2, r3
 80044f8:	d103      	bne.n	8004502 <TIM_DMADelayPulseHalfCplt+0x20>
 80044fa:	68fb      	ldr	r3, [r7, #12]
 80044fc:	2201      	movs	r2, #1
 80044fe:	771a      	strb	r2, [r3, #28]
 8004500:	e019      	b.n	8004536 <TIM_DMADelayPulseHalfCplt+0x54>
 8004502:	68fb      	ldr	r3, [r7, #12]
 8004504:	6a9b      	ldr	r3, [r3, #40]	; 0x28
 8004506:	687a      	ldr	r2, [r7, #4]
 8004508:	429a      	cmp	r2, r3
 800450a:	d103      	bne.n	8004514 <TIM_DMADelayPulseHalfCplt+0x32>
 800450c:	68fb      	ldr	r3, [r7, #12]
 800450e:	2202      	movs	r2, #2
 8004510:	771a      	strb	r2, [r3, #28]
 8004512:	e010      	b.n	8004536 <TIM_DMADelayPulseHalfCplt+0x54>
 8004514:	68fb      	ldr	r3, [r7, #12]
 8004516:	6adb      	ldr	r3, [r3, #44]	; 0x2c
 8004518:	687a      	ldr	r2, [r7, #4]
 800451a:	429a      	cmp	r2, r3
 800451c:	d103      	bne.n	8004526 <TIM_DMADelayPulseHalfCplt+0x44>
 800451e:	68fb      	ldr	r3, [r7, #12]
 8004520:	2204      	movs	r2, #4
 8004522:	771a      	strb	r2, [r3, #28]
 8004524:	e007      	b.n	8004536 <TIM_DMADelayPulseHalfCplt+0x54>
 8004526:	68fb      	ldr	r3, [r7, #12]
 8004528:	6b1b      	ldr	r3, [r3, #48]	; 0x30
 800452a:	687a      	ldr	r2, [r7, #4]
 800452c:	429a      	cmp	r2, r3
 800452e:	d102      	bne.n	8004536 <TIM_DMADelayPulseHalfCplt+0x54>
 8004530:	68fb      	ldr	r3, [r7, #12]
 8004532:	2208      	movs	r2, #8
 8004534:	771a      	strb	r2, [r3, #28]
 8004536:	68f8      	ldr	r0, [r7, #12]
 8004538:	f7ff ff22 	bl	8004380 <HAL_TIM_PWM_PulseFinishedHalfCpltCallback>
 800453c:	68fb      	ldr	r3, [r7, #12]
 800453e:	2200      	movs	r2, #0
 8004540:	771a      	strb	r2, [r3, #28]
 8004542:	bf00      	nop
 8004544:	3710      	adds	r7, #16
 8004546:	46bd      	mov	sp, r7
 8004548:	bd80      	pop	{r7, pc}
	...

0800454c <TIM_Base_SetConfig>:
 800454c:	b480      	push	{r7}
 800454e:	b085      	sub	sp, #20
 8004550:	af00      	add	r7, sp, #0
 8004552:	6078      	str	r0, [r7, #4]
 8004554:	6039      	str	r1, [r7, #0]
 8004556:	687b      	ldr	r3, [r7, #4]
 8004558:	681b      	ldr	r3, [r3, #0]
 800455a:	60fb      	str	r3, [r7, #12]
 800455c:	687b      	ldr	r3, [r7, #4]
 800455e:	4a3c      	ldr	r2, [pc, #240]	; (8004650 <TIM_Base_SetConfig+0x104>)
 8004560:	4293      	cmp	r3, r2
 8004562:	d00f      	beq.n	8004584 <TIM_Base_SetConfig+0x38>
 8004564:	687b      	ldr	r3, [r7, #4]
 8004566:	f1b3 4f80 	cmp.w	r3, #1073741824	; 0x40000000
 800456a:	d00b      	beq.n	8004584 <TIM_Base_SetConfig+0x38>
 800456c:	687b      	ldr	r3, [r7, #4]
 800456e:	4a39      	ldr	r2, [pc, #228]	; (8004654 <TIM_Base_SetConfig+0x108>)
 8004570:	4293      	cmp	r3, r2
 8004572:	d007      	beq.n	8004584 <TIM_Base_SetConfig+0x38>
 8004574:	687b      	ldr	r3, [r7, #4]
 8004576:	4a38      	ldr	r2, [pc, #224]	; (8004658 <TIM_Base_SetConfig+0x10c>)
 8004578:	4293      	cmp	r3, r2
 800457a:	d003      	beq.n	8004584 <TIM_Base_SetConfig+0x38>
 800457c:	687b      	ldr	r3, [r7, #4]
 800457e:	4a37      	ldr	r2, [pc, #220]	; (800465c <TIM_Base_SetConfig+0x110>)
 8004580:	4293      	cmp	r3, r2
 8004582:	d108      	bne.n	8004596 <TIM_Base_SetConfig+0x4a>
 8004584:	68fb      	ldr	r3, [r7, #12]
 8004586:	f023 0370 	bic.w	r3, r3, #112	; 0x70
 800458a:	60fb      	str	r3, [r7, #12]
 800458c:	683b      	ldr	r3, [r7, #0]
 800458e:	685b      	ldr	r3, [r3, #4]
 8004590:	68fa      	ldr	r2, [r7, #12]
 8004592:	4313      	orrs	r3, r2
 8004594:	60fb      	str	r3, [r7, #12]
 8004596:	687b      	ldr	r3, [r7, #4]
 8004598:	4a2d      	ldr	r2, [pc, #180]	; (8004650 <TIM_Base_SetConfig+0x104>)
 800459a:	4293      	cmp	r3, r2
 800459c:	d01b      	beq.n	80045d6 <TIM_Base_SetConfig+0x8a>
 800459e:	687b      	ldr	r3, [r7, #4]
 80045a0:	f1b3 4f80 	cmp.w	r3, #1073741824	; 0x40000000
 80045a4:	d017      	beq.n	80045d6 <TIM_Base_SetConfig+0x8a>
 80045a6:	687b      	ldr	r3, [r7, #4]
 80045a8:	4a2a      	ldr	r2, [pc, #168]	; (8004654 <TIM_Base_SetConfig+0x108>)
 80045aa:	4293      	cmp	r3, r2
 80045ac:	d013      	beq.n	80045d6 <TIM_Base_SetConfig+0x8a>
 80045ae:	687b      	ldr	r3, [r7, #4]
 80045b0:	4a29      	ldr	r2, [pc, #164]	; (8004658 <TIM_Base_SetConfig+0x10c>)
 80045b2:	4293      	cmp	r3, r2
 80045b4:	d00f      	beq.n	80045d6 <TIM_Base_SetConfig+0x8a>
 80045b6:	687b      	ldr	r3, [r7, #4]
 80045b8:	4a28      	ldr	r2, [pc, #160]	; (800465c <TIM_Base_SetConfig+0x110>)
 80045ba:	4293      	cmp	r3, r2
 80045bc:	d00b      	beq.n	80045d6 <TIM_Base_SetConfig+0x8a>
 80045be:	687b      	ldr	r3, [r7, #4]
 80045c0:	4a27      	ldr	r2, [pc, #156]	; (8004660 <TIM_Base_SetConfig+0x114>)
 80045c2:	4293      	cmp	r3, r2
 80045c4:	d007      	beq.n	80045d6 <TIM_Base_SetConfig+0x8a>
 80045c6:	687b      	ldr	r3, [r7, #4]
 80045c8:	4a26      	ldr	r2, [pc, #152]	; (8004664 <TIM_Base_SetConfig+0x118>)
 80045ca:	4293      	cmp	r3, r2
 80045cc:	d003      	beq.n	80045d6 <TIM_Base_SetConfig+0x8a>
 80045ce:	687b      	ldr	r3, [r7, #4]
 80045d0:	4a25      	ldr	r2, [pc, #148]	; (8004668 <TIM_Base_SetConfig+0x11c>)
 80045d2:	4293      	cmp	r3, r2
 80045d4:	d108      	bne.n	80045e8 <TIM_Base_SetConfig+0x9c>
 80045d6:	68fb      	ldr	r3, [r7, #12]
 80045d8:	f423 7340 	bic.w	r3, r3, #768	; 0x300
 80045dc:	60fb      	str	r3, [r7, #12]
 80045de:	683b      	ldr	r3, [r7, #0]
 80045e0:	68db      	ldr	r3, [r3, #12]
 80045e2:	68fa      	ldr	r2, [r7, #12]
 80045e4:	4313      	orrs	r3, r2
 80045e6:	60fb      	str	r3, [r7, #12]
 80045e8:	68fb      	ldr	r3, [r7, #12]
 80045ea:	f023 0280 	bic.w	r2, r3, #128	; 0x80
 80045ee:	683b      	ldr	r3, [r7, #0]
 80045f0:	695b      	ldr	r3, [r3, #20]
 80045f2:	4313      	orrs	r3, r2
 80045f4:	60fb      	str	r3, [r7, #12]
 80045f6:	687b      	ldr	r3, [r7, #4]
 80045f8:	68fa      	ldr	r2, [r7, #12]
 80045fa:	601a      	str	r2, [r3, #0]
 80045fc:	683b      	ldr	r3, [r7, #0]
 80045fe:	689a      	ldr	r2, [r3, #8]
 8004600:	687b      	ldr	r3, [r7, #4]
 8004602:	62da      	str	r2, [r3, #44]	; 0x2c
 8004604:	683b      	ldr	r3, [r7, #0]
 8004606:	681a      	ldr	r2, [r3, #0]
 8004608:	687b      	ldr	r3, [r7, #4]
 800460a:	629a      	str	r2, [r3, #40]	; 0x28
 800460c:	687b      	ldr	r3, [r7, #4]
 800460e:	4a10      	ldr	r2, [pc, #64]	; (8004650 <TIM_Base_SetConfig+0x104>)
 8004610:	4293      	cmp	r3, r2
 8004612:	d00f      	beq.n	8004634 <TIM_Base_SetConfig+0xe8>
 8004614:	687b      	ldr	r3, [r7, #4]
 8004616:	4a11      	ldr	r2, [pc, #68]	; (800465c <TIM_Base_SetConfig+0x110>)
 8004618:	4293      	cmp	r3, r2
 800461a:	d00b      	beq.n	8004634 <TIM_Base_SetConfig+0xe8>
 800461c:	687b      	ldr	r3, [r7, #4]
 800461e:	4a10      	ldr	r2, [pc, #64]	; (8004660 <TIM_Base_SetConfig+0x114>)
 8004620:	4293      	cmp	r3, r2
 8004622:	d007      	beq.n	8004634 <TIM_Base_SetConfig+0xe8>
 8004624:	687b      	ldr	r3, [r7, #4]
 8004626:	4a0f      	ldr	r2, [pc, #60]	; (8004664 <TIM_Base_SetConfig+0x118>)
 8004628:	4293      	cmp	r3, r2
 800462a:	d003      	beq.n	8004634 <TIM_Base_SetConfig+0xe8>
 800462c:	687b      	ldr	r3, [r7, #4]
 800462e:	4a0e      	ldr	r2, [pc, #56]	; (8004668 <TIM_Base_SetConfig+0x11c>)
 8004630:	4293      	cmp	r3, r2
 8004632:	d103      	bne.n	800463c <TIM_Base_SetConfig+0xf0>
 8004634:	683b      	ldr	r3, [r7, #0]
 8004636:	691a      	ldr	r2, [r3, #16]
 8004638:	687b      	ldr	r3, [r7, #4]
 800463a:	631a      	str	r2, [r3, #48]	; 0x30
 800463c:	687b      	ldr	r3, [r7, #4]
 800463e:	2201      	movs	r2, #1
 8004640:	615a      	str	r2, [r3, #20]
 8004642:	bf00      	nop
 8004644:	3714      	adds	r7, #20
 8004646:	46bd      	mov	sp, r7
 8004648:	f85d 7b04 	ldr.w	r7, [sp], #4
 800464c:	4770      	bx	lr
 800464e:	bf00      	nop
 8004650:	40012c00 	.word	0x40012c00
 8004654:	40000400 	.word	0x40000400
 8004658:	40000800 	.word	0x40000800
 800465c:	40013400 	.word	0x40013400
 8004660:	40014000 	.word	0x40014000
 8004664:	40014400 	.word	0x40014400
 8004668:	40014800 	.word	0x40014800

0800466c <TIM_OC1_SetConfig>:
 800466c:	b480      	push	{r7}
 800466e:	b087      	sub	sp, #28
 8004670:	af00      	add	r7, sp, #0
 8004672:	6078      	str	r0, [r7, #4]
 8004674:	6039      	str	r1, [r7, #0]
 8004676:	687b      	ldr	r3, [r7, #4]
 8004678:	6a1b      	ldr	r3, [r3, #32]
 800467a:	f023 0201 	bic.w	r2, r3, #1
 800467e:	687b      	ldr	r3, [r7, #4]
 8004680:	621a      	str	r2, [r3, #32]
 8004682:	687b      	ldr	r3, [r7, #4]
 8004684:	6a1b      	ldr	r3, [r3, #32]
 8004686:	617b      	str	r3, [r7, #20]
 8004688:	687b      	ldr	r3, [r7, #4]
 800468a:	685b      	ldr	r3, [r3, #4]
 800468c:	613b      	str	r3, [r7, #16]
 800468e:	687b      	ldr	r3, [r7, #4]
 8004690:	699b      	ldr	r3, [r3, #24]
 8004692:	60fb      	str	r3, [r7, #12]
 8004694:	68fb      	ldr	r3, [r7, #12]
 8004696:	f423 3380 	bic.w	r3, r3, #65536	; 0x10000
 800469a:	f023 0370 	bic.w	r3, r3, #112	; 0x70
 800469e:	60fb      	str	r3, [r7, #12]
 80046a0:	68fb      	ldr	r3, [r7, #12]
 80046a2:	f023 0303 	bic.w	r3, r3, #3
 80046a6:	60fb      	str	r3, [r7, #12]
 80046a8:	683b      	ldr	r3, [r7, #0]
 80046aa:	681b      	ldr	r3, [r3, #0]
 80046ac:	68fa      	ldr	r2, [r7, #12]
 80046ae:	4313      	orrs	r3, r2
 80046b0:	60fb      	str	r3, [r7, #12]
 80046b2:	697b      	ldr	r3, [r7, #20]
 80046b4:	f023 0302 	bic.w	r3, r3, #2
 80046b8:	617b      	str	r3, [r7, #20]
 80046ba:	683b      	ldr	r3, [r7, #0]
 80046bc:	689b      	ldr	r3, [r3, #8]
 80046be:	697a      	ldr	r2, [r7, #20]
 80046c0:	4313      	orrs	r3, r2
 80046c2:	617b      	str	r3, [r7, #20]
 80046c4:	687b      	ldr	r3, [r7, #4]
 80046c6:	4a2c      	ldr	r2, [pc, #176]	; (8004778 <TIM_OC1_SetConfig+0x10c>)
 80046c8:	4293      	cmp	r3, r2
 80046ca:	d00f      	beq.n	80046ec <TIM_OC1_SetConfig+0x80>
 80046cc:	687b      	ldr	r3, [r7, #4]
 80046ce:	4a2b      	ldr	r2, [pc, #172]	; (800477c <TIM_OC1_SetConfig+0x110>)
 80046d0:	4293      	cmp	r3, r2
 80046d2:	d00b      	beq.n	80046ec <TIM_OC1_SetConfig+0x80>
 80046d4:	687b      	ldr	r3, [r7, #4]
 80046d6:	4a2a      	ldr	r2, [pc, #168]	; (8004780 <TIM_OC1_SetConfig+0x114>)
 80046d8:	4293      	cmp	r3, r2
 80046da:	d007      	beq.n	80046ec <TIM_OC1_SetConfig+0x80>
 80046dc:	687b      	ldr	r3, [r7, #4]
 80046de:	4a29      	ldr	r2, [pc, #164]	; (8004784 <TIM_OC1_SetConfig+0x118>)
 80046e0:	4293      	cmp	r3, r2
 80046e2:	d003      	beq.n	80046ec <TIM_OC1_SetConfig+0x80>
 80046e4:	687b      	ldr	r3, [r7, #4]
 80046e6:	4a28      	ldr	r2, [pc, #160]	; (8004788 <TIM_OC1_SetConfig+0x11c>)
 80046e8:	4293      	cmp	r3, r2
 80046ea:	d10c      	bne.n	8004706 <TIM_OC1_SetConfig+0x9a>
 80046ec:	697b      	ldr	r3, [r7, #20]
 80046ee:	f023 0308 	bic.w	r3, r3, #8
 80046f2:	617b      	str	r3, [r7, #20]
 80046f4:	683b      	ldr	r3, [r7, #0]
 80046f6:	68db      	ldr	r3, [r3, #12]
 80046f8:	697a      	ldr	r2, [r7, #20]
 80046fa:	4313      	orrs	r3, r2
 80046fc:	617b      	str	r3, [r7, #20]
 80046fe:	697b      	ldr	r3, [r7, #20]
 8004700:	f023 0304 	bic.w	r3, r3, #4
 8004704:	617b      	str	r3, [r7, #20]
 8004706:	687b      	ldr	r3, [r7, #4]
 8004708:	4a1b      	ldr	r2, [pc, #108]	; (8004778 <TIM_OC1_SetConfig+0x10c>)
 800470a:	4293      	cmp	r3, r2
 800470c:	d00f      	beq.n	800472e <TIM_OC1_SetConfig+0xc2>
 800470e:	687b      	ldr	r3, [r7, #4]
 8004710:	4a1a      	ldr	r2, [pc, #104]	; (800477c <TIM_OC1_SetConfig+0x110>)
 8004712:	4293      	cmp	r3, r2
 8004714:	d00b      	beq.n	800472e <TIM_OC1_SetConfig+0xc2>
 8004716:	687b      	ldr	r3, [r7, #4]
 8004718:	4a19      	ldr	r2, [pc, #100]	; (8004780 <TIM_OC1_SetConfig+0x114>)
 800471a:	4293      	cmp	r3, r2
 800471c:	d007      	beq.n	800472e <TIM_OC1_SetConfig+0xc2>
 800471e:	687b      	ldr	r3, [r7, #4]
 8004720:	4a18      	ldr	r2, [pc, #96]	; (8004784 <TIM_OC1_SetConfig+0x118>)
 8004722:	4293      	cmp	r3, r2
 8004724:	d003      	beq.n	800472e <TIM_OC1_SetConfig+0xc2>
 8004726:	687b      	ldr	r3, [r7, #4]
 8004728:	4a17      	ldr	r2, [pc, #92]	; (8004788 <TIM_OC1_SetConfig+0x11c>)
 800472a:	4293      	cmp	r3, r2
 800472c:	d111      	bne.n	8004752 <TIM_OC1_SetConfig+0xe6>
 800472e:	693b      	ldr	r3, [r7, #16]
 8004730:	f423 7380 	bic.w	r3, r3, #256	; 0x100
 8004734:	613b      	str	r3, [r7, #16]
 8004736:	693b      	ldr	r3, [r7, #16]
 8004738:	f423 7300 	bic.w	r3, r3, #512	; 0x200
 800473c:	613b      	str	r3, [r7, #16]
 800473e:	683b      	ldr	r3, [r7, #0]
 8004740:	695b      	ldr	r3, [r3, #20]
 8004742:	693a      	ldr	r2, [r7, #16]
 8004744:	4313      	orrs	r3, r2
 8004746:	613b      	str	r3, [r7, #16]
 8004748:	683b      	ldr	r3, [r7, #0]
 800474a:	699b      	ldr	r3, [r3, #24]
 800474c:	693a      	ldr	r2, [r7, #16]
 800474e:	4313      	orrs	r3, r2
 8004750:	613b      	str	r3, [r7, #16]
 8004752:	687b      	ldr	r3, [r7, #4]
 8004754:	693a      	ldr	r2, [r7, #16]
 8004756:	605a      	str	r2, [r3, #4]
 8004758:	687b      	ldr	r3, [r7, #4]
 800475a:	68fa      	ldr	r2, [r7, #12]
 800475c:	619a      	str	r2, [r3, #24]
 800475e:	683b      	ldr	r3, [r7, #0]
 8004760:	685a      	ldr	r2, [r3, #4]
 8004762:	687b      	ldr	r3, [r7, #4]
 8004764:	635a      	str	r2, [r3, #52]	; 0x34
 8004766:	687b      	ldr	r3, [r7, #4]
 8004768:	697a      	ldr	r2, [r7, #20]
 800476a:	621a      	str	r2, [r3, #32]
 800476c:	bf00      	nop
 800476e:	371c      	adds	r7, #28
 8004770:	46bd      	mov	sp, r7
 8004772:	f85d 7b04 	ldr.w	r7, [sp], #4
 8004776:	4770      	bx	lr
 8004778:	40012c00 	.word	0x40012c00
 800477c:	40013400 	.word	0x40013400
 8004780:	40014000 	.word	0x40014000
 8004784:	40014400 	.word	0x40014400
 8004788:	40014800 	.word	0x40014800

0800478c <TIM_OC2_SetConfig>:
 800478c:	b480      	push	{r7}
 800478e:	b087      	sub	sp, #28
 8004790:	af00      	add	r7, sp, #0
 8004792:	6078      	str	r0, [r7, #4]
 8004794:	6039      	str	r1, [r7, #0]
 8004796:	687b      	ldr	r3, [r7, #4]
 8004798:	6a1b      	ldr	r3, [r3, #32]
 800479a:	f023 0210 	bic.w	r2, r3, #16
 800479e:	687b      	ldr	r3, [r7, #4]
 80047a0:	621a      	str	r2, [r3, #32]
 80047a2:	687b      	ldr	r3, [r7, #4]
 80047a4:	6a1b      	ldr	r3, [r3, #32]
 80047a6:	617b      	str	r3, [r7, #20]
 80047a8:	687b      	ldr	r3, [r7, #4]
 80047aa:	685b      	ldr	r3, [r3, #4]
 80047ac:	613b      	str	r3, [r7, #16]
 80047ae:	687b      	ldr	r3, [r7, #4]
 80047b0:	699b      	ldr	r3, [r3, #24]
 80047b2:	60fb      	str	r3, [r7, #12]
 80047b4:	68fb      	ldr	r3, [r7, #12]
 80047b6:	f023 7380 	bic.w	r3, r3, #16777216	; 0x1000000
 80047ba:	f423 43e0 	bic.w	r3, r3, #28672	; 0x7000
 80047be:	60fb      	str	r3, [r7, #12]
 80047c0:	68fb      	ldr	r3, [r7, #12]
 80047c2:	f423 7340 	bic.w	r3, r3, #768	; 0x300
 80047c6:	60fb      	str	r3, [r7, #12]
 80047c8:	683b      	ldr	r3, [r7, #0]
 80047ca:	681b      	ldr	r3, [r3, #0]
 80047cc:	021b      	lsls	r3, r3, #8
 80047ce:	68fa      	ldr	r2, [r7, #12]
 80047d0:	4313      	orrs	r3, r2
 80047d2:	60fb      	str	r3, [r7, #12]
 80047d4:	697b      	ldr	r3, [r7, #20]
 80047d6:	f023 0320 	bic.w	r3, r3, #32
 80047da:	617b      	str	r3, [r7, #20]
 80047dc:	683b      	ldr	r3, [r7, #0]
 80047de:	689b      	ldr	r3, [r3, #8]
 80047e0:	011b      	lsls	r3, r3, #4
 80047e2:	697a      	ldr	r2, [r7, #20]
 80047e4:	4313      	orrs	r3, r2
 80047e6:	617b      	str	r3, [r7, #20]
 80047e8:	687b      	ldr	r3, [r7, #4]
 80047ea:	4a28      	ldr	r2, [pc, #160]	; (800488c <TIM_OC2_SetConfig+0x100>)
 80047ec:	4293      	cmp	r3, r2
 80047ee:	d003      	beq.n	80047f8 <TIM_OC2_SetConfig+0x6c>
 80047f0:	687b      	ldr	r3, [r7, #4]
 80047f2:	4a27      	ldr	r2, [pc, #156]	; (8004890 <TIM_OC2_SetConfig+0x104>)
 80047f4:	4293      	cmp	r3, r2
 80047f6:	d10d      	bne.n	8004814 <TIM_OC2_SetConfig+0x88>
 80047f8:	697b      	ldr	r3, [r7, #20]
 80047fa:	f023 0380 	bic.w	r3, r3, #128	; 0x80
 80047fe:	617b      	str	r3, [r7, #20]
 8004800:	683b      	ldr	r3, [r7, #0]
 8004802:	68db      	ldr	r3, [r3, #12]
 8004804:	011b      	lsls	r3, r3, #4
 8004806:	697a      	ldr	r2, [r7, #20]
 8004808:	4313      	orrs	r3, r2
 800480a:	617b      	str	r3, [r7, #20]
 800480c:	697b      	ldr	r3, [r7, #20]
 800480e:	f023 0340 	bic.w	r3, r3, #64	; 0x40
 8004812:	617b      	str	r3, [r7, #20]
 8004814:	687b      	ldr	r3, [r7, #4]
 8004816:	4a1d      	ldr	r2, [pc, #116]	; (800488c <TIM_OC2_SetConfig+0x100>)
 8004818:	4293      	cmp	r3, r2
 800481a:	d00f      	beq.n	800483c <TIM_OC2_SetConfig+0xb0>
 800481c:	687b      	ldr	r3, [r7, #4]
 800481e:	4a1c      	ldr	r2, [pc, #112]	; (8004890 <TIM_OC2_SetConfig+0x104>)
 8004820:	4293      	cmp	r3, r2
 8004822:	d00b      	beq.n	800483c <TIM_OC2_SetConfig+0xb0>
 8004824:	687b      	ldr	r3, [r7, #4]
 8004826:	4a1b      	ldr	r2, [pc, #108]	; (8004894 <TIM_OC2_SetConfig+0x108>)
 8004828:	4293      	cmp	r3, r2
 800482a:	d007      	beq.n	800483c <TIM_OC2_SetConfig+0xb0>
 800482c:	687b      	ldr	r3, [r7, #4]
 800482e:	4a1a      	ldr	r2, [pc, #104]	; (8004898 <TIM_OC2_SetConfig+0x10c>)
 8004830:	4293      	cmp	r3, r2
 8004832:	d003      	beq.n	800483c <TIM_OC2_SetConfig+0xb0>
 8004834:	687b      	ldr	r3, [r7, #4]
 8004836:	4a19      	ldr	r2, [pc, #100]	; (800489c <TIM_OC2_SetConfig+0x110>)
 8004838:	4293      	cmp	r3, r2
 800483a:	d113      	bne.n	8004864 <TIM_OC2_SetConfig+0xd8>
 800483c:	693b      	ldr	r3, [r7, #16]
 800483e:	f423 6380 	bic.w	r3, r3, #1024	; 0x400
 8004842:	613b      	str	r3, [r7, #16]
 8004844:	693b      	ldr	r3, [r7, #16]
 8004846:	f423 6300 	bic.w	r3, r3, #2048	; 0x800
 800484a:	613b      	str	r3, [r7, #16]
 800484c:	683b      	ldr	r3, [r7, #0]
 800484e:	695b      	ldr	r3, [r3, #20]
 8004850:	009b      	lsls	r3, r3, #2
 8004852:	693a      	ldr	r2, [r7, #16]
 8004854:	4313      	orrs	r3, r2
 8004856:	613b      	str	r3, [r7, #16]
 8004858:	683b      	ldr	r3, [r7, #0]
 800485a:	699b      	ldr	r3, [r3, #24]
 800485c:	009b      	lsls	r3, r3, #2
 800485e:	693a      	ldr	r2, [r7, #16]
 8004860:	4313      	orrs	r3, r2
 8004862:	613b      	str	r3, [r7, #16]
 8004864:	687b      	ldr	r3, [r7, #4]
 8004866:	693a      	ldr	r2, [r7, #16]
 8004868:	605a      	str	r2, [r3, #4]
 800486a:	687b      	ldr	r3, [r7, #4]
 800486c:	68fa      	ldr	r2, [r7, #12]
 800486e:	619a      	str	r2, [r3, #24]
 8004870:	683b      	ldr	r3, [r7, #0]
 8004872:	685a      	ldr	r2, [r3, #4]
 8004874:	687b      	ldr	r3, [r7, #4]
 8004876:	639a      	str	r2, [r3, #56]	; 0x38
 8004878:	687b      	ldr	r3, [r7, #4]
 800487a:	697a      	ldr	r2, [r7, #20]
 800487c:	621a      	str	r2, [r3, #32]
 800487e:	bf00      	nop
 8004880:	371c      	adds	r7, #28
 8004882:	46bd      	mov	sp, r7
 8004884:	f85d 7b04 	ldr.w	r7, [sp], #4
 8004888:	4770      	bx	lr
 800488a:	bf00      	nop
 800488c:	40012c00 	.word	0x40012c00
 8004890:	40013400 	.word	0x40013400
 8004894:	40014000 	.word	0x40014000
 8004898:	40014400 	.word	0x40014400
 800489c:	40014800 	.word	0x40014800

080048a0 <TIM_OC3_SetConfig>:
 80048a0:	b480      	push	{r7}
 80048a2:	b087      	sub	sp, #28
 80048a4:	af00      	add	r7, sp, #0
 80048a6:	6078      	str	r0, [r7, #4]
 80048a8:	6039      	str	r1, [r7, #0]
 80048aa:	687b      	ldr	r3, [r7, #4]
 80048ac:	6a1b      	ldr	r3, [r3, #32]
 80048ae:	f423 7280 	bic.w	r2, r3, #256	; 0x100
 80048b2:	687b      	ldr	r3, [r7, #4]
 80048b4:	621a      	str	r2, [r3, #32]
 80048b6:	687b      	ldr	r3, [r7, #4]
 80048b8:	6a1b      	ldr	r3, [r3, #32]
 80048ba:	617b      	str	r3, [r7, #20]
 80048bc:	687b      	ldr	r3, [r7, #4]
 80048be:	685b      	ldr	r3, [r3, #4]
 80048c0:	613b      	str	r3, [r7, #16]
 80048c2:	687b      	ldr	r3, [r7, #4]
 80048c4:	69db      	ldr	r3, [r3, #28]
 80048c6:	60fb      	str	r3, [r7, #12]
 80048c8:	68fb      	ldr	r3, [r7, #12]
 80048ca:	f423 3380 	bic.w	r3, r3, #65536	; 0x10000
 80048ce:	f023 0370 	bic.w	r3, r3, #112	; 0x70
 80048d2:	60fb      	str	r3, [r7, #12]
 80048d4:	68fb      	ldr	r3, [r7, #12]
 80048d6:	f023 0303 	bic.w	r3, r3, #3
 80048da:	60fb      	str	r3, [r7, #12]
 80048dc:	683b      	ldr	r3, [r7, #0]
 80048de:	681b      	ldr	r3, [r3, #0]
 80048e0:	68fa      	ldr	r2, [r7, #12]
 80048e2:	4313      	orrs	r3, r2
 80048e4:	60fb      	str	r3, [r7, #12]
 80048e6:	697b      	ldr	r3, [r7, #20]
 80048e8:	f423 7300 	bic.w	r3, r3, #512	; 0x200
 80048ec:	617b      	str	r3, [r7, #20]
 80048ee:	683b      	ldr	r3, [r7, #0]
 80048f0:	689b      	ldr	r3, [r3, #8]
 80048f2:	021b      	lsls	r3, r3, #8
 80048f4:	697a      	ldr	r2, [r7, #20]
 80048f6:	4313      	orrs	r3, r2
 80048f8:	617b      	str	r3, [r7, #20]
 80048fa:	687b      	ldr	r3, [r7, #4]
 80048fc:	4a27      	ldr	r2, [pc, #156]	; (800499c <TIM_OC3_SetConfig+0xfc>)
 80048fe:	4293      	cmp	r3, r2
 8004900:	d003      	beq.n	800490a <TIM_OC3_SetConfig+0x6a>
 8004902:	687b      	ldr	r3, [r7, #4]
 8004904:	4a26      	ldr	r2, [pc, #152]	; (80049a0 <TIM_OC3_SetConfig+0x100>)
 8004906:	4293      	cmp	r3, r2
 8004908:	d10d      	bne.n	8004926 <TIM_OC3_SetConfig+0x86>
 800490a:	697b      	ldr	r3, [r7, #20]
 800490c:	f423 6300 	bic.w	r3, r3, #2048	; 0x800
 8004910:	617b      	str	r3, [r7, #20]
 8004912:	683b      	ldr	r3, [r7, #0]
 8004914:	68db      	ldr	r3, [r3, #12]
 8004916:	021b      	lsls	r3, r3, #8
 8004918:	697a      	ldr	r2, [r7, #20]
 800491a:	4313      	orrs	r3, r2
 800491c:	617b      	str	r3, [r7, #20]
 800491e:	697b      	ldr	r3, [r7, #20]
 8004920:	f423 6380 	bic.w	r3, r3, #1024	; 0x400
 8004924:	617b      	str	r3, [r7, #20]
 8004926:	687b      	ldr	r3, [r7, #4]
 8004928:	4a1c      	ldr	r2, [pc, #112]	; (800499c <TIM_OC3_SetConfig+0xfc>)
 800492a:	4293      	cmp	r3, r2
 800492c:	d00f      	beq.n	800494e <TIM_OC3_SetConfig+0xae>
 800492e:	687b      	ldr	r3, [r7, #4]
 8004930:	4a1b      	ldr	r2, [pc, #108]	; (80049a0 <TIM_OC3_SetConfig+0x100>)
 8004932:	4293      	cmp	r3, r2
 8004934:	d00b      	beq.n	800494e <TIM_OC3_SetConfig+0xae>
 8004936:	687b      	ldr	r3, [r7, #4]
 8004938:	4a1a      	ldr	r2, [pc, #104]	; (80049a4 <TIM_OC3_SetConfig+0x104>)
 800493a:	4293      	cmp	r3, r2
 800493c:	d007      	beq.n	800494e <TIM_OC3_SetConfig+0xae>
 800493e:	687b      	ldr	r3, [r7, #4]
 8004940:	4a19      	ldr	r2, [pc, #100]	; (80049a8 <TIM_OC3_SetConfig+0x108>)
 8004942:	4293      	cmp	r3, r2
 8004944:	d003      	beq.n	800494e <TIM_OC3_SetConfig+0xae>
 8004946:	687b      	ldr	r3, [r7, #4]
 8004948:	4a18      	ldr	r2, [pc, #96]	; (80049ac <TIM_OC3_SetConfig+0x10c>)
 800494a:	4293      	cmp	r3, r2
 800494c:	d113      	bne.n	8004976 <TIM_OC3_SetConfig+0xd6>
 800494e:	693b      	ldr	r3, [r7, #16]
 8004950:	f423 5380 	bic.w	r3, r3, #4096	; 0x1000
 8004954:	613b      	str	r3, [r7, #16]
 8004956:	693b      	ldr	r3, [r7, #16]
 8004958:	f423 5300 	bic.w	r3, r3, #8192	; 0x2000
 800495c:	613b      	str	r3, [r7, #16]
 800495e:	683b      	ldr	r3, [r7, #0]
 8004960:	695b      	ldr	r3, [r3, #20]
 8004962:	011b      	lsls	r3, r3, #4
 8004964:	693a      	ldr	r2, [r7, #16]
 8004966:	4313      	orrs	r3, r2
 8004968:	613b      	str	r3, [r7, #16]
 800496a:	683b      	ldr	r3, [r7, #0]
 800496c:	699b      	ldr	r3, [r3, #24]
 800496e:	011b      	lsls	r3, r3, #4
 8004970:	693a      	ldr	r2, [r7, #16]
 8004972:	4313      	orrs	r3, r2
 8004974:	613b      	str	r3, [r7, #16]
 8004976:	687b      	ldr	r3, [r7, #4]
 8004978:	693a      	ldr	r2, [r7, #16]
 800497a:	605a      	str	r2, [r3, #4]
 800497c:	687b      	ldr	r3, [r7, #4]
 800497e:	68fa      	ldr	r2, [r7, #12]
 8004980:	61da      	str	r2, [r3, #28]
 8004982:	683b      	ldr	r3, [r7, #0]
 8004984:	685a      	ldr	r2, [r3, #4]
 8004986:	687b      	ldr	r3, [r7, #4]
 8004988:	63da      	str	r2, [r3, #60]	; 0x3c
 800498a:	687b      	ldr	r3, [r7, #4]
 800498c:	697a      	ldr	r2, [r7, #20]
 800498e:	621a      	str	r2, [r3, #32]
 8004990:	bf00      	nop
 8004992:	371c      	adds	r7, #28
 8004994:	46bd      	mov	sp, r7
 8004996:	f85d 7b04 	ldr.w	r7, [sp], #4
 800499a:	4770      	bx	lr
 800499c:	40012c00 	.word	0x40012c00
 80049a0:	40013400 	.word	0x40013400
 80049a4:	40014000 	.word	0x40014000
 80049a8:	40014400 	.word	0x40014400
 80049ac:	40014800 	.word	0x40014800

080049b0 <TIM_OC4_SetConfig>:
 80049b0:	b480      	push	{r7}
 80049b2:	b087      	sub	sp, #28
 80049b4:	af00      	add	r7, sp, #0
 80049b6:	6078      	str	r0, [r7, #4]
 80049b8:	6039      	str	r1, [r7, #0]
 80049ba:	687b      	ldr	r3, [r7, #4]
 80049bc:	6a1b      	ldr	r3, [r3, #32]
 80049be:	f423 5280 	bic.w	r2, r3, #4096	; 0x1000
 80049c2:	687b      	ldr	r3, [r7, #4]
 80049c4:	621a      	str	r2, [r3, #32]
 80049c6:	687b      	ldr	r3, [r7, #4]
 80049c8:	6a1b      	ldr	r3, [r3, #32]
 80049ca:	617b      	str	r3, [r7, #20]
 80049cc:	687b      	ldr	r3, [r7, #4]
 80049ce:	685b      	ldr	r3, [r3, #4]
 80049d0:	613b      	str	r3, [r7, #16]
 80049d2:	687b      	ldr	r3, [r7, #4]
 80049d4:	69db      	ldr	r3, [r3, #28]
 80049d6:	60fb      	str	r3, [r7, #12]
 80049d8:	68fb      	ldr	r3, [r7, #12]
 80049da:	f023 7380 	bic.w	r3, r3, #16777216	; 0x1000000
 80049de:	f423 43e0 	bic.w	r3, r3, #28672	; 0x7000
 80049e2:	60fb      	str	r3, [r7, #12]
 80049e4:	68fb      	ldr	r3, [r7, #12]
 80049e6:	f423 7340 	bic.w	r3, r3, #768	; 0x300
 80049ea:	60fb      	str	r3, [r7, #12]
 80049ec:	683b      	ldr	r3, [r7, #0]
 80049ee:	681b      	ldr	r3, [r3, #0]
 80049f0:	021b      	lsls	r3, r3, #8
 80049f2:	68fa      	ldr	r2, [r7, #12]
 80049f4:	4313      	orrs	r3, r2
 80049f6:	60fb      	str	r3, [r7, #12]
 80049f8:	697b      	ldr	r3, [r7, #20]
 80049fa:	f423 5300 	bic.w	r3, r3, #8192	; 0x2000
 80049fe:	617b      	str	r3, [r7, #20]
 8004a00:	683b      	ldr	r3, [r7, #0]
 8004a02:	689b      	ldr	r3, [r3, #8]
 8004a04:	031b      	lsls	r3, r3, #12
 8004a06:	697a      	ldr	r2, [r7, #20]
 8004a08:	4313      	orrs	r3, r2
 8004a0a:	617b      	str	r3, [r7, #20]
 8004a0c:	687b      	ldr	r3, [r7, #4]
 8004a0e:	4a28      	ldr	r2, [pc, #160]	; (8004ab0 <TIM_OC4_SetConfig+0x100>)
 8004a10:	4293      	cmp	r3, r2
 8004a12:	d003      	beq.n	8004a1c <TIM_OC4_SetConfig+0x6c>
 8004a14:	687b      	ldr	r3, [r7, #4]
 8004a16:	4a27      	ldr	r2, [pc, #156]	; (8004ab4 <TIM_OC4_SetConfig+0x104>)
 8004a18:	4293      	cmp	r3, r2
 8004a1a:	d10d      	bne.n	8004a38 <TIM_OC4_SetConfig+0x88>
 8004a1c:	697b      	ldr	r3, [r7, #20]
 8004a1e:	f423 4300 	bic.w	r3, r3, #32768	; 0x8000
 8004a22:	617b      	str	r3, [r7, #20]
 8004a24:	683b      	ldr	r3, [r7, #0]
 8004a26:	68db      	ldr	r3, [r3, #12]
 8004a28:	031b      	lsls	r3, r3, #12
 8004a2a:	697a      	ldr	r2, [r7, #20]
 8004a2c:	4313      	orrs	r3, r2
 8004a2e:	617b      	str	r3, [r7, #20]
 8004a30:	697b      	ldr	r3, [r7, #20]
 8004a32:	f423 4380 	bic.w	r3, r3, #16384	; 0x4000
 8004a36:	617b      	str	r3, [r7, #20]
 8004a38:	687b      	ldr	r3, [r7, #4]
 8004a3a:	4a1d      	ldr	r2, [pc, #116]	; (8004ab0 <TIM_OC4_SetConfig+0x100>)
 8004a3c:	4293      	cmp	r3, r2
 8004a3e:	d00f      	beq.n	8004a60 <TIM_OC4_SetConfig+0xb0>
 8004a40:	687b      	ldr	r3, [r7, #4]
 8004a42:	4a1c      	ldr	r2, [pc, #112]	; (8004ab4 <TIM_OC4_SetConfig+0x104>)
 8004a44:	4293      	cmp	r3, r2
 8004a46:	d00b      	beq.n	8004a60 <TIM_OC4_SetConfig+0xb0>
 8004a48:	687b      	ldr	r3, [r7, #4]
 8004a4a:	4a1b      	ldr	r2, [pc, #108]	; (8004ab8 <TIM_OC4_SetConfig+0x108>)
 8004a4c:	4293      	cmp	r3, r2
 8004a4e:	d007      	beq.n	8004a60 <TIM_OC4_SetConfig+0xb0>
 8004a50:	687b      	ldr	r3, [r7, #4]
 8004a52:	4a1a      	ldr	r2, [pc, #104]	; (8004abc <TIM_OC4_SetConfig+0x10c>)
 8004a54:	4293      	cmp	r3, r2
 8004a56:	d003      	beq.n	8004a60 <TIM_OC4_SetConfig+0xb0>
 8004a58:	687b      	ldr	r3, [r7, #4]
 8004a5a:	4a19      	ldr	r2, [pc, #100]	; (8004ac0 <TIM_OC4_SetConfig+0x110>)
 8004a5c:	4293      	cmp	r3, r2
 8004a5e:	d113      	bne.n	8004a88 <TIM_OC4_SetConfig+0xd8>
 8004a60:	693b      	ldr	r3, [r7, #16]
 8004a62:	f423 4380 	bic.w	r3, r3, #16384	; 0x4000
 8004a66:	613b      	str	r3, [r7, #16]
 8004a68:	693b      	ldr	r3, [r7, #16]
 8004a6a:	f423 4300 	bic.w	r3, r3, #32768	; 0x8000
 8004a6e:	613b      	str	r3, [r7, #16]
 8004a70:	683b      	ldr	r3, [r7, #0]
 8004a72:	695b      	ldr	r3, [r3, #20]
 8004a74:	019b      	lsls	r3, r3, #6
 8004a76:	693a      	ldr	r2, [r7, #16]
 8004a78:	4313      	orrs	r3, r2
 8004a7a:	613b      	str	r3, [r7, #16]
 8004a7c:	683b      	ldr	r3, [r7, #0]
 8004a7e:	699b      	ldr	r3, [r3, #24]
 8004a80:	019b      	lsls	r3, r3, #6
 8004a82:	693a      	ldr	r2, [r7, #16]
 8004a84:	4313      	orrs	r3, r2
 8004a86:	613b      	str	r3, [r7, #16]
 8004a88:	687b      	ldr	r3, [r7, #4]
 8004a8a:	693a      	ldr	r2, [r7, #16]
 8004a8c:	605a      	str	r2, [r3, #4]
 8004a8e:	687b      	ldr	r3, [r7, #4]
 8004a90:	68fa      	ldr	r2, [r7, #12]
 8004a92:	61da      	str	r2, [r3, #28]
 8004a94:	683b      	ldr	r3, [r7, #0]
 8004a96:	685a      	ldr	r2, [r3, #4]
 8004a98:	687b      	ldr	r3, [r7, #4]
 8004a9a:	641a      	str	r2, [r3, #64]	; 0x40
 8004a9c:	687b      	ldr	r3, [r7, #4]
 8004a9e:	697a      	ldr	r2, [r7, #20]
 8004aa0:	621a      	str	r2, [r3, #32]
 8004aa2:	bf00      	nop
 8004aa4:	371c      	adds	r7, #28
 8004aa6:	46bd      	mov	sp, r7
 8004aa8:	f85d 7b04 	ldr.w	r7, [sp], #4
 8004aac:	4770      	bx	lr
 8004aae:	bf00      	nop
 8004ab0:	40012c00 	.word	0x40012c00
 8004ab4:	40013400 	.word	0x40013400
 8004ab8:	40014000 	.word	0x40014000
 8004abc:	40014400 	.word	0x40014400
 8004ac0:	40014800 	.word	0x40014800

08004ac4 <TIM_OC5_SetConfig>:
 8004ac4:	b480      	push	{r7}
 8004ac6:	b087      	sub	sp, #28
 8004ac8:	af00      	add	r7, sp, #0
 8004aca:	6078      	str	r0, [r7, #4]
 8004acc:	6039      	str	r1, [r7, #0]
 8004ace:	687b      	ldr	r3, [r7, #4]
 8004ad0:	6a1b      	ldr	r3, [r3, #32]
 8004ad2:	f423 3280 	bic.w	r2, r3, #65536	; 0x10000
 8004ad6:	687b      	ldr	r3, [r7, #4]
 8004ad8:	621a      	str	r2, [r3, #32]
 8004ada:	687b      	ldr	r3, [r7, #4]
 8004adc:	6a1b      	ldr	r3, [r3, #32]
 8004ade:	613b      	str	r3, [r7, #16]
 8004ae0:	687b      	ldr	r3, [r7, #4]
 8004ae2:	685b      	ldr	r3, [r3, #4]
 8004ae4:	617b      	str	r3, [r7, #20]
 8004ae6:	687b      	ldr	r3, [r7, #4]
 8004ae8:	6d1b      	ldr	r3, [r3, #80]	; 0x50
 8004aea:	60fb      	str	r3, [r7, #12]
 8004aec:	68fb      	ldr	r3, [r7, #12]
 8004aee:	f423 3380 	bic.w	r3, r3, #65536	; 0x10000
 8004af2:	f023 0370 	bic.w	r3, r3, #112	; 0x70
 8004af6:	60fb      	str	r3, [r7, #12]
 8004af8:	683b      	ldr	r3, [r7, #0]
 8004afa:	681b      	ldr	r3, [r3, #0]
 8004afc:	68fa      	ldr	r2, [r7, #12]
 8004afe:	4313      	orrs	r3, r2
 8004b00:	60fb      	str	r3, [r7, #12]
 8004b02:	693b      	ldr	r3, [r7, #16]
 8004b04:	f423 3300 	bic.w	r3, r3, #131072	; 0x20000
 8004b08:	613b      	str	r3, [r7, #16]
 8004b0a:	683b      	ldr	r3, [r7, #0]
 8004b0c:	689b      	ldr	r3, [r3, #8]
 8004b0e:	041b      	lsls	r3, r3, #16
 8004b10:	693a      	ldr	r2, [r7, #16]
 8004b12:	4313      	orrs	r3, r2
 8004b14:	613b      	str	r3, [r7, #16]
 8004b16:	687b      	ldr	r3, [r7, #4]
 8004b18:	4a17      	ldr	r2, [pc, #92]	; (8004b78 <TIM_OC5_SetConfig+0xb4>)
 8004b1a:	4293      	cmp	r3, r2
 8004b1c:	d00f      	beq.n	8004b3e <TIM_OC5_SetConfig+0x7a>
 8004b1e:	687b      	ldr	r3, [r7, #4]
 8004b20:	4a16      	ldr	r2, [pc, #88]	; (8004b7c <TIM_OC5_SetConfig+0xb8>)
 8004b22:	4293      	cmp	r3, r2
 8004b24:	d00b      	beq.n	8004b3e <TIM_OC5_SetConfig+0x7a>
 8004b26:	687b      	ldr	r3, [r7, #4]
 8004b28:	4a15      	ldr	r2, [pc, #84]	; (8004b80 <TIM_OC5_SetConfig+0xbc>)
 8004b2a:	4293      	cmp	r3, r2
 8004b2c:	d007      	beq.n	8004b3e <TIM_OC5_SetConfig+0x7a>
 8004b2e:	687b      	ldr	r3, [r7, #4]
 8004b30:	4a14      	ldr	r2, [pc, #80]	; (8004b84 <TIM_OC5_SetConfig+0xc0>)
 8004b32:	4293      	cmp	r3, r2
 8004b34:	d003      	beq.n	8004b3e <TIM_OC5_SetConfig+0x7a>
 8004b36:	687b      	ldr	r3, [r7, #4]
 8004b38:	4a13      	ldr	r2, [pc, #76]	; (8004b88 <TIM_OC5_SetConfig+0xc4>)
 8004b3a:	4293      	cmp	r3, r2
 8004b3c:	d109      	bne.n	8004b52 <TIM_OC5_SetConfig+0x8e>
 8004b3e:	697b      	ldr	r3, [r7, #20]
 8004b40:	f423 3380 	bic.w	r3, r3, #65536	; 0x10000
 8004b44:	617b      	str	r3, [r7, #20]
 8004b46:	683b      	ldr	r3, [r7, #0]
 8004b48:	695b      	ldr	r3, [r3, #20]
 8004b4a:	021b      	lsls	r3, r3, #8
 8004b4c:	697a      	ldr	r2, [r7, #20]
 8004b4e:	4313      	orrs	r3, r2
 8004b50:	617b      	str	r3, [r7, #20]
 8004b52:	687b      	ldr	r3, [r7, #4]
 8004b54:	697a      	ldr	r2, [r7, #20]
 8004b56:	605a      	str	r2, [r3, #4]
 8004b58:	687b      	ldr	r3, [r7, #4]
 8004b5a:	68fa      	ldr	r2, [r7, #12]
 8004b5c:	651a      	str	r2, [r3, #80]	; 0x50
 8004b5e:	683b      	ldr	r3, [r7, #0]
 8004b60:	685a      	ldr	r2, [r3, #4]
 8004b62:	687b      	ldr	r3, [r7, #4]
 8004b64:	649a      	str	r2, [r3, #72]	; 0x48
 8004b66:	687b      	ldr	r3, [r7, #4]
 8004b68:	693a      	ldr	r2, [r7, #16]
 8004b6a:	621a      	str	r2, [r3, #32]
 8004b6c:	bf00      	nop
 8004b6e:	371c      	adds	r7, #28
 8004b70:	46bd      	mov	sp, r7
 8004b72:	f85d 7b04 	ldr.w	r7, [sp], #4
 8004b76:	4770      	bx	lr
 8004b78:	40012c00 	.word	0x40012c00
 8004b7c:	40013400 	.word	0x40013400
 8004b80:	40014000 	.word	0x40014000
 8004b84:	40014400 	.word	0x40014400
 8004b88:	40014800 	.word	0x40014800

08004b8c <TIM_OC6_SetConfig>:
 8004b8c:	b480      	push	{r7}
 8004b8e:	b087      	sub	sp, #28
 8004b90:	af00      	add	r7, sp, #0
 8004b92:	6078      	str	r0, [r7, #4]
 8004b94:	6039      	str	r1, [r7, #0]
 8004b96:	687b      	ldr	r3, [r7, #4]
 8004b98:	6a1b      	ldr	r3, [r3, #32]
 8004b9a:	f423 1280 	bic.w	r2, r3, #1048576	; 0x100000
 8004b9e:	687b      	ldr	r3, [r7, #4]
 8004ba0:	621a      	str	r2, [r3, #32]
 8004ba2:	687b      	ldr	r3, [r7, #4]
 8004ba4:	6a1b      	ldr	r3, [r3, #32]
 8004ba6:	613b      	str	r3, [r7, #16]
 8004ba8:	687b      	ldr	r3, [r7, #4]
 8004baa:	685b      	ldr	r3, [r3, #4]
 8004bac:	617b      	str	r3, [r7, #20]
 8004bae:	687b      	ldr	r3, [r7, #4]
 8004bb0:	6d1b      	ldr	r3, [r3, #80]	; 0x50
 8004bb2:	60fb      	str	r3, [r7, #12]
 8004bb4:	68fb      	ldr	r3, [r7, #12]
 8004bb6:	f023 7380 	bic.w	r3, r3, #16777216	; 0x1000000
 8004bba:	f423 43e0 	bic.w	r3, r3, #28672	; 0x7000
 8004bbe:	60fb      	str	r3, [r7, #12]
 8004bc0:	683b      	ldr	r3, [r7, #0]
 8004bc2:	681b      	ldr	r3, [r3, #0]
 8004bc4:	021b      	lsls	r3, r3, #8
 8004bc6:	68fa      	ldr	r2, [r7, #12]
 8004bc8:	4313      	orrs	r3, r2
 8004bca:	60fb      	str	r3, [r7, #12]
 8004bcc:	693b      	ldr	r3, [r7, #16]
 8004bce:	f423 1300 	bic.w	r3, r3, #2097152	; 0x200000
 8004bd2:	613b      	str	r3, [r7, #16]
 8004bd4:	683b      	ldr	r3, [r7, #0]
 8004bd6:	689b      	ldr	r3, [r3, #8]
 8004bd8:	051b      	lsls	r3, r3, #20
 8004bda:	693a      	ldr	r2, [r7, #16]
 8004bdc:	4313      	orrs	r3, r2
 8004bde:	613b      	str	r3, [r7, #16]
 8004be0:	687b      	ldr	r3, [r7, #4]
 8004be2:	4a18      	ldr	r2, [pc, #96]	; (8004c44 <TIM_OC6_SetConfig+0xb8>)
 8004be4:	4293      	cmp	r3, r2
 8004be6:	d00f      	beq.n	8004c08 <TIM_OC6_SetConfig+0x7c>
 8004be8:	687b      	ldr	r3, [r7, #4]
 8004bea:	4a17      	ldr	r2, [pc, #92]	; (8004c48 <TIM_OC6_SetConfig+0xbc>)
 8004bec:	4293      	cmp	r3, r2
 8004bee:	d00b      	beq.n	8004c08 <TIM_OC6_SetConfig+0x7c>
 8004bf0:	687b      	ldr	r3, [r7, #4]
 8004bf2:	4a16      	ldr	r2, [pc, #88]	; (8004c4c <TIM_OC6_SetConfig+0xc0>)
 8004bf4:	4293      	cmp	r3, r2
 8004bf6:	d007      	beq.n	8004c08 <TIM_OC6_SetConfig+0x7c>
 8004bf8:	687b      	ldr	r3, [r7, #4]
 8004bfa:	4a15      	ldr	r2, [pc, #84]	; (8004c50 <TIM_OC6_SetConfig+0xc4>)
 8004bfc:	4293      	cmp	r3, r2
 8004bfe:	d003      	beq.n	8004c08 <TIM_OC6_SetConfig+0x7c>
 8004c00:	687b      	ldr	r3, [r7, #4]
 8004c02:	4a14      	ldr	r2, [pc, #80]	; (8004c54 <TIM_OC6_SetConfig+0xc8>)
 8004c04:	4293      	cmp	r3, r2
 8004c06:	d109      	bne.n	8004c1c <TIM_OC6_SetConfig+0x90>
 8004c08:	697b      	ldr	r3, [r7, #20]
 8004c0a:	f423 2380 	bic.w	r3, r3, #262144	; 0x40000
 8004c0e:	617b      	str	r3, [r7, #20]
 8004c10:	683b      	ldr	r3, [r7, #0]
 8004c12:	695b      	ldr	r3, [r3, #20]
 8004c14:	029b      	lsls	r3, r3, #10
 8004c16:	697a      	ldr	r2, [r7, #20]
 8004c18:	4313      	orrs	r3, r2
 8004c1a:	617b      	str	r3, [r7, #20]
 8004c1c:	687b      	ldr	r3, [r7, #4]
 8004c1e:	697a      	ldr	r2, [r7, #20]
 8004c20:	605a      	str	r2, [r3, #4]
 8004c22:	687b      	ldr	r3, [r7, #4]
 8004c24:	68fa      	ldr	r2, [r7, #12]
 8004c26:	651a      	str	r2, [r3, #80]	; 0x50
 8004c28:	683b      	ldr	r3, [r7, #0]
 8004c2a:	685a      	ldr	r2, [r3, #4]
 8004c2c:	687b      	ldr	r3, [r7, #4]
 8004c2e:	64da      	str	r2, [r3, #76]	; 0x4c
 8004c30:	687b      	ldr	r3, [r7, #4]
 8004c32:	693a      	ldr	r2, [r7, #16]
 8004c34:	621a      	str	r2, [r3, #32]
 8004c36:	bf00      	nop
 8004c38:	371c      	adds	r7, #28
 8004c3a:	46bd      	mov	sp, r7
 8004c3c:	f85d 7b04 	ldr.w	r7, [sp], #4
 8004c40:	4770      	bx	lr
 8004c42:	bf00      	nop
 8004c44:	40012c00 	.word	0x40012c00
 8004c48:	40013400 	.word	0x40013400
 8004c4c:	40014000 	.word	0x40014000
 8004c50:	40014400 	.word	0x40014400
 8004c54:	40014800 	.word	0x40014800

08004c58 <TIM_CCxChannelCmd>:
 8004c58:	b480      	push	{r7}
 8004c5a:	b087      	sub	sp, #28
 8004c5c:	af00      	add	r7, sp, #0
 8004c5e:	60f8      	str	r0, [r7, #12]
 8004c60:	60b9      	str	r1, [r7, #8]
 8004c62:	607a      	str	r2, [r7, #4]
 8004c64:	68bb      	ldr	r3, [r7, #8]
 8004c66:	f003 031f 	and.w	r3, r3, #31
 8004c6a:	2201      	movs	r2, #1
 8004c6c:	fa02 f303 	lsl.w	r3, r2, r3
 8004c70:	617b      	str	r3, [r7, #20]
 8004c72:	68fb      	ldr	r3, [r7, #12]
 8004c74:	6a1a      	ldr	r2, [r3, #32]
 8004c76:	697b      	ldr	r3, [r7, #20]
 8004c78:	43db      	mvns	r3, r3
 8004c7a:	401a      	ands	r2, r3
 8004c7c:	68fb      	ldr	r3, [r7, #12]
 8004c7e:	621a      	str	r2, [r3, #32]
 8004c80:	68fb      	ldr	r3, [r7, #12]
 8004c82:	6a1a      	ldr	r2, [r3, #32]
 8004c84:	68bb      	ldr	r3, [r7, #8]
 8004c86:	f003 031f 	and.w	r3, r3, #31
 8004c8a:	6879      	ldr	r1, [r7, #4]
 8004c8c:	fa01 f303 	lsl.w	r3, r1, r3
 8004c90:	431a      	orrs	r2, r3
 8004c92:	68fb      	ldr	r3, [r7, #12]
 8004c94:	621a      	str	r2, [r3, #32]
 8004c96:	bf00      	nop
 8004c98:	371c      	adds	r7, #28
 8004c9a:	46bd      	mov	sp, r7
 8004c9c:	f85d 7b04 	ldr.w	r7, [sp], #4
 8004ca0:	4770      	bx	lr
	...

08004ca4 <HAL_TIMEx_MasterConfigSynchronization>:
 8004ca4:	b480      	push	{r7}
 8004ca6:	b085      	sub	sp, #20
 8004ca8:	af00      	add	r7, sp, #0
 8004caa:	6078      	str	r0, [r7, #4]
 8004cac:	6039      	str	r1, [r7, #0]
 8004cae:	687b      	ldr	r3, [r7, #4]
 8004cb0:	f893 303c 	ldrb.w	r3, [r3, #60]	; 0x3c
 8004cb4:	2b01      	cmp	r3, #1
 8004cb6:	d101      	bne.n	8004cbc <HAL_TIMEx_MasterConfigSynchronization+0x18>
 8004cb8:	2302      	movs	r3, #2
 8004cba:	e065      	b.n	8004d88 <HAL_TIMEx_MasterConfigSynchronization+0xe4>
 8004cbc:	687b      	ldr	r3, [r7, #4]
 8004cbe:	2201      	movs	r2, #1
 8004cc0:	f883 203c 	strb.w	r2, [r3, #60]	; 0x3c
 8004cc4:	687b      	ldr	r3, [r7, #4]
 8004cc6:	2202      	movs	r2, #2
 8004cc8:	f883 203d 	strb.w	r2, [r3, #61]	; 0x3d
 8004ccc:	687b      	ldr	r3, [r7, #4]
 8004cce:	681b      	ldr	r3, [r3, #0]
 8004cd0:	685b      	ldr	r3, [r3, #4]
 8004cd2:	60fb      	str	r3, [r7, #12]
 8004cd4:	687b      	ldr	r3, [r7, #4]
 8004cd6:	681b      	ldr	r3, [r3, #0]
 8004cd8:	689b      	ldr	r3, [r3, #8]
 8004cda:	60bb      	str	r3, [r7, #8]
 8004cdc:	687b      	ldr	r3, [r7, #4]
 8004cde:	681b      	ldr	r3, [r3, #0]
 8004ce0:	4a2c      	ldr	r2, [pc, #176]	; (8004d94 <HAL_TIMEx_MasterConfigSynchronization+0xf0>)
 8004ce2:	4293      	cmp	r3, r2
 8004ce4:	d004      	beq.n	8004cf0 <HAL_TIMEx_MasterConfigSynchronization+0x4c>
 8004ce6:	687b      	ldr	r3, [r7, #4]
 8004ce8:	681b      	ldr	r3, [r3, #0]
 8004cea:	4a2b      	ldr	r2, [pc, #172]	; (8004d98 <HAL_TIMEx_MasterConfigSynchronization+0xf4>)
 8004cec:	4293      	cmp	r3, r2
 8004cee:	d108      	bne.n	8004d02 <HAL_TIMEx_MasterConfigSynchronization+0x5e>
 8004cf0:	68fb      	ldr	r3, [r7, #12]
 8004cf2:	f423 0370 	bic.w	r3, r3, #15728640	; 0xf00000
 8004cf6:	60fb      	str	r3, [r7, #12]
 8004cf8:	683b      	ldr	r3, [r7, #0]
 8004cfa:	685b      	ldr	r3, [r3, #4]
 8004cfc:	68fa      	ldr	r2, [r7, #12]
 8004cfe:	4313      	orrs	r3, r2
 8004d00:	60fb      	str	r3, [r7, #12]
 8004d02:	68fb      	ldr	r3, [r7, #12]
 8004d04:	f023 7300 	bic.w	r3, r3, #33554432	; 0x2000000
 8004d08:	f023 0370 	bic.w	r3, r3, #112	; 0x70
 8004d0c:	60fb      	str	r3, [r7, #12]
 8004d0e:	683b      	ldr	r3, [r7, #0]
 8004d10:	681b      	ldr	r3, [r3, #0]
 8004d12:	68fa      	ldr	r2, [r7, #12]
 8004d14:	4313      	orrs	r3, r2
 8004d16:	60fb      	str	r3, [r7, #12]
 8004d18:	687b      	ldr	r3, [r7, #4]
 8004d1a:	681b      	ldr	r3, [r3, #0]
 8004d1c:	68fa      	ldr	r2, [r7, #12]
 8004d1e:	605a      	str	r2, [r3, #4]
 8004d20:	687b      	ldr	r3, [r7, #4]
 8004d22:	681b      	ldr	r3, [r3, #0]
 8004d24:	4a1b      	ldr	r2, [pc, #108]	; (8004d94 <HAL_TIMEx_MasterConfigSynchronization+0xf0>)
 8004d26:	4293      	cmp	r3, r2
 8004d28:	d018      	beq.n	8004d5c <HAL_TIMEx_MasterConfigSynchronization+0xb8>
 8004d2a:	687b      	ldr	r3, [r7, #4]
 8004d2c:	681b      	ldr	r3, [r3, #0]
 8004d2e:	f1b3 4f80 	cmp.w	r3, #1073741824	; 0x40000000
 8004d32:	d013      	beq.n	8004d5c <HAL_TIMEx_MasterConfigSynchronization+0xb8>
 8004d34:	687b      	ldr	r3, [r7, #4]
 8004d36:	681b      	ldr	r3, [r3, #0]
 8004d38:	4a18      	ldr	r2, [pc, #96]	; (8004d9c <HAL_TIMEx_MasterConfigSynchronization+0xf8>)
 8004d3a:	4293      	cmp	r3, r2
 8004d3c:	d00e      	beq.n	8004d5c <HAL_TIMEx_MasterConfigSynchronization+0xb8>
 8004d3e:	687b      	ldr	r3, [r7, #4]
 8004d40:	681b      	ldr	r3, [r3, #0]
 8004d42:	4a17      	ldr	r2, [pc, #92]	; (8004da0 <HAL_TIMEx_MasterConfigSynchronization+0xfc>)
 8004d44:	4293      	cmp	r3, r2
 8004d46:	d009      	beq.n	8004d5c <HAL_TIMEx_MasterConfigSynchronization+0xb8>
 8004d48:	687b      	ldr	r3, [r7, #4]
 8004d4a:	681b      	ldr	r3, [r3, #0]
 8004d4c:	4a12      	ldr	r2, [pc, #72]	; (8004d98 <HAL_TIMEx_MasterConfigSynchronization+0xf4>)
 8004d4e:	4293      	cmp	r3, r2
 8004d50:	d004      	beq.n	8004d5c <HAL_TIMEx_MasterConfigSynchronization+0xb8>
 8004d52:	687b      	ldr	r3, [r7, #4]
 8004d54:	681b      	ldr	r3, [r3, #0]
 8004d56:	4a13      	ldr	r2, [pc, #76]	; (8004da4 <HAL_TIMEx_MasterConfigSynchronization+0x100>)
 8004d58:	4293      	cmp	r3, r2
 8004d5a:	d10c      	bne.n	8004d76 <HAL_TIMEx_MasterConfigSynchronization+0xd2>
 8004d5c:	68bb      	ldr	r3, [r7, #8]
 8004d5e:	f023 0380 	bic.w	r3, r3, #128	; 0x80
 8004d62:	60bb      	str	r3, [r7, #8]
 8004d64:	683b      	ldr	r3, [r7, #0]
 8004d66:	689b      	ldr	r3, [r3, #8]
 8004d68:	68ba      	ldr	r2, [r7, #8]
 8004d6a:	4313      	orrs	r3, r2
 8004d6c:	60bb      	str	r3, [r7, #8]
 8004d6e:	687b      	ldr	r3, [r7, #4]
 8004d70:	681b      	ldr	r3, [r3, #0]
 8004d72:	68ba      	ldr	r2, [r7, #8]
 8004d74:	609a      	str	r2, [r3, #8]
 8004d76:	687b      	ldr	r3, [r7, #4]
 8004d78:	2201      	movs	r2, #1
 8004d7a:	f883 203d 	strb.w	r2, [r3, #61]	; 0x3d
 8004d7e:	687b      	ldr	r3, [r7, #4]
 8004d80:	2200      	movs	r2, #0
 8004d82:	f883 203c 	strb.w	r2, [r3, #60]	; 0x3c
 8004d86:	2300      	movs	r3, #0
 8004d88:	4618      	mov	r0, r3
 8004d8a:	3714      	adds	r7, #20
 8004d8c:	46bd      	mov	sp, r7
 8004d8e:	f85d 7b04 	ldr.w	r7, [sp], #4
 8004d92:	4770      	bx	lr
 8004d94:	40012c00 	.word	0x40012c00
 8004d98:	40013400 	.word	0x40013400
 8004d9c:	40000400 	.word	0x40000400
 8004da0:	40000800 	.word	0x40000800
 8004da4:	40014000 	.word	0x40014000

08004da8 <HAL_TIMEx_ConfigBreakDeadTime>:
 8004da8:	b480      	push	{r7}
 8004daa:	b085      	sub	sp, #20
 8004dac:	af00      	add	r7, sp, #0
 8004dae:	6078      	str	r0, [r7, #4]
 8004db0:	6039      	str	r1, [r7, #0]
 8004db2:	2300      	movs	r3, #0
 8004db4:	60fb      	str	r3, [r7, #12]
 8004db6:	687b      	ldr	r3, [r7, #4]
 8004db8:	f893 303c 	ldrb.w	r3, [r3, #60]	; 0x3c
 8004dbc:	2b01      	cmp	r3, #1
 8004dbe:	d101      	bne.n	8004dc4 <HAL_TIMEx_ConfigBreakDeadTime+0x1c>
 8004dc0:	2302      	movs	r3, #2
 8004dc2:	e087      	b.n	8004ed4 <HAL_TIMEx_ConfigBreakDeadTime+0x12c>
 8004dc4:	687b      	ldr	r3, [r7, #4]
 8004dc6:	2201      	movs	r2, #1
 8004dc8:	f883 203c 	strb.w	r2, [r3, #60]	; 0x3c
 8004dcc:	68fb      	ldr	r3, [r7, #12]
 8004dce:	f023 02ff 	bic.w	r2, r3, #255	; 0xff
 8004dd2:	683b      	ldr	r3, [r7, #0]
 8004dd4:	68db      	ldr	r3, [r3, #12]
 8004dd6:	4313      	orrs	r3, r2
 8004dd8:	60fb      	str	r3, [r7, #12]
 8004dda:	68fb      	ldr	r3, [r7, #12]
 8004ddc:	f423 7240 	bic.w	r2, r3, #768	; 0x300
 8004de0:	683b      	ldr	r3, [r7, #0]
 8004de2:	689b      	ldr	r3, [r3, #8]
 8004de4:	4313      	orrs	r3, r2
 8004de6:	60fb      	str	r3, [r7, #12]
 8004de8:	68fb      	ldr	r3, [r7, #12]
 8004dea:	f423 6280 	bic.w	r2, r3, #1024	; 0x400
 8004dee:	683b      	ldr	r3, [r7, #0]
 8004df0:	685b      	ldr	r3, [r3, #4]
 8004df2:	4313      	orrs	r3, r2
 8004df4:	60fb      	str	r3, [r7, #12]
 8004df6:	68fb      	ldr	r3, [r7, #12]
 8004df8:	f423 6200 	bic.w	r2, r3, #2048	; 0x800
 8004dfc:	683b      	ldr	r3, [r7, #0]
 8004dfe:	681b      	ldr	r3, [r3, #0]
 8004e00:	4313      	orrs	r3, r2
 8004e02:	60fb      	str	r3, [r7, #12]
 8004e04:	68fb      	ldr	r3, [r7, #12]
 8004e06:	f423 5280 	bic.w	r2, r3, #4096	; 0x1000
 8004e0a:	683b      	ldr	r3, [r7, #0]
 8004e0c:	691b      	ldr	r3, [r3, #16]
 8004e0e:	4313      	orrs	r3, r2
 8004e10:	60fb      	str	r3, [r7, #12]
 8004e12:	68fb      	ldr	r3, [r7, #12]
 8004e14:	f423 5200 	bic.w	r2, r3, #8192	; 0x2000
 8004e18:	683b      	ldr	r3, [r7, #0]
 8004e1a:	695b      	ldr	r3, [r3, #20]
 8004e1c:	4313      	orrs	r3, r2
 8004e1e:	60fb      	str	r3, [r7, #12]
 8004e20:	68fb      	ldr	r3, [r7, #12]
 8004e22:	f423 4280 	bic.w	r2, r3, #16384	; 0x4000
 8004e26:	683b      	ldr	r3, [r7, #0]
 8004e28:	6b1b      	ldr	r3, [r3, #48]	; 0x30
 8004e2a:	4313      	orrs	r3, r2
 8004e2c:	60fb      	str	r3, [r7, #12]
 8004e2e:	68fb      	ldr	r3, [r7, #12]
 8004e30:	f423 2270 	bic.w	r2, r3, #983040	; 0xf0000
 8004e34:	683b      	ldr	r3, [r7, #0]
 8004e36:	699b      	ldr	r3, [r3, #24]
 8004e38:	041b      	lsls	r3, r3, #16
 8004e3a:	4313      	orrs	r3, r2
 8004e3c:	60fb      	str	r3, [r7, #12]
 8004e3e:	687b      	ldr	r3, [r7, #4]
 8004e40:	681b      	ldr	r3, [r3, #0]
 8004e42:	4a27      	ldr	r2, [pc, #156]	; (8004ee0 <HAL_TIMEx_ConfigBreakDeadTime+0x138>)
 8004e44:	4293      	cmp	r3, r2
 8004e46:	d004      	beq.n	8004e52 <HAL_TIMEx_ConfigBreakDeadTime+0xaa>
 8004e48:	687b      	ldr	r3, [r7, #4]
 8004e4a:	681b      	ldr	r3, [r3, #0]
 8004e4c:	4a25      	ldr	r2, [pc, #148]	; (8004ee4 <HAL_TIMEx_ConfigBreakDeadTime+0x13c>)
 8004e4e:	4293      	cmp	r3, r2
 8004e50:	d106      	bne.n	8004e60 <HAL_TIMEx_ConfigBreakDeadTime+0xb8>
 8004e52:	68fb      	ldr	r3, [r7, #12]
 8004e54:	f023 5280 	bic.w	r2, r3, #268435456	; 0x10000000
 8004e58:	683b      	ldr	r3, [r7, #0]
 8004e5a:	69db      	ldr	r3, [r3, #28]
 8004e5c:	4313      	orrs	r3, r2
 8004e5e:	60fb      	str	r3, [r7, #12]
 8004e60:	687b      	ldr	r3, [r7, #4]
 8004e62:	681b      	ldr	r3, [r3, #0]
 8004e64:	4a1e      	ldr	r2, [pc, #120]	; (8004ee0 <HAL_TIMEx_ConfigBreakDeadTime+0x138>)
 8004e66:	4293      	cmp	r3, r2
 8004e68:	d004      	beq.n	8004e74 <HAL_TIMEx_ConfigBreakDeadTime+0xcc>
 8004e6a:	687b      	ldr	r3, [r7, #4]
 8004e6c:	681b      	ldr	r3, [r3, #0]
 8004e6e:	4a1d      	ldr	r2, [pc, #116]	; (8004ee4 <HAL_TIMEx_ConfigBreakDeadTime+0x13c>)
 8004e70:	4293      	cmp	r3, r2
 8004e72:	d126      	bne.n	8004ec2 <HAL_TIMEx_ConfigBreakDeadTime+0x11a>
 8004e74:	68fb      	ldr	r3, [r7, #12]
 8004e76:	f423 0270 	bic.w	r2, r3, #15728640	; 0xf00000
 8004e7a:	683b      	ldr	r3, [r7, #0]
 8004e7c:	6a9b      	ldr	r3, [r3, #40]	; 0x28
 8004e7e:	051b      	lsls	r3, r3, #20
 8004e80:	4313      	orrs	r3, r2
 8004e82:	60fb      	str	r3, [r7, #12]
 8004e84:	68fb      	ldr	r3, [r7, #12]
 8004e86:	f023 7280 	bic.w	r2, r3, #16777216	; 0x1000000
 8004e8a:	683b      	ldr	r3, [r7, #0]
 8004e8c:	6a1b      	ldr	r3, [r3, #32]
 8004e8e:	4313      	orrs	r3, r2
 8004e90:	60fb      	str	r3, [r7, #12]
 8004e92:	68fb      	ldr	r3, [r7, #12]
 8004e94:	f023 7200 	bic.w	r2, r3, #33554432	; 0x2000000
 8004e98:	683b      	ldr	r3, [r7, #0]
 8004e9a:	6a5b      	ldr	r3, [r3, #36]	; 0x24
 8004e9c:	4313      	orrs	r3, r2
 8004e9e:	60fb      	str	r3, [r7, #12]
 8004ea0:	687b      	ldr	r3, [r7, #4]
 8004ea2:	681b      	ldr	r3, [r3, #0]
 8004ea4:	4a0e      	ldr	r2, [pc, #56]	; (8004ee0 <HAL_TIMEx_ConfigBreakDeadTime+0x138>)
 8004ea6:	4293      	cmp	r3, r2
 8004ea8:	d004      	beq.n	8004eb4 <HAL_TIMEx_ConfigBreakDeadTime+0x10c>
 8004eaa:	687b      	ldr	r3, [r7, #4]
 8004eac:	681b      	ldr	r3, [r3, #0]
 8004eae:	4a0d      	ldr	r2, [pc, #52]	; (8004ee4 <HAL_TIMEx_ConfigBreakDeadTime+0x13c>)
 8004eb0:	4293      	cmp	r3, r2
 8004eb2:	d106      	bne.n	8004ec2 <HAL_TIMEx_ConfigBreakDeadTime+0x11a>
 8004eb4:	68fb      	ldr	r3, [r7, #12]
 8004eb6:	f023 5200 	bic.w	r2, r3, #536870912	; 0x20000000
 8004eba:	683b      	ldr	r3, [r7, #0]
 8004ebc:	6adb      	ldr	r3, [r3, #44]	; 0x2c
 8004ebe:	4313      	orrs	r3, r2
 8004ec0:	60fb      	str	r3, [r7, #12]
 8004ec2:	687b      	ldr	r3, [r7, #4]
 8004ec4:	681b      	ldr	r3, [r3, #0]
 8004ec6:	68fa      	ldr	r2, [r7, #12]
 8004ec8:	645a      	str	r2, [r3, #68]	; 0x44
 8004eca:	687b      	ldr	r3, [r7, #4]
 8004ecc:	2200      	movs	r2, #0
 8004ece:	f883 203c 	strb.w	r2, [r3, #60]	; 0x3c
 8004ed2:	2300      	movs	r3, #0
 8004ed4:	4618      	mov	r0, r3
 8004ed6:	3714      	adds	r7, #20
 8004ed8:	46bd      	mov	sp, r7
 8004eda:	f85d 7b04 	ldr.w	r7, [sp], #4
 8004ede:	4770      	bx	lr
 8004ee0:	40012c00 	.word	0x40012c00
 8004ee4:	40013400 	.word	0x40013400

08004ee8 <USB_EnableGlobalInt>:
 8004ee8:	b480      	push	{r7}
 8004eea:	b085      	sub	sp, #20
 8004eec:	af00      	add	r7, sp, #0
 8004eee:	6078      	str	r0, [r7, #4]
 8004ef0:	f64b 7380 	movw	r3, #49024	; 0xbf80
 8004ef4:	60fb      	str	r3, [r7, #12]
 8004ef6:	687b      	ldr	r3, [r7, #4]
 8004ef8:	f8b3 3040 	ldrh.w	r3, [r3, #64]	; 0x40
 8004efc:	b29a      	uxth	r2, r3
 8004efe:	68fb      	ldr	r3, [r7, #12]
 8004f00:	b29b      	uxth	r3, r3
 8004f02:	4313      	orrs	r3, r2
 8004f04:	b29a      	uxth	r2, r3
 8004f06:	687b      	ldr	r3, [r7, #4]
 8004f08:	f8a3 2040 	strh.w	r2, [r3, #64]	; 0x40
 8004f0c:	2300      	movs	r3, #0
 8004f0e:	4618      	mov	r0, r3
 8004f10:	3714      	adds	r7, #20
 8004f12:	46bd      	mov	sp, r7
 8004f14:	f85d 7b04 	ldr.w	r7, [sp], #4
 8004f18:	4770      	bx	lr

08004f1a <USB_DisableGlobalInt>:
 8004f1a:	b480      	push	{r7}
 8004f1c:	b085      	sub	sp, #20
 8004f1e:	af00      	add	r7, sp, #0
 8004f20:	6078      	str	r0, [r7, #4]
 8004f22:	f64b 7380 	movw	r3, #49024	; 0xbf80
 8004f26:	60fb      	str	r3, [r7, #12]
 8004f28:	687b      	ldr	r3, [r7, #4]
 8004f2a:	f8b3 3040 	ldrh.w	r3, [r3, #64]	; 0x40
 8004f2e:	b29a      	uxth	r2, r3
 8004f30:	68fb      	ldr	r3, [r7, #12]
 8004f32:	b29b      	uxth	r3, r3
 8004f34:	43db      	mvns	r3, r3
 8004f36:	b29b      	uxth	r3, r3
 8004f38:	4013      	ands	r3, r2
 8004f3a:	b29a      	uxth	r2, r3
 8004f3c:	687b      	ldr	r3, [r7, #4]
 8004f3e:	f8a3 2040 	strh.w	r2, [r3, #64]	; 0x40
 8004f42:	2300      	movs	r3, #0
 8004f44:	4618      	mov	r0, r3
 8004f46:	3714      	adds	r7, #20
 8004f48:	46bd      	mov	sp, r7
 8004f4a:	f85d 7b04 	ldr.w	r7, [sp], #4
 8004f4e:	4770      	bx	lr

08004f50 <USB_DevInit>:
 8004f50:	b084      	sub	sp, #16
 8004f52:	b580      	push	{r7, lr}
 8004f54:	b082      	sub	sp, #8
 8004f56:	af00      	add	r7, sp, #0
 8004f58:	6078      	str	r0, [r7, #4]
 8004f5a:	f107 0014 	add.w	r0, r7, #20
 8004f5e:	e880 000e 	stmia.w	r0, {r1, r2, r3}
 8004f62:	687b      	ldr	r3, [r7, #4]
 8004f64:	2201      	movs	r2, #1
 8004f66:	f8a3 2040 	strh.w	r2, [r3, #64]	; 0x40
 8004f6a:	687b      	ldr	r3, [r7, #4]
 8004f6c:	2200      	movs	r2, #0
 8004f6e:	f8a3 2040 	strh.w	r2, [r3, #64]	; 0x40
 8004f72:	687b      	ldr	r3, [r7, #4]
 8004f74:	2200      	movs	r2, #0
 8004f76:	f8a3 2044 	strh.w	r2, [r3, #68]	; 0x44
 8004f7a:	687b      	ldr	r3, [r7, #4]
 8004f7c:	2200      	movs	r2, #0
 8004f7e:	f8a3 2050 	strh.w	r2, [r3, #80]	; 0x50
 8004f82:	6878      	ldr	r0, [r7, #4]
 8004f84:	f7ff ffb0 	bl	8004ee8 <USB_EnableGlobalInt>
 8004f88:	2300      	movs	r3, #0
 8004f8a:	4618      	mov	r0, r3
 8004f8c:	3708      	adds	r7, #8
 8004f8e:	46bd      	mov	sp, r7
 8004f90:	e8bd 4080 	ldmia.w	sp!, {r7, lr}
 8004f94:	b004      	add	sp, #16
 8004f96:	4770      	bx	lr

08004f98 <USB_ActivateEndpoint>:
 8004f98:	b490      	push	{r4, r7}
 8004f9a:	b084      	sub	sp, #16
 8004f9c:	af00      	add	r7, sp, #0
 8004f9e:	6078      	str	r0, [r7, #4]
 8004fa0:	6039      	str	r1, [r7, #0]
 8004fa2:	2300      	movs	r3, #0
 8004fa4:	73fb      	strb	r3, [r7, #15]
 8004fa6:	687a      	ldr	r2, [r7, #4]
 8004fa8:	683b      	ldr	r3, [r7, #0]
 8004faa:	781b      	ldrb	r3, [r3, #0]
 8004fac:	009b      	lsls	r3, r3, #2
 8004fae:	4413      	add	r3, r2
 8004fb0:	881b      	ldrh	r3, [r3, #0]
 8004fb2:	b29b      	uxth	r3, r3
 8004fb4:	f423 43ec 	bic.w	r3, r3, #30208	; 0x7600
 8004fb8:	f023 0370 	bic.w	r3, r3, #112	; 0x70
 8004fbc:	81bb      	strh	r3, [r7, #12]
 8004fbe:	683b      	ldr	r3, [r7, #0]
 8004fc0:	78db      	ldrb	r3, [r3, #3]
 8004fc2:	2b03      	cmp	r3, #3
 8004fc4:	d819      	bhi.n	8004ffa <USB_ActivateEndpoint+0x62>
 8004fc6:	a201      	add	r2, pc, #4	; (adr r2, 8004fcc <USB_ActivateEndpoint+0x34>)
 8004fc8:	f852 f023 	ldr.w	pc, [r2, r3, lsl #2]
 8004fcc:	08004fdd 	.word	0x08004fdd
 8004fd0:	08004ff1 	.word	0x08004ff1
 8004fd4:	08005001 	.word	0x08005001
 8004fd8:	08004fe7 	.word	0x08004fe7
 8004fdc:	89bb      	ldrh	r3, [r7, #12]
 8004fde:	f443 7300 	orr.w	r3, r3, #512	; 0x200
 8004fe2:	81bb      	strh	r3, [r7, #12]
 8004fe4:	e00d      	b.n	8005002 <USB_ActivateEndpoint+0x6a>
 8004fe6:	89bb      	ldrh	r3, [r7, #12]
 8004fe8:	f443 63c0 	orr.w	r3, r3, #1536	; 0x600
 8004fec:	81bb      	strh	r3, [r7, #12]
 8004fee:	e008      	b.n	8005002 <USB_ActivateEndpoint+0x6a>
 8004ff0:	89bb      	ldrh	r3, [r7, #12]
 8004ff2:	f443 6380 	orr.w	r3, r3, #1024	; 0x400
 8004ff6:	81bb      	strh	r3, [r7, #12]
 8004ff8:	e003      	b.n	8005002 <USB_ActivateEndpoint+0x6a>
 8004ffa:	2301      	movs	r3, #1
 8004ffc:	73fb      	strb	r3, [r7, #15]
 8004ffe:	e000      	b.n	8005002 <USB_ActivateEndpoint+0x6a>
 8005000:	bf00      	nop
 8005002:	687a      	ldr	r2, [r7, #4]
 8005004:	683b      	ldr	r3, [r7, #0]
 8005006:	781b      	ldrb	r3, [r3, #0]
 8005008:	009b      	lsls	r3, r3, #2
 800500a:	441a      	add	r2, r3
 800500c:	89bb      	ldrh	r3, [r7, #12]
 800500e:	f043 437f 	orr.w	r3, r3, #4278190080	; 0xff000000
 8005012:	f443 037f 	orr.w	r3, r3, #16711680	; 0xff0000
 8005016:	f443 4300 	orr.w	r3, r3, #32768	; 0x8000
 800501a:	f043 0380 	orr.w	r3, r3, #128	; 0x80
 800501e:	b29b      	uxth	r3, r3
 8005020:	8013      	strh	r3, [r2, #0]
 8005022:	687a      	ldr	r2, [r7, #4]
 8005024:	683b      	ldr	r3, [r7, #0]
 8005026:	781b      	ldrb	r3, [r3, #0]
 8005028:	009b      	lsls	r3, r3, #2
 800502a:	4413      	add	r3, r2
 800502c:	881b      	ldrh	r3, [r3, #0]
 800502e:	b29b      	uxth	r3, r3
 8005030:	b21b      	sxth	r3, r3
 8005032:	f423 43e0 	bic.w	r3, r3, #28672	; 0x7000
 8005036:	f023 0370 	bic.w	r3, r3, #112	; 0x70
 800503a:	b21a      	sxth	r2, r3
 800503c:	683b      	ldr	r3, [r7, #0]
 800503e:	781b      	ldrb	r3, [r3, #0]
 8005040:	b21b      	sxth	r3, r3
 8005042:	4313      	orrs	r3, r2
 8005044:	b21b      	sxth	r3, r3
 8005046:	b29c      	uxth	r4, r3
 8005048:	687a      	ldr	r2, [r7, #4]
 800504a:	683b      	ldr	r3, [r7, #0]
 800504c:	781b      	ldrb	r3, [r3, #0]
 800504e:	009b      	lsls	r3, r3, #2
 8005050:	441a      	add	r2, r3
 8005052:	4b8a      	ldr	r3, [pc, #552]	; (800527c <USB_ActivateEndpoint+0x2e4>)
 8005054:	4323      	orrs	r3, r4
 8005056:	b29b      	uxth	r3, r3
 8005058:	8013      	strh	r3, [r2, #0]
 800505a:	683b      	ldr	r3, [r7, #0]
 800505c:	7b1b      	ldrb	r3, [r3, #12]
 800505e:	2b00      	cmp	r3, #0
 8005060:	f040 8112 	bne.w	8005288 <USB_ActivateEndpoint+0x2f0>
 8005064:	683b      	ldr	r3, [r7, #0]
 8005066:	785b      	ldrb	r3, [r3, #1]
 8005068:	2b00      	cmp	r3, #0
 800506a:	d067      	beq.n	800513c <USB_ActivateEndpoint+0x1a4>
 800506c:	687c      	ldr	r4, [r7, #4]
 800506e:	687b      	ldr	r3, [r7, #4]
 8005070:	f8b3 3050 	ldrh.w	r3, [r3, #80]	; 0x50
 8005074:	b29b      	uxth	r3, r3
 8005076:	441c      	add	r4, r3
 8005078:	683b      	ldr	r3, [r7, #0]
 800507a:	781b      	ldrb	r3, [r3, #0]
 800507c:	00db      	lsls	r3, r3, #3
 800507e:	4423      	add	r3, r4
 8005080:	f503 6380 	add.w	r3, r3, #1024	; 0x400
 8005084:	461c      	mov	r4, r3
 8005086:	683b      	ldr	r3, [r7, #0]
 8005088:	88db      	ldrh	r3, [r3, #6]
 800508a:	085b      	lsrs	r3, r3, #1
 800508c:	b29b      	uxth	r3, r3
 800508e:	005b      	lsls	r3, r3, #1
 8005090:	b29b      	uxth	r3, r3
 8005092:	8023      	strh	r3, [r4, #0]
 8005094:	687a      	ldr	r2, [r7, #4]
 8005096:	683b      	ldr	r3, [r7, #0]
 8005098:	781b      	ldrb	r3, [r3, #0]
 800509a:	009b      	lsls	r3, r3, #2
 800509c:	4413      	add	r3, r2
 800509e:	881b      	ldrh	r3, [r3, #0]
 80050a0:	b29c      	uxth	r4, r3
 80050a2:	4623      	mov	r3, r4
 80050a4:	f003 0340 	and.w	r3, r3, #64	; 0x40
 80050a8:	2b00      	cmp	r3, #0
 80050aa:	d014      	beq.n	80050d6 <USB_ActivateEndpoint+0x13e>
 80050ac:	687a      	ldr	r2, [r7, #4]
 80050ae:	683b      	ldr	r3, [r7, #0]
 80050b0:	781b      	ldrb	r3, [r3, #0]
 80050b2:	009b      	lsls	r3, r3, #2
 80050b4:	4413      	add	r3, r2
 80050b6:	881b      	ldrh	r3, [r3, #0]
 80050b8:	b29b      	uxth	r3, r3
 80050ba:	f423 43e0 	bic.w	r3, r3, #28672	; 0x7000
 80050be:	f023 0370 	bic.w	r3, r3, #112	; 0x70
 80050c2:	b29c      	uxth	r4, r3
 80050c4:	687a      	ldr	r2, [r7, #4]
 80050c6:	683b      	ldr	r3, [r7, #0]
 80050c8:	781b      	ldrb	r3, [r3, #0]
 80050ca:	009b      	lsls	r3, r3, #2
 80050cc:	441a      	add	r2, r3
 80050ce:	4b6c      	ldr	r3, [pc, #432]	; (8005280 <USB_ActivateEndpoint+0x2e8>)
 80050d0:	4323      	orrs	r3, r4
 80050d2:	b29b      	uxth	r3, r3
 80050d4:	8013      	strh	r3, [r2, #0]
 80050d6:	683b      	ldr	r3, [r7, #0]
 80050d8:	78db      	ldrb	r3, [r3, #3]
 80050da:	2b01      	cmp	r3, #1
 80050dc:	d018      	beq.n	8005110 <USB_ActivateEndpoint+0x178>
 80050de:	687a      	ldr	r2, [r7, #4]
 80050e0:	683b      	ldr	r3, [r7, #0]
 80050e2:	781b      	ldrb	r3, [r3, #0]
 80050e4:	009b      	lsls	r3, r3, #2
 80050e6:	4413      	add	r3, r2
 80050e8:	881b      	ldrh	r3, [r3, #0]
 80050ea:	b29b      	uxth	r3, r3
 80050ec:	f423 43e0 	bic.w	r3, r3, #28672	; 0x7000
 80050f0:	f023 0340 	bic.w	r3, r3, #64	; 0x40
 80050f4:	b29c      	uxth	r4, r3
 80050f6:	f084 0320 	eor.w	r3, r4, #32
 80050fa:	b29c      	uxth	r4, r3
 80050fc:	687a      	ldr	r2, [r7, #4]
 80050fe:	683b      	ldr	r3, [r7, #0]
 8005100:	781b      	ldrb	r3, [r3, #0]
 8005102:	009b      	lsls	r3, r3, #2
 8005104:	441a      	add	r2, r3
 8005106:	4b5d      	ldr	r3, [pc, #372]	; (800527c <USB_ActivateEndpoint+0x2e4>)
 8005108:	4323      	orrs	r3, r4
 800510a:	b29b      	uxth	r3, r3
 800510c:	8013      	strh	r3, [r2, #0]
 800510e:	e22b      	b.n	8005568 <USB_ActivateEndpoint+0x5d0>
 8005110:	687a      	ldr	r2, [r7, #4]
 8005112:	683b      	ldr	r3, [r7, #0]
 8005114:	781b      	ldrb	r3, [r3, #0]
 8005116:	009b      	lsls	r3, r3, #2
 8005118:	4413      	add	r3, r2
 800511a:	881b      	ldrh	r3, [r3, #0]
 800511c:	b29b      	uxth	r3, r3
 800511e:	f423 43e0 	bic.w	r3, r3, #28672	; 0x7000
 8005122:	f023 0340 	bic.w	r3, r3, #64	; 0x40
 8005126:	b29c      	uxth	r4, r3
 8005128:	687a      	ldr	r2, [r7, #4]
 800512a:	683b      	ldr	r3, [r7, #0]
 800512c:	781b      	ldrb	r3, [r3, #0]
 800512e:	009b      	lsls	r3, r3, #2
 8005130:	441a      	add	r2, r3
 8005132:	4b52      	ldr	r3, [pc, #328]	; (800527c <USB_ActivateEndpoint+0x2e4>)
 8005134:	4323      	orrs	r3, r4
 8005136:	b29b      	uxth	r3, r3
 8005138:	8013      	strh	r3, [r2, #0]
 800513a:	e215      	b.n	8005568 <USB_ActivateEndpoint+0x5d0>
 800513c:	687c      	ldr	r4, [r7, #4]
 800513e:	687b      	ldr	r3, [r7, #4]
 8005140:	f8b3 3050 	ldrh.w	r3, [r3, #80]	; 0x50
 8005144:	b29b      	uxth	r3, r3
 8005146:	441c      	add	r4, r3
 8005148:	683b      	ldr	r3, [r7, #0]
 800514a:	781b      	ldrb	r3, [r3, #0]
 800514c:	00db      	lsls	r3, r3, #3
 800514e:	4423      	add	r3, r4
 8005150:	f203 4304 	addw	r3, r3, #1028	; 0x404
 8005154:	461c      	mov	r4, r3
 8005156:	683b      	ldr	r3, [r7, #0]
 8005158:	88db      	ldrh	r3, [r3, #6]
 800515a:	085b      	lsrs	r3, r3, #1
 800515c:	b29b      	uxth	r3, r3
 800515e:	005b      	lsls	r3, r3, #1
 8005160:	b29b      	uxth	r3, r3
 8005162:	8023      	strh	r3, [r4, #0]
 8005164:	687c      	ldr	r4, [r7, #4]
 8005166:	687b      	ldr	r3, [r7, #4]
 8005168:	f8b3 3050 	ldrh.w	r3, [r3, #80]	; 0x50
 800516c:	b29b      	uxth	r3, r3
 800516e:	441c      	add	r4, r3
 8005170:	683b      	ldr	r3, [r7, #0]
 8005172:	781b      	ldrb	r3, [r3, #0]
 8005174:	00db      	lsls	r3, r3, #3
 8005176:	4423      	add	r3, r4
 8005178:	f203 4306 	addw	r3, r3, #1030	; 0x406
 800517c:	461c      	mov	r4, r3
 800517e:	683b      	ldr	r3, [r7, #0]
 8005180:	691b      	ldr	r3, [r3, #16]
 8005182:	2b00      	cmp	r3, #0
 8005184:	d10e      	bne.n	80051a4 <USB_ActivateEndpoint+0x20c>
 8005186:	8823      	ldrh	r3, [r4, #0]
 8005188:	b29b      	uxth	r3, r3
 800518a:	f423 43f8 	bic.w	r3, r3, #31744	; 0x7c00
 800518e:	b29b      	uxth	r3, r3
 8005190:	8023      	strh	r3, [r4, #0]
 8005192:	8823      	ldrh	r3, [r4, #0]
 8005194:	b29b      	uxth	r3, r3
 8005196:	ea6f 4343 	mvn.w	r3, r3, lsl #17
 800519a:	ea6f 4353 	mvn.w	r3, r3, lsr #17
 800519e:	b29b      	uxth	r3, r3
 80051a0:	8023      	strh	r3, [r4, #0]
 80051a2:	e02d      	b.n	8005200 <USB_ActivateEndpoint+0x268>
 80051a4:	683b      	ldr	r3, [r7, #0]
 80051a6:	691b      	ldr	r3, [r3, #16]
 80051a8:	2b3e      	cmp	r3, #62	; 0x3e
 80051aa:	d812      	bhi.n	80051d2 <USB_ActivateEndpoint+0x23a>
 80051ac:	683b      	ldr	r3, [r7, #0]
 80051ae:	691b      	ldr	r3, [r3, #16]
 80051b0:	085b      	lsrs	r3, r3, #1
 80051b2:	60bb      	str	r3, [r7, #8]
 80051b4:	683b      	ldr	r3, [r7, #0]
 80051b6:	691b      	ldr	r3, [r3, #16]
 80051b8:	f003 0301 	and.w	r3, r3, #1
 80051bc:	2b00      	cmp	r3, #0
 80051be:	d002      	beq.n	80051c6 <USB_ActivateEndpoint+0x22e>
 80051c0:	68bb      	ldr	r3, [r7, #8]
 80051c2:	3301      	adds	r3, #1
 80051c4:	60bb      	str	r3, [r7, #8]
 80051c6:	68bb      	ldr	r3, [r7, #8]
 80051c8:	b29b      	uxth	r3, r3
 80051ca:	029b      	lsls	r3, r3, #10
 80051cc:	b29b      	uxth	r3, r3
 80051ce:	8023      	strh	r3, [r4, #0]
 80051d0:	e016      	b.n	8005200 <USB_ActivateEndpoint+0x268>
 80051d2:	683b      	ldr	r3, [r7, #0]
 80051d4:	691b      	ldr	r3, [r3, #16]
 80051d6:	095b      	lsrs	r3, r3, #5
 80051d8:	60bb      	str	r3, [r7, #8]
 80051da:	683b      	ldr	r3, [r7, #0]
 80051dc:	691b      	ldr	r3, [r3, #16]
 80051de:	f003 031f 	and.w	r3, r3, #31
 80051e2:	2b00      	cmp	r3, #0
 80051e4:	d102      	bne.n	80051ec <USB_ActivateEndpoint+0x254>
 80051e6:	68bb      	ldr	r3, [r7, #8]
 80051e8:	3b01      	subs	r3, #1
 80051ea:	60bb      	str	r3, [r7, #8]
 80051ec:	68bb      	ldr	r3, [r7, #8]
 80051ee:	b29b      	uxth	r3, r3
 80051f0:	029b      	lsls	r3, r3, #10
 80051f2:	b29b      	uxth	r3, r3
 80051f4:	ea6f 4343 	mvn.w	r3, r3, lsl #17
 80051f8:	ea6f 4353 	mvn.w	r3, r3, lsr #17
 80051fc:	b29b      	uxth	r3, r3
 80051fe:	8023      	strh	r3, [r4, #0]
 8005200:	687a      	ldr	r2, [r7, #4]
 8005202:	683b      	ldr	r3, [r7, #0]
 8005204:	781b      	ldrb	r3, [r3, #0]
 8005206:	009b      	lsls	r3, r3, #2
 8005208:	4413      	add	r3, r2
 800520a:	881b      	ldrh	r3, [r3, #0]
 800520c:	b29c      	uxth	r4, r3
 800520e:	4623      	mov	r3, r4
 8005210:	f403 4380 	and.w	r3, r3, #16384	; 0x4000
 8005214:	2b00      	cmp	r3, #0
 8005216:	d014      	beq.n	8005242 <USB_ActivateEndpoint+0x2aa>
 8005218:	687a      	ldr	r2, [r7, #4]
 800521a:	683b      	ldr	r3, [r7, #0]
 800521c:	781b      	ldrb	r3, [r3, #0]
 800521e:	009b      	lsls	r3, r3, #2
 8005220:	4413      	add	r3, r2
 8005222:	881b      	ldrh	r3, [r3, #0]
 8005224:	b29b      	uxth	r3, r3
 8005226:	f423 43e0 	bic.w	r3, r3, #28672	; 0x7000
 800522a:	f023 0370 	bic.w	r3, r3, #112	; 0x70
 800522e:	b29c      	uxth	r4, r3
 8005230:	687a      	ldr	r2, [r7, #4]
 8005232:	683b      	ldr	r3, [r7, #0]
 8005234:	781b      	ldrb	r3, [r3, #0]
 8005236:	009b      	lsls	r3, r3, #2
 8005238:	441a      	add	r2, r3
 800523a:	4b12      	ldr	r3, [pc, #72]	; (8005284 <USB_ActivateEndpoint+0x2ec>)
 800523c:	4323      	orrs	r3, r4
 800523e:	b29b      	uxth	r3, r3
 8005240:	8013      	strh	r3, [r2, #0]
 8005242:	687a      	ldr	r2, [r7, #4]
 8005244:	683b      	ldr	r3, [r7, #0]
 8005246:	781b      	ldrb	r3, [r3, #0]
 8005248:	009b      	lsls	r3, r3, #2
 800524a:	4413      	add	r3, r2
 800524c:	881b      	ldrh	r3, [r3, #0]
 800524e:	b29b      	uxth	r3, r3
 8005250:	f423 4380 	bic.w	r3, r3, #16384	; 0x4000
 8005254:	f023 0370 	bic.w	r3, r3, #112	; 0x70
 8005258:	b29c      	uxth	r4, r3
 800525a:	f484 5380 	eor.w	r3, r4, #4096	; 0x1000
 800525e:	b29c      	uxth	r4, r3
 8005260:	f484 5300 	eor.w	r3, r4, #8192	; 0x2000
 8005264:	b29c      	uxth	r4, r3
 8005266:	687a      	ldr	r2, [r7, #4]
 8005268:	683b      	ldr	r3, [r7, #0]
 800526a:	781b      	ldrb	r3, [r3, #0]
 800526c:	009b      	lsls	r3, r3, #2
 800526e:	441a      	add	r2, r3
 8005270:	4b02      	ldr	r3, [pc, #8]	; (800527c <USB_ActivateEndpoint+0x2e4>)
 8005272:	4323      	orrs	r3, r4
 8005274:	b29b      	uxth	r3, r3
 8005276:	8013      	strh	r3, [r2, #0]
 8005278:	e176      	b.n	8005568 <USB_ActivateEndpoint+0x5d0>
 800527a:	bf00      	nop
 800527c:	ffff8080 	.word	0xffff8080
 8005280:	ffff80c0 	.word	0xffff80c0
 8005284:	ffffc080 	.word	0xffffc080
 8005288:	687a      	ldr	r2, [r7, #4]
 800528a:	683b      	ldr	r3, [r7, #0]
 800528c:	781b      	ldrb	r3, [r3, #0]
 800528e:	009b      	lsls	r3, r3, #2
 8005290:	4413      	add	r3, r2
 8005292:	881b      	ldrh	r3, [r3, #0]
 8005294:	b29b      	uxth	r3, r3
 8005296:	f423 43e0 	bic.w	r3, r3, #28672	; 0x7000
 800529a:	f023 0370 	bic.w	r3, r3, #112	; 0x70
 800529e:	b29c      	uxth	r4, r3
 80052a0:	687a      	ldr	r2, [r7, #4]
 80052a2:	683b      	ldr	r3, [r7, #0]
 80052a4:	781b      	ldrb	r3, [r3, #0]
 80052a6:	009b      	lsls	r3, r3, #2
 80052a8:	441a      	add	r2, r3
 80052aa:	4b96      	ldr	r3, [pc, #600]	; (8005504 <USB_ActivateEndpoint+0x56c>)
 80052ac:	4323      	orrs	r3, r4
 80052ae:	b29b      	uxth	r3, r3
 80052b0:	8013      	strh	r3, [r2, #0]
 80052b2:	687c      	ldr	r4, [r7, #4]
 80052b4:	687b      	ldr	r3, [r7, #4]
 80052b6:	f8b3 3050 	ldrh.w	r3, [r3, #80]	; 0x50
 80052ba:	b29b      	uxth	r3, r3
 80052bc:	441c      	add	r4, r3
 80052be:	683b      	ldr	r3, [r7, #0]
 80052c0:	781b      	ldrb	r3, [r3, #0]
 80052c2:	00db      	lsls	r3, r3, #3
 80052c4:	4423      	add	r3, r4
 80052c6:	f503 6380 	add.w	r3, r3, #1024	; 0x400
 80052ca:	461c      	mov	r4, r3
 80052cc:	683b      	ldr	r3, [r7, #0]
 80052ce:	891b      	ldrh	r3, [r3, #8]
 80052d0:	085b      	lsrs	r3, r3, #1
 80052d2:	b29b      	uxth	r3, r3
 80052d4:	005b      	lsls	r3, r3, #1
 80052d6:	b29b      	uxth	r3, r3
 80052d8:	8023      	strh	r3, [r4, #0]
 80052da:	687c      	ldr	r4, [r7, #4]
 80052dc:	687b      	ldr	r3, [r7, #4]
 80052de:	f8b3 3050 	ldrh.w	r3, [r3, #80]	; 0x50
 80052e2:	b29b      	uxth	r3, r3
 80052e4:	441c      	add	r4, r3
 80052e6:	683b      	ldr	r3, [r7, #0]
 80052e8:	781b      	ldrb	r3, [r3, #0]
 80052ea:	00db      	lsls	r3, r3, #3
 80052ec:	4423      	add	r3, r4
 80052ee:	f203 4304 	addw	r3, r3, #1028	; 0x404
 80052f2:	461c      	mov	r4, r3
 80052f4:	683b      	ldr	r3, [r7, #0]
 80052f6:	895b      	ldrh	r3, [r3, #10]
 80052f8:	085b      	lsrs	r3, r3, #1
 80052fa:	b29b      	uxth	r3, r3
 80052fc:	005b      	lsls	r3, r3, #1
 80052fe:	b29b      	uxth	r3, r3
 8005300:	8023      	strh	r3, [r4, #0]
 8005302:	683b      	ldr	r3, [r7, #0]
 8005304:	785b      	ldrb	r3, [r3, #1]
 8005306:	2b00      	cmp	r3, #0
 8005308:	f040 8088 	bne.w	800541c <USB_ActivateEndpoint+0x484>
 800530c:	687a      	ldr	r2, [r7, #4]
 800530e:	683b      	ldr	r3, [r7, #0]
 8005310:	781b      	ldrb	r3, [r3, #0]
 8005312:	009b      	lsls	r3, r3, #2
 8005314:	4413      	add	r3, r2
 8005316:	881b      	ldrh	r3, [r3, #0]
 8005318:	b29c      	uxth	r4, r3
 800531a:	4623      	mov	r3, r4
 800531c:	f403 4380 	and.w	r3, r3, #16384	; 0x4000
 8005320:	2b00      	cmp	r3, #0
 8005322:	d014      	beq.n	800534e <USB_ActivateEndpoint+0x3b6>
 8005324:	687a      	ldr	r2, [r7, #4]
 8005326:	683b      	ldr	r3, [r7, #0]
 8005328:	781b      	ldrb	r3, [r3, #0]
 800532a:	009b      	lsls	r3, r3, #2
 800532c:	4413      	add	r3, r2
 800532e:	881b      	ldrh	r3, [r3, #0]
 8005330:	b29b      	uxth	r3, r3
 8005332:	f423 43e0 	bic.w	r3, r3, #28672	; 0x7000
 8005336:	f023 0370 	bic.w	r3, r3, #112	; 0x70
 800533a:	b29c      	uxth	r4, r3
 800533c:	687a      	ldr	r2, [r7, #4]
 800533e:	683b      	ldr	r3, [r7, #0]
 8005340:	781b      	ldrb	r3, [r3, #0]
 8005342:	009b      	lsls	r3, r3, #2
 8005344:	441a      	add	r2, r3
 8005346:	4b70      	ldr	r3, [pc, #448]	; (8005508 <USB_ActivateEndpoint+0x570>)
 8005348:	4323      	orrs	r3, r4
 800534a:	b29b      	uxth	r3, r3
 800534c:	8013      	strh	r3, [r2, #0]
 800534e:	687a      	ldr	r2, [r7, #4]
 8005350:	683b      	ldr	r3, [r7, #0]
 8005352:	781b      	ldrb	r3, [r3, #0]
 8005354:	009b      	lsls	r3, r3, #2
 8005356:	4413      	add	r3, r2
 8005358:	881b      	ldrh	r3, [r3, #0]
 800535a:	b29c      	uxth	r4, r3
 800535c:	4623      	mov	r3, r4
 800535e:	f003 0340 	and.w	r3, r3, #64	; 0x40
 8005362:	2b00      	cmp	r3, #0
 8005364:	d014      	beq.n	8005390 <USB_ActivateEndpoint+0x3f8>
 8005366:	687a      	ldr	r2, [r7, #4]
 8005368:	683b      	ldr	r3, [r7, #0]
 800536a:	781b      	ldrb	r3, [r3, #0]
 800536c:	009b      	lsls	r3, r3, #2
 800536e:	4413      	add	r3, r2
 8005370:	881b      	ldrh	r3, [r3, #0]
 8005372:	b29b      	uxth	r3, r3
 8005374:	f423 43e0 	bic.w	r3, r3, #28672	; 0x7000
 8005378:	f023 0370 	bic.w	r3, r3, #112	; 0x70
 800537c:	b29c      	uxth	r4, r3
 800537e:	687a      	ldr	r2, [r7, #4]
 8005380:	683b      	ldr	r3, [r7, #0]
 8005382:	781b      	ldrb	r3, [r3, #0]
 8005384:	009b      	lsls	r3, r3, #2
 8005386:	441a      	add	r2, r3
 8005388:	4b60      	ldr	r3, [pc, #384]	; (800550c <USB_ActivateEndpoint+0x574>)
 800538a:	4323      	orrs	r3, r4
 800538c:	b29b      	uxth	r3, r3
 800538e:	8013      	strh	r3, [r2, #0]
 8005390:	687a      	ldr	r2, [r7, #4]
 8005392:	683b      	ldr	r3, [r7, #0]
 8005394:	781b      	ldrb	r3, [r3, #0]
 8005396:	009b      	lsls	r3, r3, #2
 8005398:	4413      	add	r3, r2
 800539a:	881b      	ldrh	r3, [r3, #0]
 800539c:	b29b      	uxth	r3, r3
 800539e:	f423 43e0 	bic.w	r3, r3, #28672	; 0x7000
 80053a2:	f023 0370 	bic.w	r3, r3, #112	; 0x70
 80053a6:	b29c      	uxth	r4, r3
 80053a8:	687a      	ldr	r2, [r7, #4]
 80053aa:	683b      	ldr	r3, [r7, #0]
 80053ac:	781b      	ldrb	r3, [r3, #0]
 80053ae:	009b      	lsls	r3, r3, #2
 80053b0:	441a      	add	r2, r3
 80053b2:	4b56      	ldr	r3, [pc, #344]	; (800550c <USB_ActivateEndpoint+0x574>)
 80053b4:	4323      	orrs	r3, r4
 80053b6:	b29b      	uxth	r3, r3
 80053b8:	8013      	strh	r3, [r2, #0]
 80053ba:	687a      	ldr	r2, [r7, #4]
 80053bc:	683b      	ldr	r3, [r7, #0]
 80053be:	781b      	ldrb	r3, [r3, #0]
 80053c0:	009b      	lsls	r3, r3, #2
 80053c2:	4413      	add	r3, r2
 80053c4:	881b      	ldrh	r3, [r3, #0]
 80053c6:	b29b      	uxth	r3, r3
 80053c8:	f423 4380 	bic.w	r3, r3, #16384	; 0x4000
 80053cc:	f023 0370 	bic.w	r3, r3, #112	; 0x70
 80053d0:	b29c      	uxth	r4, r3
 80053d2:	f484 5380 	eor.w	r3, r4, #4096	; 0x1000
 80053d6:	b29c      	uxth	r4, r3
 80053d8:	f484 5300 	eor.w	r3, r4, #8192	; 0x2000
 80053dc:	b29c      	uxth	r4, r3
 80053de:	687a      	ldr	r2, [r7, #4]
 80053e0:	683b      	ldr	r3, [r7, #0]
 80053e2:	781b      	ldrb	r3, [r3, #0]
 80053e4:	009b      	lsls	r3, r3, #2
 80053e6:	441a      	add	r2, r3
 80053e8:	4b49      	ldr	r3, [pc, #292]	; (8005510 <USB_ActivateEndpoint+0x578>)
 80053ea:	4323      	orrs	r3, r4
 80053ec:	b29b      	uxth	r3, r3
 80053ee:	8013      	strh	r3, [r2, #0]
 80053f0:	687a      	ldr	r2, [r7, #4]
 80053f2:	683b      	ldr	r3, [r7, #0]
 80053f4:	781b      	ldrb	r3, [r3, #0]
 80053f6:	009b      	lsls	r3, r3, #2
 80053f8:	4413      	add	r3, r2
 80053fa:	881b      	ldrh	r3, [r3, #0]
 80053fc:	b29b      	uxth	r3, r3
 80053fe:	f423 43e0 	bic.w	r3, r3, #28672	; 0x7000
 8005402:	f023 0340 	bic.w	r3, r3, #64	; 0x40
 8005406:	b29c      	uxth	r4, r3
 8005408:	687a      	ldr	r2, [r7, #4]
 800540a:	683b      	ldr	r3, [r7, #0]
 800540c:	781b      	ldrb	r3, [r3, #0]
 800540e:	009b      	lsls	r3, r3, #2
 8005410:	441a      	add	r2, r3
 8005412:	4b3f      	ldr	r3, [pc, #252]	; (8005510 <USB_ActivateEndpoint+0x578>)
 8005414:	4323      	orrs	r3, r4
 8005416:	b29b      	uxth	r3, r3
 8005418:	8013      	strh	r3, [r2, #0]
 800541a:	e0a5      	b.n	8005568 <USB_ActivateEndpoint+0x5d0>
 800541c:	687a      	ldr	r2, [r7, #4]
 800541e:	683b      	ldr	r3, [r7, #0]
 8005420:	781b      	ldrb	r3, [r3, #0]
 8005422:	009b      	lsls	r3, r3, #2
 8005424:	4413      	add	r3, r2
 8005426:	881b      	ldrh	r3, [r3, #0]
 8005428:	b29c      	uxth	r4, r3
 800542a:	4623      	mov	r3, r4
 800542c:	f403 4380 	and.w	r3, r3, #16384	; 0x4000
 8005430:	2b00      	cmp	r3, #0
 8005432:	d014      	beq.n	800545e <USB_ActivateEndpoint+0x4c6>
 8005434:	687a      	ldr	r2, [r7, #4]
 8005436:	683b      	ldr	r3, [r7, #0]
 8005438:	781b      	ldrb	r3, [r3, #0]
 800543a:	009b      	lsls	r3, r3, #2
 800543c:	4413      	add	r3, r2
 800543e:	881b      	ldrh	r3, [r3, #0]
 8005440:	b29b      	uxth	r3, r3
 8005442:	f423 43e0 	bic.w	r3, r3, #28672	; 0x7000
 8005446:	f023 0370 	bic.w	r3, r3, #112	; 0x70
 800544a:	b29c      	uxth	r4, r3
 800544c:	687a      	ldr	r2, [r7, #4]
 800544e:	683b      	ldr	r3, [r7, #0]
 8005450:	781b      	ldrb	r3, [r3, #0]
 8005452:	009b      	lsls	r3, r3, #2
 8005454:	441a      	add	r2, r3
 8005456:	4b2c      	ldr	r3, [pc, #176]	; (8005508 <USB_ActivateEndpoint+0x570>)
 8005458:	4323      	orrs	r3, r4
 800545a:	b29b      	uxth	r3, r3
 800545c:	8013      	strh	r3, [r2, #0]
 800545e:	687a      	ldr	r2, [r7, #4]
 8005460:	683b      	ldr	r3, [r7, #0]
 8005462:	781b      	ldrb	r3, [r3, #0]
 8005464:	009b      	lsls	r3, r3, #2
 8005466:	4413      	add	r3, r2
 8005468:	881b      	ldrh	r3, [r3, #0]
 800546a:	b29c      	uxth	r4, r3
 800546c:	4623      	mov	r3, r4
 800546e:	f003 0340 	and.w	r3, r3, #64	; 0x40
 8005472:	2b00      	cmp	r3, #0
 8005474:	d014      	beq.n	80054a0 <USB_ActivateEndpoint+0x508>
 8005476:	687a      	ldr	r2, [r7, #4]
 8005478:	683b      	ldr	r3, [r7, #0]
 800547a:	781b      	ldrb	r3, [r3, #0]
 800547c:	009b      	lsls	r3, r3, #2
 800547e:	4413      	add	r3, r2
 8005480:	881b      	ldrh	r3, [r3, #0]
 8005482:	b29b      	uxth	r3, r3
 8005484:	f423 43e0 	bic.w	r3, r3, #28672	; 0x7000
 8005488:	f023 0370 	bic.w	r3, r3, #112	; 0x70
 800548c:	b29c      	uxth	r4, r3
 800548e:	687a      	ldr	r2, [r7, #4]
 8005490:	683b      	ldr	r3, [r7, #0]
 8005492:	781b      	ldrb	r3, [r3, #0]
 8005494:	009b      	lsls	r3, r3, #2
 8005496:	441a      	add	r2, r3
 8005498:	4b1c      	ldr	r3, [pc, #112]	; (800550c <USB_ActivateEndpoint+0x574>)
 800549a:	4323      	orrs	r3, r4
 800549c:	b29b      	uxth	r3, r3
 800549e:	8013      	strh	r3, [r2, #0]
 80054a0:	687a      	ldr	r2, [r7, #4]
 80054a2:	683b      	ldr	r3, [r7, #0]
 80054a4:	781b      	ldrb	r3, [r3, #0]
 80054a6:	009b      	lsls	r3, r3, #2
 80054a8:	4413      	add	r3, r2
 80054aa:	881b      	ldrh	r3, [r3, #0]
 80054ac:	b29b      	uxth	r3, r3
 80054ae:	f423 43e0 	bic.w	r3, r3, #28672	; 0x7000
 80054b2:	f023 0370 	bic.w	r3, r3, #112	; 0x70
 80054b6:	b29c      	uxth	r4, r3
 80054b8:	687a      	ldr	r2, [r7, #4]
 80054ba:	683b      	ldr	r3, [r7, #0]
 80054bc:	781b      	ldrb	r3, [r3, #0]
 80054be:	009b      	lsls	r3, r3, #2
 80054c0:	441a      	add	r2, r3
 80054c2:	4b11      	ldr	r3, [pc, #68]	; (8005508 <USB_ActivateEndpoint+0x570>)
 80054c4:	4323      	orrs	r3, r4
 80054c6:	b29b      	uxth	r3, r3
 80054c8:	8013      	strh	r3, [r2, #0]
 80054ca:	683b      	ldr	r3, [r7, #0]
 80054cc:	78db      	ldrb	r3, [r3, #3]
 80054ce:	2b01      	cmp	r3, #1
 80054d0:	d020      	beq.n	8005514 <USB_ActivateEndpoint+0x57c>
 80054d2:	687a      	ldr	r2, [r7, #4]
 80054d4:	683b      	ldr	r3, [r7, #0]
 80054d6:	781b      	ldrb	r3, [r3, #0]
 80054d8:	009b      	lsls	r3, r3, #2
 80054da:	4413      	add	r3, r2
 80054dc:	881b      	ldrh	r3, [r3, #0]
 80054de:	b29b      	uxth	r3, r3
 80054e0:	f423 43e0 	bic.w	r3, r3, #28672	; 0x7000
 80054e4:	f023 0340 	bic.w	r3, r3, #64	; 0x40
 80054e8:	b29c      	uxth	r4, r3
 80054ea:	f084 0320 	eor.w	r3, r4, #32
 80054ee:	b29c      	uxth	r4, r3
 80054f0:	687a      	ldr	r2, [r7, #4]
 80054f2:	683b      	ldr	r3, [r7, #0]
 80054f4:	781b      	ldrb	r3, [r3, #0]
 80054f6:	009b      	lsls	r3, r3, #2
 80054f8:	441a      	add	r2, r3
 80054fa:	4b05      	ldr	r3, [pc, #20]	; (8005510 <USB_ActivateEndpoint+0x578>)
 80054fc:	4323      	orrs	r3, r4
 80054fe:	b29b      	uxth	r3, r3
 8005500:	8013      	strh	r3, [r2, #0]
 8005502:	e01c      	b.n	800553e <USB_ActivateEndpoint+0x5a6>
 8005504:	ffff8180 	.word	0xffff8180
 8005508:	ffffc080 	.word	0xffffc080
 800550c:	ffff80c0 	.word	0xffff80c0
 8005510:	ffff8080 	.word	0xffff8080
 8005514:	687a      	ldr	r2, [r7, #4]
 8005516:	683b      	ldr	r3, [r7, #0]
 8005518:	781b      	ldrb	r3, [r3, #0]
 800551a:	009b      	lsls	r3, r3, #2
 800551c:	4413      	add	r3, r2
 800551e:	881b      	ldrh	r3, [r3, #0]
 8005520:	b29b      	uxth	r3, r3
 8005522:	f423 43e0 	bic.w	r3, r3, #28672	; 0x7000
 8005526:	f023 0340 	bic.w	r3, r3, #64	; 0x40
 800552a:	b29c      	uxth	r4, r3
 800552c:	687a      	ldr	r2, [r7, #4]
 800552e:	683b      	ldr	r3, [r7, #0]
 8005530:	781b      	ldrb	r3, [r3, #0]
 8005532:	009b      	lsls	r3, r3, #2
 8005534:	441a      	add	r2, r3
 8005536:	4b0f      	ldr	r3, [pc, #60]	; (8005574 <USB_ActivateEndpoint+0x5dc>)
 8005538:	4323      	orrs	r3, r4
 800553a:	b29b      	uxth	r3, r3
 800553c:	8013      	strh	r3, [r2, #0]
 800553e:	687a      	ldr	r2, [r7, #4]
 8005540:	683b      	ldr	r3, [r7, #0]
 8005542:	781b      	ldrb	r3, [r3, #0]
 8005544:	009b      	lsls	r3, r3, #2
 8005546:	4413      	add	r3, r2
 8005548:	881b      	ldrh	r3, [r3, #0]
 800554a:	b29b      	uxth	r3, r3
 800554c:	f423 4380 	bic.w	r3, r3, #16384	; 0x4000
 8005550:	f023 0370 	bic.w	r3, r3, #112	; 0x70
 8005554:	b29c      	uxth	r4, r3
 8005556:	687a      	ldr	r2, [r7, #4]
 8005558:	683b      	ldr	r3, [r7, #0]
 800555a:	781b      	ldrb	r3, [r3, #0]
 800555c:	009b      	lsls	r3, r3, #2
 800555e:	441a      	add	r2, r3
 8005560:	4b04      	ldr	r3, [pc, #16]	; (8005574 <USB_ActivateEndpoint+0x5dc>)
 8005562:	4323      	orrs	r3, r4
 8005564:	b29b      	uxth	r3, r3
 8005566:	8013      	strh	r3, [r2, #0]
 8005568:	7bfb      	ldrb	r3, [r7, #15]
 800556a:	4618      	mov	r0, r3
 800556c:	3710      	adds	r7, #16
 800556e:	46bd      	mov	sp, r7
 8005570:	bc90      	pop	{r4, r7}
 8005572:	4770      	bx	lr
 8005574:	ffff8080 	.word	0xffff8080

08005578 <USB_DeactivateEndpoint>:
 8005578:	b490      	push	{r4, r7}
 800557a:	b082      	sub	sp, #8
 800557c:	af00      	add	r7, sp, #0
 800557e:	6078      	str	r0, [r7, #4]
 8005580:	6039      	str	r1, [r7, #0]
 8005582:	683b      	ldr	r3, [r7, #0]
 8005584:	7b1b      	ldrb	r3, [r3, #12]
 8005586:	2b00      	cmp	r3, #0
 8005588:	d171      	bne.n	800566e <USB_DeactivateEndpoint+0xf6>
 800558a:	683b      	ldr	r3, [r7, #0]
 800558c:	785b      	ldrb	r3, [r3, #1]
 800558e:	2b00      	cmp	r3, #0
 8005590:	d036      	beq.n	8005600 <USB_DeactivateEndpoint+0x88>
 8005592:	687a      	ldr	r2, [r7, #4]
 8005594:	683b      	ldr	r3, [r7, #0]
 8005596:	781b      	ldrb	r3, [r3, #0]
 8005598:	009b      	lsls	r3, r3, #2
 800559a:	4413      	add	r3, r2
 800559c:	881b      	ldrh	r3, [r3, #0]
 800559e:	b29c      	uxth	r4, r3
 80055a0:	4623      	mov	r3, r4
 80055a2:	f003 0340 	and.w	r3, r3, #64	; 0x40
 80055a6:	2b00      	cmp	r3, #0
 80055a8:	d014      	beq.n	80055d4 <USB_DeactivateEndpoint+0x5c>
 80055aa:	687a      	ldr	r2, [r7, #4]
 80055ac:	683b      	ldr	r3, [r7, #0]
 80055ae:	781b      	ldrb	r3, [r3, #0]
 80055b0:	009b      	lsls	r3, r3, #2
 80055b2:	4413      	add	r3, r2
 80055b4:	881b      	ldrh	r3, [r3, #0]
 80055b6:	b29b      	uxth	r3, r3
 80055b8:	f423 43e0 	bic.w	r3, r3, #28672	; 0x7000
 80055bc:	f023 0370 	bic.w	r3, r3, #112	; 0x70
 80055c0:	b29c      	uxth	r4, r3
 80055c2:	687a      	ldr	r2, [r7, #4]
 80055c4:	683b      	ldr	r3, [r7, #0]
 80055c6:	781b      	ldrb	r3, [r3, #0]
 80055c8:	009b      	lsls	r3, r3, #2
 80055ca:	441a      	add	r2, r3
 80055cc:	4b6b      	ldr	r3, [pc, #428]	; (800577c <USB_DeactivateEndpoint+0x204>)
 80055ce:	4323      	orrs	r3, r4
 80055d0:	b29b      	uxth	r3, r3
 80055d2:	8013      	strh	r3, [r2, #0]
 80055d4:	687a      	ldr	r2, [r7, #4]
 80055d6:	683b      	ldr	r3, [r7, #0]
 80055d8:	781b      	ldrb	r3, [r3, #0]
 80055da:	009b      	lsls	r3, r3, #2
 80055dc:	4413      	add	r3, r2
 80055de:	881b      	ldrh	r3, [r3, #0]
 80055e0:	b29b      	uxth	r3, r3
 80055e2:	f423 43e0 	bic.w	r3, r3, #28672	; 0x7000
 80055e6:	f023 0340 	bic.w	r3, r3, #64	; 0x40
 80055ea:	b29c      	uxth	r4, r3
 80055ec:	687a      	ldr	r2, [r7, #4]
 80055ee:	683b      	ldr	r3, [r7, #0]
 80055f0:	781b      	ldrb	r3, [r3, #0]
 80055f2:	009b      	lsls	r3, r3, #2
 80055f4:	441a      	add	r2, r3
 80055f6:	4b62      	ldr	r3, [pc, #392]	; (8005780 <USB_DeactivateEndpoint+0x208>)
 80055f8:	4323      	orrs	r3, r4
 80055fa:	b29b      	uxth	r3, r3
 80055fc:	8013      	strh	r3, [r2, #0]
 80055fe:	e144      	b.n	800588a <USB_DeactivateEndpoint+0x312>
 8005600:	687a      	ldr	r2, [r7, #4]
 8005602:	683b      	ldr	r3, [r7, #0]
 8005604:	781b      	ldrb	r3, [r3, #0]
 8005606:	009b      	lsls	r3, r3, #2
 8005608:	4413      	add	r3, r2
 800560a:	881b      	ldrh	r3, [r3, #0]
 800560c:	b29c      	uxth	r4, r3
 800560e:	4623      	mov	r3, r4
 8005610:	f403 4380 	and.w	r3, r3, #16384	; 0x4000
 8005614:	2b00      	cmp	r3, #0
 8005616:	d014      	beq.n	8005642 <USB_DeactivateEndpoint+0xca>
 8005618:	687a      	ldr	r2, [r7, #4]
 800561a:	683b      	ldr	r3, [r7, #0]
 800561c:	781b      	ldrb	r3, [r3, #0]
 800561e:	009b      	lsls	r3, r3, #2
 8005620:	4413      	add	r3, r2
 8005622:	881b      	ldrh	r3, [r3, #0]
 8005624:	b29b      	uxth	r3, r3
 8005626:	f423 43e0 	bic.w	r3, r3, #28672	; 0x7000
 800562a:	f023 0370 	bic.w	r3, r3, #112	; 0x70
 800562e:	b29c      	uxth	r4, r3
 8005630:	687a      	ldr	r2, [r7, #4]
 8005632:	683b      	ldr	r3, [r7, #0]
 8005634:	781b      	ldrb	r3, [r3, #0]
 8005636:	009b      	lsls	r3, r3, #2
 8005638:	441a      	add	r2, r3
 800563a:	4b52      	ldr	r3, [pc, #328]	; (8005784 <USB_DeactivateEndpoint+0x20c>)
 800563c:	4323      	orrs	r3, r4
 800563e:	b29b      	uxth	r3, r3
 8005640:	8013      	strh	r3, [r2, #0]
 8005642:	687a      	ldr	r2, [r7, #4]
 8005644:	683b      	ldr	r3, [r7, #0]
 8005646:	781b      	ldrb	r3, [r3, #0]
 8005648:	009b      	lsls	r3, r3, #2
 800564a:	4413      	add	r3, r2
 800564c:	881b      	ldrh	r3, [r3, #0]
 800564e:	b29b      	uxth	r3, r3
 8005650:	f423 4380 	bic.w	r3, r3, #16384	; 0x4000
 8005654:	f023 0370 	bic.w	r3, r3, #112	; 0x70
 8005658:	b29c      	uxth	r4, r3
 800565a:	687a      	ldr	r2, [r7, #4]
 800565c:	683b      	ldr	r3, [r7, #0]
 800565e:	781b      	ldrb	r3, [r3, #0]
 8005660:	009b      	lsls	r3, r3, #2
 8005662:	441a      	add	r2, r3
 8005664:	4b46      	ldr	r3, [pc, #280]	; (8005780 <USB_DeactivateEndpoint+0x208>)
 8005666:	4323      	orrs	r3, r4
 8005668:	b29b      	uxth	r3, r3
 800566a:	8013      	strh	r3, [r2, #0]
 800566c:	e10d      	b.n	800588a <USB_DeactivateEndpoint+0x312>
 800566e:	683b      	ldr	r3, [r7, #0]
 8005670:	785b      	ldrb	r3, [r3, #1]
 8005672:	2b00      	cmp	r3, #0
 8005674:	f040 8088 	bne.w	8005788 <USB_DeactivateEndpoint+0x210>
 8005678:	687a      	ldr	r2, [r7, #4]
 800567a:	683b      	ldr	r3, [r7, #0]
 800567c:	781b      	ldrb	r3, [r3, #0]
 800567e:	009b      	lsls	r3, r3, #2
 8005680:	4413      	add	r3, r2
 8005682:	881b      	ldrh	r3, [r3, #0]
 8005684:	b29c      	uxth	r4, r3
 8005686:	4623      	mov	r3, r4
 8005688:	f403 4380 	and.w	r3, r3, #16384	; 0x4000
 800568c:	2b00      	cmp	r3, #0
 800568e:	d014      	beq.n	80056ba <USB_DeactivateEndpoint+0x142>
 8005690:	687a      	ldr	r2, [r7, #4]
 8005692:	683b      	ldr	r3, [r7, #0]
 8005694:	781b      	ldrb	r3, [r3, #0]
 8005696:	009b      	lsls	r3, r3, #2
 8005698:	4413      	add	r3, r2
 800569a:	881b      	ldrh	r3, [r3, #0]
 800569c:	b29b      	uxth	r3, r3
 800569e:	f423 43e0 	bic.w	r3, r3, #28672	; 0x7000
 80056a2:	f023 0370 	bic.w	r3, r3, #112	; 0x70
 80056a6:	b29c      	uxth	r4, r3
 80056a8:	687a      	ldr	r2, [r7, #4]
 80056aa:	683b      	ldr	r3, [r7, #0]
 80056ac:	781b      	ldrb	r3, [r3, #0]
 80056ae:	009b      	lsls	r3, r3, #2
 80056b0:	441a      	add	r2, r3
 80056b2:	4b34      	ldr	r3, [pc, #208]	; (8005784 <USB_DeactivateEndpoint+0x20c>)
 80056b4:	4323      	orrs	r3, r4
 80056b6:	b29b      	uxth	r3, r3
 80056b8:	8013      	strh	r3, [r2, #0]
 80056ba:	687a      	ldr	r2, [r7, #4]
 80056bc:	683b      	ldr	r3, [r7, #0]
 80056be:	781b      	ldrb	r3, [r3, #0]
 80056c0:	009b      	lsls	r3, r3, #2
 80056c2:	4413      	add	r3, r2
 80056c4:	881b      	ldrh	r3, [r3, #0]
 80056c6:	b29c      	uxth	r4, r3
 80056c8:	4623      	mov	r3, r4
 80056ca:	f003 0340 	and.w	r3, r3, #64	; 0x40
 80056ce:	2b00      	cmp	r3, #0
 80056d0:	d014      	beq.n	80056fc <USB_DeactivateEndpoint+0x184>
 80056d2:	687a      	ldr	r2, [r7, #4]
 80056d4:	683b      	ldr	r3, [r7, #0]
 80056d6:	781b      	ldrb	r3, [r3, #0]
 80056d8:	009b      	lsls	r3, r3, #2
 80056da:	4413      	add	r3, r2
 80056dc:	881b      	ldrh	r3, [r3, #0]
 80056de:	b29b      	uxth	r3, r3
 80056e0:	f423 43e0 	bic.w	r3, r3, #28672	; 0x7000
 80056e4:	f023 0370 	bic.w	r3, r3, #112	; 0x70
 80056e8:	b29c      	uxth	r4, r3
 80056ea:	687a      	ldr	r2, [r7, #4]
 80056ec:	683b      	ldr	r3, [r7, #0]
 80056ee:	781b      	ldrb	r3, [r3, #0]
 80056f0:	009b      	lsls	r3, r3, #2
 80056f2:	441a      	add	r2, r3
 80056f4:	4b21      	ldr	r3, [pc, #132]	; (800577c <USB_DeactivateEndpoint+0x204>)
 80056f6:	4323      	orrs	r3, r4
 80056f8:	b29b      	uxth	r3, r3
 80056fa:	8013      	strh	r3, [r2, #0]
 80056fc:	687a      	ldr	r2, [r7, #4]
 80056fe:	683b      	ldr	r3, [r7, #0]
 8005700:	781b      	ldrb	r3, [r3, #0]
 8005702:	009b      	lsls	r3, r3, #2
 8005704:	4413      	add	r3, r2
 8005706:	881b      	ldrh	r3, [r3, #0]
 8005708:	b29b      	uxth	r3, r3
 800570a:	f423 43e0 	bic.w	r3, r3, #28672	; 0x7000
 800570e:	f023 0370 	bic.w	r3, r3, #112	; 0x70
 8005712:	b29c      	uxth	r4, r3
 8005714:	687a      	ldr	r2, [r7, #4]
 8005716:	683b      	ldr	r3, [r7, #0]
 8005718:	781b      	ldrb	r3, [r3, #0]
 800571a:	009b      	lsls	r3, r3, #2
 800571c:	441a      	add	r2, r3
 800571e:	4b17      	ldr	r3, [pc, #92]	; (800577c <USB_DeactivateEndpoint+0x204>)
 8005720:	4323      	orrs	r3, r4
 8005722:	b29b      	uxth	r3, r3
 8005724:	8013      	strh	r3, [r2, #0]
 8005726:	687a      	ldr	r2, [r7, #4]
 8005728:	683b      	ldr	r3, [r7, #0]
 800572a:	781b      	ldrb	r3, [r3, #0]
 800572c:	009b      	lsls	r3, r3, #2
 800572e:	4413      	add	r3, r2
 8005730:	881b      	ldrh	r3, [r3, #0]
 8005732:	b29b      	uxth	r3, r3
 8005734:	f423 4380 	bic.w	r3, r3, #16384	; 0x4000
 8005738:	f023 0370 	bic.w	r3, r3, #112	; 0x70
 800573c:	b29c      	uxth	r4, r3
 800573e:	687a      	ldr	r2, [r7, #4]
 8005740:	683b      	ldr	r3, [r7, #0]
 8005742:	781b      	ldrb	r3, [r3, #0]
 8005744:	009b      	lsls	r3, r3, #2
 8005746:	441a      	add	r2, r3
 8005748:	4b0d      	ldr	r3, [pc, #52]	; (8005780 <USB_DeactivateEndpoint+0x208>)
 800574a:	4323      	orrs	r3, r4
 800574c:	b29b      	uxth	r3, r3
 800574e:	8013      	strh	r3, [r2, #0]
 8005750:	687a      	ldr	r2, [r7, #4]
 8005752:	683b      	ldr	r3, [r7, #0]
 8005754:	781b      	ldrb	r3, [r3, #0]
 8005756:	009b      	lsls	r3, r3, #2
 8005758:	4413      	add	r3, r2
 800575a:	881b      	ldrh	r3, [r3, #0]
 800575c:	b29b      	uxth	r3, r3
 800575e:	f423 43e0 	bic.w	r3, r3, #28672	; 0x7000
 8005762:	f023 0340 	bic.w	r3, r3, #64	; 0x40
 8005766:	b29c      	uxth	r4, r3
 8005768:	687a      	ldr	r2, [r7, #4]
 800576a:	683b      	ldr	r3, [r7, #0]
 800576c:	781b      	ldrb	r3, [r3, #0]
 800576e:	009b      	lsls	r3, r3, #2
 8005770:	441a      	add	r2, r3
 8005772:	4b03      	ldr	r3, [pc, #12]	; (8005780 <USB_DeactivateEndpoint+0x208>)
 8005774:	4323      	orrs	r3, r4
 8005776:	b29b      	uxth	r3, r3
 8005778:	8013      	strh	r3, [r2, #0]
 800577a:	e086      	b.n	800588a <USB_DeactivateEndpoint+0x312>
 800577c:	ffff80c0 	.word	0xffff80c0
 8005780:	ffff8080 	.word	0xffff8080
 8005784:	ffffc080 	.word	0xffffc080
 8005788:	687a      	ldr	r2, [r7, #4]
 800578a:	683b      	ldr	r3, [r7, #0]
 800578c:	781b      	ldrb	r3, [r3, #0]
 800578e:	009b      	lsls	r3, r3, #2
 8005790:	4413      	add	r3, r2
 8005792:	881b      	ldrh	r3, [r3, #0]
 8005794:	b29c      	uxth	r4, r3
 8005796:	4623      	mov	r3, r4
 8005798:	f403 4380 	and.w	r3, r3, #16384	; 0x4000
 800579c:	2b00      	cmp	r3, #0
 800579e:	d014      	beq.n	80057ca <USB_DeactivateEndpoint+0x252>
 80057a0:	687a      	ldr	r2, [r7, #4]
 80057a2:	683b      	ldr	r3, [r7, #0]
 80057a4:	781b      	ldrb	r3, [r3, #0]
 80057a6:	009b      	lsls	r3, r3, #2
 80057a8:	4413      	add	r3, r2
 80057aa:	881b      	ldrh	r3, [r3, #0]
 80057ac:	b29b      	uxth	r3, r3
 80057ae:	f423 43e0 	bic.w	r3, r3, #28672	; 0x7000
 80057b2:	f023 0370 	bic.w	r3, r3, #112	; 0x70
 80057b6:	b29c      	uxth	r4, r3
 80057b8:	687a      	ldr	r2, [r7, #4]
 80057ba:	683b      	ldr	r3, [r7, #0]
 80057bc:	781b      	ldrb	r3, [r3, #0]
 80057be:	009b      	lsls	r3, r3, #2
 80057c0:	441a      	add	r2, r3
 80057c2:	4b35      	ldr	r3, [pc, #212]	; (8005898 <USB_DeactivateEndpoint+0x320>)
 80057c4:	4323      	orrs	r3, r4
 80057c6:	b29b      	uxth	r3, r3
 80057c8:	8013      	strh	r3, [r2, #0]
 80057ca:	687a      	ldr	r2, [r7, #4]
 80057cc:	683b      	ldr	r3, [r7, #0]
 80057ce:	781b      	ldrb	r3, [r3, #0]
 80057d0:	009b      	lsls	r3, r3, #2
 80057d2:	4413      	add	r3, r2
 80057d4:	881b      	ldrh	r3, [r3, #0]
 80057d6:	b29c      	uxth	r4, r3
 80057d8:	4623      	mov	r3, r4
 80057da:	f003 0340 	and.w	r3, r3, #64	; 0x40
 80057de:	2b00      	cmp	r3, #0
 80057e0:	d014      	beq.n	800580c <USB_DeactivateEndpoint+0x294>
 80057e2:	687a      	ldr	r2, [r7, #4]
 80057e4:	683b      	ldr	r3, [r7, #0]
 80057e6:	781b      	ldrb	r3, [r3, #0]
 80057e8:	009b      	lsls	r3, r3, #2
 80057ea:	4413      	add	r3, r2
 80057ec:	881b      	ldrh	r3, [r3, #0]
 80057ee:	b29b      	uxth	r3, r3
 80057f0:	f423 43e0 	bic.w	r3, r3, #28672	; 0x7000
 80057f4:	f023 0370 	bic.w	r3, r3, #112	; 0x70
 80057f8:	b29c      	uxth	r4, r3
 80057fa:	687a      	ldr	r2, [r7, #4]
 80057fc:	683b      	ldr	r3, [r7, #0]
 80057fe:	781b      	ldrb	r3, [r3, #0]
 8005800:	009b      	lsls	r3, r3, #2
 8005802:	441a      	add	r2, r3
 8005804:	4b25      	ldr	r3, [pc, #148]	; (800589c <USB_DeactivateEndpoint+0x324>)
 8005806:	4323      	orrs	r3, r4
 8005808:	b29b      	uxth	r3, r3
 800580a:	8013      	strh	r3, [r2, #0]
 800580c:	687a      	ldr	r2, [r7, #4]
 800580e:	683b      	ldr	r3, [r7, #0]
 8005810:	781b      	ldrb	r3, [r3, #0]
 8005812:	009b      	lsls	r3, r3, #2
 8005814:	4413      	add	r3, r2
 8005816:	881b      	ldrh	r3, [r3, #0]
 8005818:	b29b      	uxth	r3, r3
 800581a:	f423 43e0 	bic.w	r3, r3, #28672	; 0x7000
 800581e:	f023 0370 	bic.w	r3, r3, #112	; 0x70
 8005822:	b29c      	uxth	r4, r3
 8005824:	687a      	ldr	r2, [r7, #4]
 8005826:	683b      	ldr	r3, [r7, #0]
 8005828:	781b      	ldrb	r3, [r3, #0]
 800582a:	009b      	lsls	r3, r3, #2
 800582c:	441a      	add	r2, r3
 800582e:	4b1a      	ldr	r3, [pc, #104]	; (8005898 <USB_DeactivateEndpoint+0x320>)
 8005830:	4323      	orrs	r3, r4
 8005832:	b29b      	uxth	r3, r3
 8005834:	8013      	strh	r3, [r2, #0]
 8005836:	687a      	ldr	r2, [r7, #4]
 8005838:	683b      	ldr	r3, [r7, #0]
 800583a:	781b      	ldrb	r3, [r3, #0]
 800583c:	009b      	lsls	r3, r3, #2
 800583e:	4413      	add	r3, r2
 8005840:	881b      	ldrh	r3, [r3, #0]
 8005842:	b29b      	uxth	r3, r3
 8005844:	f423 43e0 	bic.w	r3, r3, #28672	; 0x7000
 8005848:	f023 0340 	bic.w	r3, r3, #64	; 0x40
 800584c:	b29c      	uxth	r4, r3
 800584e:	687a      	ldr	r2, [r7, #4]
 8005850:	683b      	ldr	r3, [r7, #0]
 8005852:	781b      	ldrb	r3, [r3, #0]
 8005854:	009b      	lsls	r3, r3, #2
 8005856:	441a      	add	r2, r3
 8005858:	4b11      	ldr	r3, [pc, #68]	; (80058a0 <USB_DeactivateEndpoint+0x328>)
 800585a:	4323      	orrs	r3, r4
 800585c:	b29b      	uxth	r3, r3
 800585e:	8013      	strh	r3, [r2, #0]
 8005860:	687a      	ldr	r2, [r7, #4]
 8005862:	683b      	ldr	r3, [r7, #0]
 8005864:	781b      	ldrb	r3, [r3, #0]
 8005866:	009b      	lsls	r3, r3, #2
 8005868:	4413      	add	r3, r2
 800586a:	881b      	ldrh	r3, [r3, #0]
 800586c:	b29b      	uxth	r3, r3
 800586e:	f423 4380 	bic.w	r3, r3, #16384	; 0x4000
 8005872:	f023 0370 	bic.w	r3, r3, #112	; 0x70
 8005876:	b29c      	uxth	r4, r3
 8005878:	687a      	ldr	r2, [r7, #4]
 800587a:	683b      	ldr	r3, [r7, #0]
 800587c:	781b      	ldrb	r3, [r3, #0]
 800587e:	009b      	lsls	r3, r3, #2
 8005880:	441a      	add	r2, r3
 8005882:	4b07      	ldr	r3, [pc, #28]	; (80058a0 <USB_DeactivateEndpoint+0x328>)
 8005884:	4323      	orrs	r3, r4
 8005886:	b29b      	uxth	r3, r3
 8005888:	8013      	strh	r3, [r2, #0]
 800588a:	2300      	movs	r3, #0
 800588c:	4618      	mov	r0, r3
 800588e:	3708      	adds	r7, #8
 8005890:	46bd      	mov	sp, r7
 8005892:	bc90      	pop	{r4, r7}
 8005894:	4770      	bx	lr
 8005896:	bf00      	nop
 8005898:	ffffc080 	.word	0xffffc080
 800589c:	ffff80c0 	.word	0xffff80c0
 80058a0:	ffff8080 	.word	0xffff8080

080058a4 <USB_EPStartXfer>:
 80058a4:	b590      	push	{r4, r7, lr}
 80058a6:	b08d      	sub	sp, #52	; 0x34
 80058a8:	af00      	add	r7, sp, #0
 80058aa:	6078      	str	r0, [r7, #4]
 80058ac:	6039      	str	r1, [r7, #0]
 80058ae:	683b      	ldr	r3, [r7, #0]
 80058b0:	785b      	ldrb	r3, [r3, #1]
 80058b2:	2b01      	cmp	r3, #1
 80058b4:	f040 8160 	bne.w	8005b78 <USB_EPStartXfer+0x2d4>
 80058b8:	683b      	ldr	r3, [r7, #0]
 80058ba:	699a      	ldr	r2, [r3, #24]
 80058bc:	683b      	ldr	r3, [r7, #0]
 80058be:	691b      	ldr	r3, [r3, #16]
 80058c0:	429a      	cmp	r2, r3
 80058c2:	d909      	bls.n	80058d8 <USB_EPStartXfer+0x34>
 80058c4:	683b      	ldr	r3, [r7, #0]
 80058c6:	691b      	ldr	r3, [r3, #16]
 80058c8:	62bb      	str	r3, [r7, #40]	; 0x28
 80058ca:	683b      	ldr	r3, [r7, #0]
 80058cc:	699a      	ldr	r2, [r3, #24]
 80058ce:	6abb      	ldr	r3, [r7, #40]	; 0x28
 80058d0:	1ad2      	subs	r2, r2, r3
 80058d2:	683b      	ldr	r3, [r7, #0]
 80058d4:	619a      	str	r2, [r3, #24]
 80058d6:	e005      	b.n	80058e4 <USB_EPStartXfer+0x40>
 80058d8:	683b      	ldr	r3, [r7, #0]
 80058da:	699b      	ldr	r3, [r3, #24]
 80058dc:	62bb      	str	r3, [r7, #40]	; 0x28
 80058de:	683b      	ldr	r3, [r7, #0]
 80058e0:	2200      	movs	r2, #0
 80058e2:	619a      	str	r2, [r3, #24]
 80058e4:	683b      	ldr	r3, [r7, #0]
 80058e6:	7b1b      	ldrb	r3, [r3, #12]
 80058e8:	2b00      	cmp	r3, #0
 80058ea:	d119      	bne.n	8005920 <USB_EPStartXfer+0x7c>
 80058ec:	683b      	ldr	r3, [r7, #0]
 80058ee:	6959      	ldr	r1, [r3, #20]
 80058f0:	683b      	ldr	r3, [r7, #0]
 80058f2:	88da      	ldrh	r2, [r3, #6]
 80058f4:	6abb      	ldr	r3, [r7, #40]	; 0x28
 80058f6:	b29b      	uxth	r3, r3
 80058f8:	6878      	ldr	r0, [r7, #4]
 80058fa:	f000 fba8 	bl	800604e <USB_WritePMA>
 80058fe:	687c      	ldr	r4, [r7, #4]
 8005900:	687b      	ldr	r3, [r7, #4]
 8005902:	f8b3 3050 	ldrh.w	r3, [r3, #80]	; 0x50
 8005906:	b29b      	uxth	r3, r3
 8005908:	441c      	add	r4, r3
 800590a:	683b      	ldr	r3, [r7, #0]
 800590c:	781b      	ldrb	r3, [r3, #0]
 800590e:	00db      	lsls	r3, r3, #3
 8005910:	4423      	add	r3, r4
 8005912:	f203 4302 	addw	r3, r3, #1026	; 0x402
 8005916:	461c      	mov	r4, r3
 8005918:	6abb      	ldr	r3, [r7, #40]	; 0x28
 800591a:	b29b      	uxth	r3, r3
 800591c:	8023      	strh	r3, [r4, #0]
 800591e:	e10f      	b.n	8005b40 <USB_EPStartXfer+0x29c>
 8005920:	687a      	ldr	r2, [r7, #4]
 8005922:	683b      	ldr	r3, [r7, #0]
 8005924:	781b      	ldrb	r3, [r3, #0]
 8005926:	009b      	lsls	r3, r3, #2
 8005928:	4413      	add	r3, r2
 800592a:	881b      	ldrh	r3, [r3, #0]
 800592c:	b29b      	uxth	r3, r3
 800592e:	f003 0340 	and.w	r3, r3, #64	; 0x40
 8005932:	2b00      	cmp	r3, #0
 8005934:	d065      	beq.n	8005a02 <USB_EPStartXfer+0x15e>
 8005936:	687c      	ldr	r4, [r7, #4]
 8005938:	683b      	ldr	r3, [r7, #0]
 800593a:	785b      	ldrb	r3, [r3, #1]
 800593c:	2b00      	cmp	r3, #0
 800593e:	d148      	bne.n	80059d2 <USB_EPStartXfer+0x12e>
 8005940:	687c      	ldr	r4, [r7, #4]
 8005942:	687b      	ldr	r3, [r7, #4]
 8005944:	f8b3 3050 	ldrh.w	r3, [r3, #80]	; 0x50
 8005948:	b29b      	uxth	r3, r3
 800594a:	441c      	add	r4, r3
 800594c:	683b      	ldr	r3, [r7, #0]
 800594e:	781b      	ldrb	r3, [r3, #0]
 8005950:	00db      	lsls	r3, r3, #3
 8005952:	4423      	add	r3, r4
 8005954:	f203 4306 	addw	r3, r3, #1030	; 0x406
 8005958:	461c      	mov	r4, r3
 800595a:	6abb      	ldr	r3, [r7, #40]	; 0x28
 800595c:	2b00      	cmp	r3, #0
 800595e:	d10e      	bne.n	800597e <USB_EPStartXfer+0xda>
 8005960:	8823      	ldrh	r3, [r4, #0]
 8005962:	b29b      	uxth	r3, r3
 8005964:	f423 43f8 	bic.w	r3, r3, #31744	; 0x7c00
 8005968:	b29b      	uxth	r3, r3
 800596a:	8023      	strh	r3, [r4, #0]
 800596c:	8823      	ldrh	r3, [r4, #0]
 800596e:	b29b      	uxth	r3, r3
 8005970:	ea6f 4343 	mvn.w	r3, r3, lsl #17
 8005974:	ea6f 4353 	mvn.w	r3, r3, lsr #17
 8005978:	b29b      	uxth	r3, r3
 800597a:	8023      	strh	r3, [r4, #0]
 800597c:	e03d      	b.n	80059fa <USB_EPStartXfer+0x156>
 800597e:	6abb      	ldr	r3, [r7, #40]	; 0x28
 8005980:	2b3e      	cmp	r3, #62	; 0x3e
 8005982:	d810      	bhi.n	80059a6 <USB_EPStartXfer+0x102>
 8005984:	6abb      	ldr	r3, [r7, #40]	; 0x28
 8005986:	085b      	lsrs	r3, r3, #1
 8005988:	627b      	str	r3, [r7, #36]	; 0x24
 800598a:	6abb      	ldr	r3, [r7, #40]	; 0x28
 800598c:	f003 0301 	and.w	r3, r3, #1
 8005990:	2b00      	cmp	r3, #0
 8005992:	d002      	beq.n	800599a <USB_EPStartXfer+0xf6>
 8005994:	6a7b      	ldr	r3, [r7, #36]	; 0x24
 8005996:	3301      	adds	r3, #1
 8005998:	627b      	str	r3, [r7, #36]	; 0x24
 800599a:	6a7b      	ldr	r3, [r7, #36]	; 0x24
 800599c:	b29b      	uxth	r3, r3
 800599e:	029b      	lsls	r3, r3, #10
 80059a0:	b29b      	uxth	r3, r3
 80059a2:	8023      	strh	r3, [r4, #0]
 80059a4:	e029      	b.n	80059fa <USB_EPStartXfer+0x156>
 80059a6:	6abb      	ldr	r3, [r7, #40]	; 0x28
 80059a8:	095b      	lsrs	r3, r3, #5
 80059aa:	627b      	str	r3, [r7, #36]	; 0x24
 80059ac:	6abb      	ldr	r3, [r7, #40]	; 0x28
 80059ae:	f003 031f 	and.w	r3, r3, #31
 80059b2:	2b00      	cmp	r3, #0
 80059b4:	d102      	bne.n	80059bc <USB_EPStartXfer+0x118>
 80059b6:	6a7b      	ldr	r3, [r7, #36]	; 0x24
 80059b8:	3b01      	subs	r3, #1
 80059ba:	627b      	str	r3, [r7, #36]	; 0x24
 80059bc:	6a7b      	ldr	r3, [r7, #36]	; 0x24
 80059be:	b29b      	uxth	r3, r3
 80059c0:	029b      	lsls	r3, r3, #10
 80059c2:	b29b      	uxth	r3, r3
 80059c4:	ea6f 4343 	mvn.w	r3, r3, lsl #17
 80059c8:	ea6f 4353 	mvn.w	r3, r3, lsr #17
 80059cc:	b29b      	uxth	r3, r3
 80059ce:	8023      	strh	r3, [r4, #0]
 80059d0:	e013      	b.n	80059fa <USB_EPStartXfer+0x156>
 80059d2:	683b      	ldr	r3, [r7, #0]
 80059d4:	785b      	ldrb	r3, [r3, #1]
 80059d6:	2b01      	cmp	r3, #1
 80059d8:	d10f      	bne.n	80059fa <USB_EPStartXfer+0x156>
 80059da:	687b      	ldr	r3, [r7, #4]
 80059dc:	f8b3 3050 	ldrh.w	r3, [r3, #80]	; 0x50
 80059e0:	b29b      	uxth	r3, r3
 80059e2:	441c      	add	r4, r3
 80059e4:	683b      	ldr	r3, [r7, #0]
 80059e6:	781b      	ldrb	r3, [r3, #0]
 80059e8:	00db      	lsls	r3, r3, #3
 80059ea:	4423      	add	r3, r4
 80059ec:	f203 4306 	addw	r3, r3, #1030	; 0x406
 80059f0:	60fb      	str	r3, [r7, #12]
 80059f2:	6abb      	ldr	r3, [r7, #40]	; 0x28
 80059f4:	b29a      	uxth	r2, r3
 80059f6:	68fb      	ldr	r3, [r7, #12]
 80059f8:	801a      	strh	r2, [r3, #0]
 80059fa:	683b      	ldr	r3, [r7, #0]
 80059fc:	895b      	ldrh	r3, [r3, #10]
 80059fe:	85fb      	strh	r3, [r7, #46]	; 0x2e
 8005a00:	e063      	b.n	8005aca <USB_EPStartXfer+0x226>
 8005a02:	683b      	ldr	r3, [r7, #0]
 8005a04:	785b      	ldrb	r3, [r3, #1]
 8005a06:	2b00      	cmp	r3, #0
 8005a08:	d148      	bne.n	8005a9c <USB_EPStartXfer+0x1f8>
 8005a0a:	687c      	ldr	r4, [r7, #4]
 8005a0c:	687b      	ldr	r3, [r7, #4]
 8005a0e:	f8b3 3050 	ldrh.w	r3, [r3, #80]	; 0x50
 8005a12:	b29b      	uxth	r3, r3
 8005a14:	441c      	add	r4, r3
 8005a16:	683b      	ldr	r3, [r7, #0]
 8005a18:	781b      	ldrb	r3, [r3, #0]
 8005a1a:	00db      	lsls	r3, r3, #3
 8005a1c:	4423      	add	r3, r4
 8005a1e:	f203 4302 	addw	r3, r3, #1026	; 0x402
 8005a22:	461c      	mov	r4, r3
 8005a24:	6abb      	ldr	r3, [r7, #40]	; 0x28
 8005a26:	2b00      	cmp	r3, #0
 8005a28:	d10e      	bne.n	8005a48 <USB_EPStartXfer+0x1a4>
 8005a2a:	8823      	ldrh	r3, [r4, #0]
 8005a2c:	b29b      	uxth	r3, r3
 8005a2e:	f423 43f8 	bic.w	r3, r3, #31744	; 0x7c00
 8005a32:	b29b      	uxth	r3, r3
 8005a34:	8023      	strh	r3, [r4, #0]
 8005a36:	8823      	ldrh	r3, [r4, #0]
 8005a38:	b29b      	uxth	r3, r3
 8005a3a:	ea6f 4343 	mvn.w	r3, r3, lsl #17
 8005a3e:	ea6f 4353 	mvn.w	r3, r3, lsr #17
 8005a42:	b29b      	uxth	r3, r3
 8005a44:	8023      	strh	r3, [r4, #0]
 8005a46:	e03d      	b.n	8005ac4 <USB_EPStartXfer+0x220>
 8005a48:	6abb      	ldr	r3, [r7, #40]	; 0x28
 8005a4a:	2b3e      	cmp	r3, #62	; 0x3e
 8005a4c:	d810      	bhi.n	8005a70 <USB_EPStartXfer+0x1cc>
 8005a4e:	6abb      	ldr	r3, [r7, #40]	; 0x28
 8005a50:	085b      	lsrs	r3, r3, #1
 8005a52:	623b      	str	r3, [r7, #32]
 8005a54:	6abb      	ldr	r3, [r7, #40]	; 0x28
 8005a56:	f003 0301 	and.w	r3, r3, #1
 8005a5a:	2b00      	cmp	r3, #0
 8005a5c:	d002      	beq.n	8005a64 <USB_EPStartXfer+0x1c0>
 8005a5e:	6a3b      	ldr	r3, [r7, #32]
 8005a60:	3301      	adds	r3, #1
 8005a62:	623b      	str	r3, [r7, #32]
 8005a64:	6a3b      	ldr	r3, [r7, #32]
 8005a66:	b29b      	uxth	r3, r3
 8005a68:	029b      	lsls	r3, r3, #10
 8005a6a:	b29b      	uxth	r3, r3
 8005a6c:	8023      	strh	r3, [r4, #0]
 8005a6e:	e029      	b.n	8005ac4 <USB_EPStartXfer+0x220>
 8005a70:	6abb      	ldr	r3, [r7, #40]	; 0x28
 8005a72:	095b      	lsrs	r3, r3, #5
 8005a74:	623b      	str	r3, [r7, #32]
 8005a76:	6abb      	ldr	r3, [r7, #40]	; 0x28
 8005a78:	f003 031f 	and.w	r3, r3, #31
 8005a7c:	2b00      	cmp	r3, #0
 8005a7e:	d102      	bne.n	8005a86 <USB_EPStartXfer+0x1e2>
 8005a80:	6a3b      	ldr	r3, [r7, #32]
 8005a82:	3b01      	subs	r3, #1
 8005a84:	623b      	str	r3, [r7, #32]
 8005a86:	6a3b      	ldr	r3, [r7, #32]
 8005a88:	b29b      	uxth	r3, r3
 8005a8a:	029b      	lsls	r3, r3, #10
 8005a8c:	b29b      	uxth	r3, r3
 8005a8e:	ea6f 4343 	mvn.w	r3, r3, lsl #17
 8005a92:	ea6f 4353 	mvn.w	r3, r3, lsr #17
 8005a96:	b29b      	uxth	r3, r3
 8005a98:	8023      	strh	r3, [r4, #0]
 8005a9a:	e013      	b.n	8005ac4 <USB_EPStartXfer+0x220>
 8005a9c:	683b      	ldr	r3, [r7, #0]
 8005a9e:	785b      	ldrb	r3, [r3, #1]
 8005aa0:	2b01      	cmp	r3, #1
 8005aa2:	d10f      	bne.n	8005ac4 <USB_EPStartXfer+0x220>
 8005aa4:	687c      	ldr	r4, [r7, #4]
 8005aa6:	687b      	ldr	r3, [r7, #4]
 8005aa8:	f8b3 3050 	ldrh.w	r3, [r3, #80]	; 0x50
 8005aac:	b29b      	uxth	r3, r3
 8005aae:	441c      	add	r4, r3
 8005ab0:	683b      	ldr	r3, [r7, #0]
 8005ab2:	781b      	ldrb	r3, [r3, #0]
 8005ab4:	00db      	lsls	r3, r3, #3
 8005ab6:	4423      	add	r3, r4
 8005ab8:	f203 4302 	addw	r3, r3, #1026	; 0x402
 8005abc:	461c      	mov	r4, r3
 8005abe:	6abb      	ldr	r3, [r7, #40]	; 0x28
 8005ac0:	b29b      	uxth	r3, r3
 8005ac2:	8023      	strh	r3, [r4, #0]
 8005ac4:	683b      	ldr	r3, [r7, #0]
 8005ac6:	891b      	ldrh	r3, [r3, #8]
 8005ac8:	85fb      	strh	r3, [r7, #46]	; 0x2e
 8005aca:	683b      	ldr	r3, [r7, #0]
 8005acc:	6959      	ldr	r1, [r3, #20]
 8005ace:	6abb      	ldr	r3, [r7, #40]	; 0x28
 8005ad0:	b29b      	uxth	r3, r3
 8005ad2:	8dfa      	ldrh	r2, [r7, #46]	; 0x2e
 8005ad4:	6878      	ldr	r0, [r7, #4]
 8005ad6:	f000 faba 	bl	800604e <USB_WritePMA>
 8005ada:	683b      	ldr	r3, [r7, #0]
 8005adc:	785b      	ldrb	r3, [r3, #1]
 8005ade:	2b00      	cmp	r3, #0
 8005ae0:	d115      	bne.n	8005b0e <USB_EPStartXfer+0x26a>
 8005ae2:	687a      	ldr	r2, [r7, #4]
 8005ae4:	683b      	ldr	r3, [r7, #0]
 8005ae6:	781b      	ldrb	r3, [r3, #0]
 8005ae8:	009b      	lsls	r3, r3, #2
 8005aea:	4413      	add	r3, r2
 8005aec:	881b      	ldrh	r3, [r3, #0]
 8005aee:	b29b      	uxth	r3, r3
 8005af0:	f423 43e0 	bic.w	r3, r3, #28672	; 0x7000
 8005af4:	f023 0370 	bic.w	r3, r3, #112	; 0x70
 8005af8:	b29c      	uxth	r4, r3
 8005afa:	687a      	ldr	r2, [r7, #4]
 8005afc:	683b      	ldr	r3, [r7, #0]
 8005afe:	781b      	ldrb	r3, [r3, #0]
 8005b00:	009b      	lsls	r3, r3, #2
 8005b02:	441a      	add	r2, r3
 8005b04:	4b9a      	ldr	r3, [pc, #616]	; (8005d70 <USB_EPStartXfer+0x4cc>)
 8005b06:	4323      	orrs	r3, r4
 8005b08:	b29b      	uxth	r3, r3
 8005b0a:	8013      	strh	r3, [r2, #0]
 8005b0c:	e018      	b.n	8005b40 <USB_EPStartXfer+0x29c>
 8005b0e:	683b      	ldr	r3, [r7, #0]
 8005b10:	785b      	ldrb	r3, [r3, #1]
 8005b12:	2b01      	cmp	r3, #1
 8005b14:	d114      	bne.n	8005b40 <USB_EPStartXfer+0x29c>
 8005b16:	687a      	ldr	r2, [r7, #4]
 8005b18:	683b      	ldr	r3, [r7, #0]
 8005b1a:	781b      	ldrb	r3, [r3, #0]
 8005b1c:	009b      	lsls	r3, r3, #2
 8005b1e:	4413      	add	r3, r2
 8005b20:	881b      	ldrh	r3, [r3, #0]
 8005b22:	b29b      	uxth	r3, r3
 8005b24:	f423 43e0 	bic.w	r3, r3, #28672	; 0x7000
 8005b28:	f023 0370 	bic.w	r3, r3, #112	; 0x70
 8005b2c:	b29c      	uxth	r4, r3
 8005b2e:	687a      	ldr	r2, [r7, #4]
 8005b30:	683b      	ldr	r3, [r7, #0]
 8005b32:	781b      	ldrb	r3, [r3, #0]
 8005b34:	009b      	lsls	r3, r3, #2
 8005b36:	441a      	add	r2, r3
 8005b38:	4b8e      	ldr	r3, [pc, #568]	; (8005d74 <USB_EPStartXfer+0x4d0>)
 8005b3a:	4323      	orrs	r3, r4
 8005b3c:	b29b      	uxth	r3, r3
 8005b3e:	8013      	strh	r3, [r2, #0]
 8005b40:	687a      	ldr	r2, [r7, #4]
 8005b42:	683b      	ldr	r3, [r7, #0]
 8005b44:	781b      	ldrb	r3, [r3, #0]
 8005b46:	009b      	lsls	r3, r3, #2
 8005b48:	4413      	add	r3, r2
 8005b4a:	881b      	ldrh	r3, [r3, #0]
 8005b4c:	b29b      	uxth	r3, r3
 8005b4e:	f423 43e0 	bic.w	r3, r3, #28672	; 0x7000
 8005b52:	f023 0340 	bic.w	r3, r3, #64	; 0x40
 8005b56:	b29c      	uxth	r4, r3
 8005b58:	f084 0310 	eor.w	r3, r4, #16
 8005b5c:	b29c      	uxth	r4, r3
 8005b5e:	f084 0320 	eor.w	r3, r4, #32
 8005b62:	b29c      	uxth	r4, r3
 8005b64:	687a      	ldr	r2, [r7, #4]
 8005b66:	683b      	ldr	r3, [r7, #0]
 8005b68:	781b      	ldrb	r3, [r3, #0]
 8005b6a:	009b      	lsls	r3, r3, #2
 8005b6c:	441a      	add	r2, r3
 8005b6e:	4b82      	ldr	r3, [pc, #520]	; (8005d78 <USB_EPStartXfer+0x4d4>)
 8005b70:	4323      	orrs	r3, r4
 8005b72:	b29b      	uxth	r3, r3
 8005b74:	8013      	strh	r3, [r2, #0]
 8005b76:	e146      	b.n	8005e06 <USB_EPStartXfer+0x562>
 8005b78:	683b      	ldr	r3, [r7, #0]
 8005b7a:	699a      	ldr	r2, [r3, #24]
 8005b7c:	683b      	ldr	r3, [r7, #0]
 8005b7e:	691b      	ldr	r3, [r3, #16]
 8005b80:	429a      	cmp	r2, r3
 8005b82:	d909      	bls.n	8005b98 <USB_EPStartXfer+0x2f4>
 8005b84:	683b      	ldr	r3, [r7, #0]
 8005b86:	691b      	ldr	r3, [r3, #16]
 8005b88:	62bb      	str	r3, [r7, #40]	; 0x28
 8005b8a:	683b      	ldr	r3, [r7, #0]
 8005b8c:	699a      	ldr	r2, [r3, #24]
 8005b8e:	6abb      	ldr	r3, [r7, #40]	; 0x28
 8005b90:	1ad2      	subs	r2, r2, r3
 8005b92:	683b      	ldr	r3, [r7, #0]
 8005b94:	619a      	str	r2, [r3, #24]
 8005b96:	e005      	b.n	8005ba4 <USB_EPStartXfer+0x300>
 8005b98:	683b      	ldr	r3, [r7, #0]
 8005b9a:	699b      	ldr	r3, [r3, #24]
 8005b9c:	62bb      	str	r3, [r7, #40]	; 0x28
 8005b9e:	683b      	ldr	r3, [r7, #0]
 8005ba0:	2200      	movs	r2, #0
 8005ba2:	619a      	str	r2, [r3, #24]
 8005ba4:	683b      	ldr	r3, [r7, #0]
 8005ba6:	7b1b      	ldrb	r3, [r3, #12]
 8005ba8:	2b00      	cmp	r3, #0
 8005baa:	d148      	bne.n	8005c3e <USB_EPStartXfer+0x39a>
 8005bac:	687c      	ldr	r4, [r7, #4]
 8005bae:	687b      	ldr	r3, [r7, #4]
 8005bb0:	f8b3 3050 	ldrh.w	r3, [r3, #80]	; 0x50
 8005bb4:	b29b      	uxth	r3, r3
 8005bb6:	441c      	add	r4, r3
 8005bb8:	683b      	ldr	r3, [r7, #0]
 8005bba:	781b      	ldrb	r3, [r3, #0]
 8005bbc:	00db      	lsls	r3, r3, #3
 8005bbe:	4423      	add	r3, r4
 8005bc0:	f203 4306 	addw	r3, r3, #1030	; 0x406
 8005bc4:	461c      	mov	r4, r3
 8005bc6:	6abb      	ldr	r3, [r7, #40]	; 0x28
 8005bc8:	2b00      	cmp	r3, #0
 8005bca:	d10e      	bne.n	8005bea <USB_EPStartXfer+0x346>
 8005bcc:	8823      	ldrh	r3, [r4, #0]
 8005bce:	b29b      	uxth	r3, r3
 8005bd0:	f423 43f8 	bic.w	r3, r3, #31744	; 0x7c00
 8005bd4:	b29b      	uxth	r3, r3
 8005bd6:	8023      	strh	r3, [r4, #0]
 8005bd8:	8823      	ldrh	r3, [r4, #0]
 8005bda:	b29b      	uxth	r3, r3
 8005bdc:	ea6f 4343 	mvn.w	r3, r3, lsl #17
 8005be0:	ea6f 4353 	mvn.w	r3, r3, lsr #17
 8005be4:	b29b      	uxth	r3, r3
 8005be6:	8023      	strh	r3, [r4, #0]
 8005be8:	e0f2      	b.n	8005dd0 <USB_EPStartXfer+0x52c>
 8005bea:	6abb      	ldr	r3, [r7, #40]	; 0x28
 8005bec:	2b3e      	cmp	r3, #62	; 0x3e
 8005bee:	d810      	bhi.n	8005c12 <USB_EPStartXfer+0x36e>
 8005bf0:	6abb      	ldr	r3, [r7, #40]	; 0x28
 8005bf2:	085b      	lsrs	r3, r3, #1
 8005bf4:	61fb      	str	r3, [r7, #28]
 8005bf6:	6abb      	ldr	r3, [r7, #40]	; 0x28
 8005bf8:	f003 0301 	and.w	r3, r3, #1
 8005bfc:	2b00      	cmp	r3, #0
 8005bfe:	d002      	beq.n	8005c06 <USB_EPStartXfer+0x362>
 8005c00:	69fb      	ldr	r3, [r7, #28]
 8005c02:	3301      	adds	r3, #1
 8005c04:	61fb      	str	r3, [r7, #28]
 8005c06:	69fb      	ldr	r3, [r7, #28]
 8005c08:	b29b      	uxth	r3, r3
 8005c0a:	029b      	lsls	r3, r3, #10
 8005c0c:	b29b      	uxth	r3, r3
 8005c0e:	8023      	strh	r3, [r4, #0]
 8005c10:	e0de      	b.n	8005dd0 <USB_EPStartXfer+0x52c>
 8005c12:	6abb      	ldr	r3, [r7, #40]	; 0x28
 8005c14:	095b      	lsrs	r3, r3, #5
 8005c16:	61fb      	str	r3, [r7, #28]
 8005c18:	6abb      	ldr	r3, [r7, #40]	; 0x28
 8005c1a:	f003 031f 	and.w	r3, r3, #31
 8005c1e:	2b00      	cmp	r3, #0
 8005c20:	d102      	bne.n	8005c28 <USB_EPStartXfer+0x384>
 8005c22:	69fb      	ldr	r3, [r7, #28]
 8005c24:	3b01      	subs	r3, #1
 8005c26:	61fb      	str	r3, [r7, #28]
 8005c28:	69fb      	ldr	r3, [r7, #28]
 8005c2a:	b29b      	uxth	r3, r3
 8005c2c:	029b      	lsls	r3, r3, #10
 8005c2e:	b29b      	uxth	r3, r3
 8005c30:	ea6f 4343 	mvn.w	r3, r3, lsl #17
 8005c34:	ea6f 4353 	mvn.w	r3, r3, lsr #17
 8005c38:	b29b      	uxth	r3, r3
 8005c3a:	8023      	strh	r3, [r4, #0]
 8005c3c:	e0c8      	b.n	8005dd0 <USB_EPStartXfer+0x52c>
 8005c3e:	683b      	ldr	r3, [r7, #0]
 8005c40:	785b      	ldrb	r3, [r3, #1]
 8005c42:	2b00      	cmp	r3, #0
 8005c44:	d148      	bne.n	8005cd8 <USB_EPStartXfer+0x434>
 8005c46:	687c      	ldr	r4, [r7, #4]
 8005c48:	687b      	ldr	r3, [r7, #4]
 8005c4a:	f8b3 3050 	ldrh.w	r3, [r3, #80]	; 0x50
 8005c4e:	b29b      	uxth	r3, r3
 8005c50:	441c      	add	r4, r3
 8005c52:	683b      	ldr	r3, [r7, #0]
 8005c54:	781b      	ldrb	r3, [r3, #0]
 8005c56:	00db      	lsls	r3, r3, #3
 8005c58:	4423      	add	r3, r4
 8005c5a:	f203 4302 	addw	r3, r3, #1026	; 0x402
 8005c5e:	461c      	mov	r4, r3
 8005c60:	6abb      	ldr	r3, [r7, #40]	; 0x28
 8005c62:	2b00      	cmp	r3, #0
 8005c64:	d10e      	bne.n	8005c84 <USB_EPStartXfer+0x3e0>
 8005c66:	8823      	ldrh	r3, [r4, #0]
 8005c68:	b29b      	uxth	r3, r3
 8005c6a:	f423 43f8 	bic.w	r3, r3, #31744	; 0x7c00
 8005c6e:	b29b      	uxth	r3, r3
 8005c70:	8023      	strh	r3, [r4, #0]
 8005c72:	8823      	ldrh	r3, [r4, #0]
 8005c74:	b29b      	uxth	r3, r3
 8005c76:	ea6f 4343 	mvn.w	r3, r3, lsl #17
 8005c7a:	ea6f 4353 	mvn.w	r3, r3, lsr #17
 8005c7e:	b29b      	uxth	r3, r3
 8005c80:	8023      	strh	r3, [r4, #0]
 8005c82:	e03d      	b.n	8005d00 <USB_EPStartXfer+0x45c>
 8005c84:	6abb      	ldr	r3, [r7, #40]	; 0x28
 8005c86:	2b3e      	cmp	r3, #62	; 0x3e
 8005c88:	d810      	bhi.n	8005cac <USB_EPStartXfer+0x408>
 8005c8a:	6abb      	ldr	r3, [r7, #40]	; 0x28
 8005c8c:	085b      	lsrs	r3, r3, #1
 8005c8e:	61bb      	str	r3, [r7, #24]
 8005c90:	6abb      	ldr	r3, [r7, #40]	; 0x28
 8005c92:	f003 0301 	and.w	r3, r3, #1
 8005c96:	2b00      	cmp	r3, #0
 8005c98:	d002      	beq.n	8005ca0 <USB_EPStartXfer+0x3fc>
 8005c9a:	69bb      	ldr	r3, [r7, #24]
 8005c9c:	3301      	adds	r3, #1
 8005c9e:	61bb      	str	r3, [r7, #24]
 8005ca0:	69bb      	ldr	r3, [r7, #24]
 8005ca2:	b29b      	uxth	r3, r3
 8005ca4:	029b      	lsls	r3, r3, #10
 8005ca6:	b29b      	uxth	r3, r3
 8005ca8:	8023      	strh	r3, [r4, #0]
 8005caa:	e029      	b.n	8005d00 <USB_EPStartXfer+0x45c>
 8005cac:	6abb      	ldr	r3, [r7, #40]	; 0x28
 8005cae:	095b      	lsrs	r3, r3, #5
 8005cb0:	61bb      	str	r3, [r7, #24]
 8005cb2:	6abb      	ldr	r3, [r7, #40]	; 0x28
 8005cb4:	f003 031f 	and.w	r3, r3, #31
 8005cb8:	2b00      	cmp	r3, #0
 8005cba:	d102      	bne.n	8005cc2 <USB_EPStartXfer+0x41e>
 8005cbc:	69bb      	ldr	r3, [r7, #24]
 8005cbe:	3b01      	subs	r3, #1
 8005cc0:	61bb      	str	r3, [r7, #24]
 8005cc2:	69bb      	ldr	r3, [r7, #24]
 8005cc4:	b29b      	uxth	r3, r3
 8005cc6:	029b      	lsls	r3, r3, #10
 8005cc8:	b29b      	uxth	r3, r3
 8005cca:	ea6f 4343 	mvn.w	r3, r3, lsl #17
 8005cce:	ea6f 4353 	mvn.w	r3, r3, lsr #17
 8005cd2:	b29b      	uxth	r3, r3
 8005cd4:	8023      	strh	r3, [r4, #0]
 8005cd6:	e013      	b.n	8005d00 <USB_EPStartXfer+0x45c>
 8005cd8:	683b      	ldr	r3, [r7, #0]
 8005cda:	785b      	ldrb	r3, [r3, #1]
 8005cdc:	2b01      	cmp	r3, #1
 8005cde:	d10f      	bne.n	8005d00 <USB_EPStartXfer+0x45c>
 8005ce0:	687c      	ldr	r4, [r7, #4]
 8005ce2:	687b      	ldr	r3, [r7, #4]
 8005ce4:	f8b3 3050 	ldrh.w	r3, [r3, #80]	; 0x50
 8005ce8:	b29b      	uxth	r3, r3
 8005cea:	441c      	add	r4, r3
 8005cec:	683b      	ldr	r3, [r7, #0]
 8005cee:	781b      	ldrb	r3, [r3, #0]
 8005cf0:	00db      	lsls	r3, r3, #3
 8005cf2:	4423      	add	r3, r4
 8005cf4:	f203 4302 	addw	r3, r3, #1026	; 0x402
 8005cf8:	461c      	mov	r4, r3
 8005cfa:	6abb      	ldr	r3, [r7, #40]	; 0x28
 8005cfc:	b29b      	uxth	r3, r3
 8005cfe:	8023      	strh	r3, [r4, #0]
 8005d00:	687c      	ldr	r4, [r7, #4]
 8005d02:	683b      	ldr	r3, [r7, #0]
 8005d04:	785b      	ldrb	r3, [r3, #1]
 8005d06:	2b00      	cmp	r3, #0
 8005d08:	d14e      	bne.n	8005da8 <USB_EPStartXfer+0x504>
 8005d0a:	687c      	ldr	r4, [r7, #4]
 8005d0c:	687b      	ldr	r3, [r7, #4]
 8005d0e:	f8b3 3050 	ldrh.w	r3, [r3, #80]	; 0x50
 8005d12:	b29b      	uxth	r3, r3
 8005d14:	441c      	add	r4, r3
 8005d16:	683b      	ldr	r3, [r7, #0]
 8005d18:	781b      	ldrb	r3, [r3, #0]
 8005d1a:	00db      	lsls	r3, r3, #3
 8005d1c:	4423      	add	r3, r4
 8005d1e:	f203 4306 	addw	r3, r3, #1030	; 0x406
 8005d22:	461c      	mov	r4, r3
 8005d24:	6abb      	ldr	r3, [r7, #40]	; 0x28
 8005d26:	2b00      	cmp	r3, #0
 8005d28:	d10e      	bne.n	8005d48 <USB_EPStartXfer+0x4a4>
 8005d2a:	8823      	ldrh	r3, [r4, #0]
 8005d2c:	b29b      	uxth	r3, r3
 8005d2e:	f423 43f8 	bic.w	r3, r3, #31744	; 0x7c00
 8005d32:	b29b      	uxth	r3, r3
 8005d34:	8023      	strh	r3, [r4, #0]
 8005d36:	8823      	ldrh	r3, [r4, #0]
 8005d38:	b29b      	uxth	r3, r3
 8005d3a:	ea6f 4343 	mvn.w	r3, r3, lsl #17
 8005d3e:	ea6f 4353 	mvn.w	r3, r3, lsr #17
 8005d42:	b29b      	uxth	r3, r3
 8005d44:	8023      	strh	r3, [r4, #0]
 8005d46:	e043      	b.n	8005dd0 <USB_EPStartXfer+0x52c>
 8005d48:	6abb      	ldr	r3, [r7, #40]	; 0x28
 8005d4a:	2b3e      	cmp	r3, #62	; 0x3e
 8005d4c:	d816      	bhi.n	8005d7c <USB_EPStartXfer+0x4d8>
 8005d4e:	6abb      	ldr	r3, [r7, #40]	; 0x28
 8005d50:	085b      	lsrs	r3, r3, #1
 8005d52:	617b      	str	r3, [r7, #20]
 8005d54:	6abb      	ldr	r3, [r7, #40]	; 0x28
 8005d56:	f003 0301 	and.w	r3, r3, #1
 8005d5a:	2b00      	cmp	r3, #0
 8005d5c:	d002      	beq.n	8005d64 <USB_EPStartXfer+0x4c0>
 8005d5e:	697b      	ldr	r3, [r7, #20]
 8005d60:	3301      	adds	r3, #1
 8005d62:	617b      	str	r3, [r7, #20]
 8005d64:	697b      	ldr	r3, [r7, #20]
 8005d66:	b29b      	uxth	r3, r3
 8005d68:	029b      	lsls	r3, r3, #10
 8005d6a:	b29b      	uxth	r3, r3
 8005d6c:	8023      	strh	r3, [r4, #0]
 8005d6e:	e02f      	b.n	8005dd0 <USB_EPStartXfer+0x52c>
 8005d70:	ffff80c0 	.word	0xffff80c0
 8005d74:	ffffc080 	.word	0xffffc080
 8005d78:	ffff8080 	.word	0xffff8080
 8005d7c:	6abb      	ldr	r3, [r7, #40]	; 0x28
 8005d7e:	095b      	lsrs	r3, r3, #5
 8005d80:	617b      	str	r3, [r7, #20]
 8005d82:	6abb      	ldr	r3, [r7, #40]	; 0x28
 8005d84:	f003 031f 	and.w	r3, r3, #31
 8005d88:	2b00      	cmp	r3, #0
 8005d8a:	d102      	bne.n	8005d92 <USB_EPStartXfer+0x4ee>
 8005d8c:	697b      	ldr	r3, [r7, #20]
 8005d8e:	3b01      	subs	r3, #1
 8005d90:	617b      	str	r3, [r7, #20]
 8005d92:	697b      	ldr	r3, [r7, #20]
 8005d94:	b29b      	uxth	r3, r3
 8005d96:	029b      	lsls	r3, r3, #10
 8005d98:	b29b      	uxth	r3, r3
 8005d9a:	ea6f 4343 	mvn.w	r3, r3, lsl #17
 8005d9e:	ea6f 4353 	mvn.w	r3, r3, lsr #17
 8005da2:	b29b      	uxth	r3, r3
 8005da4:	8023      	strh	r3, [r4, #0]
 8005da6:	e013      	b.n	8005dd0 <USB_EPStartXfer+0x52c>
 8005da8:	683b      	ldr	r3, [r7, #0]
 8005daa:	785b      	ldrb	r3, [r3, #1]
 8005dac:	2b01      	cmp	r3, #1
 8005dae:	d10f      	bne.n	8005dd0 <USB_EPStartXfer+0x52c>
 8005db0:	687b      	ldr	r3, [r7, #4]
 8005db2:	f8b3 3050 	ldrh.w	r3, [r3, #80]	; 0x50
 8005db6:	b29b      	uxth	r3, r3
 8005db8:	441c      	add	r4, r3
 8005dba:	683b      	ldr	r3, [r7, #0]
 8005dbc:	781b      	ldrb	r3, [r3, #0]
 8005dbe:	00db      	lsls	r3, r3, #3
 8005dc0:	4423      	add	r3, r4
 8005dc2:	f203 4306 	addw	r3, r3, #1030	; 0x406
 8005dc6:	613b      	str	r3, [r7, #16]
 8005dc8:	6abb      	ldr	r3, [r7, #40]	; 0x28
 8005dca:	b29a      	uxth	r2, r3
 8005dcc:	693b      	ldr	r3, [r7, #16]
 8005dce:	801a      	strh	r2, [r3, #0]
 8005dd0:	687a      	ldr	r2, [r7, #4]
 8005dd2:	683b      	ldr	r3, [r7, #0]
 8005dd4:	781b      	ldrb	r3, [r3, #0]
 8005dd6:	009b      	lsls	r3, r3, #2
 8005dd8:	4413      	add	r3, r2
 8005dda:	881b      	ldrh	r3, [r3, #0]
 8005ddc:	b29b      	uxth	r3, r3
 8005dde:	f423 4380 	bic.w	r3, r3, #16384	; 0x4000
 8005de2:	f023 0370 	bic.w	r3, r3, #112	; 0x70
 8005de6:	b29c      	uxth	r4, r3
 8005de8:	f484 5380 	eor.w	r3, r4, #4096	; 0x1000
 8005dec:	b29c      	uxth	r4, r3
 8005dee:	f484 5300 	eor.w	r3, r4, #8192	; 0x2000
 8005df2:	b29c      	uxth	r4, r3
 8005df4:	687a      	ldr	r2, [r7, #4]
 8005df6:	683b      	ldr	r3, [r7, #0]
 8005df8:	781b      	ldrb	r3, [r3, #0]
 8005dfa:	009b      	lsls	r3, r3, #2
 8005dfc:	441a      	add	r2, r3
 8005dfe:	4b04      	ldr	r3, [pc, #16]	; (8005e10 <USB_EPStartXfer+0x56c>)
 8005e00:	4323      	orrs	r3, r4
 8005e02:	b29b      	uxth	r3, r3
 8005e04:	8013      	strh	r3, [r2, #0]
 8005e06:	2300      	movs	r3, #0
 8005e08:	4618      	mov	r0, r3
 8005e0a:	3734      	adds	r7, #52	; 0x34
 8005e0c:	46bd      	mov	sp, r7
 8005e0e:	bd90      	pop	{r4, r7, pc}
 8005e10:	ffff8080 	.word	0xffff8080

08005e14 <USB_EPSetStall>:
 8005e14:	b490      	push	{r4, r7}
 8005e16:	b082      	sub	sp, #8
 8005e18:	af00      	add	r7, sp, #0
 8005e1a:	6078      	str	r0, [r7, #4]
 8005e1c:	6039      	str	r1, [r7, #0]
 8005e1e:	683b      	ldr	r3, [r7, #0]
 8005e20:	785b      	ldrb	r3, [r3, #1]
 8005e22:	2b00      	cmp	r3, #0
 8005e24:	d018      	beq.n	8005e58 <USB_EPSetStall+0x44>
 8005e26:	687a      	ldr	r2, [r7, #4]
 8005e28:	683b      	ldr	r3, [r7, #0]
 8005e2a:	781b      	ldrb	r3, [r3, #0]
 8005e2c:	009b      	lsls	r3, r3, #2
 8005e2e:	4413      	add	r3, r2
 8005e30:	881b      	ldrh	r3, [r3, #0]
 8005e32:	b29b      	uxth	r3, r3
 8005e34:	f423 43e0 	bic.w	r3, r3, #28672	; 0x7000
 8005e38:	f023 0340 	bic.w	r3, r3, #64	; 0x40
 8005e3c:	b29c      	uxth	r4, r3
 8005e3e:	f084 0310 	eor.w	r3, r4, #16
 8005e42:	b29c      	uxth	r4, r3
 8005e44:	687a      	ldr	r2, [r7, #4]
 8005e46:	683b      	ldr	r3, [r7, #0]
 8005e48:	781b      	ldrb	r3, [r3, #0]
 8005e4a:	009b      	lsls	r3, r3, #2
 8005e4c:	441a      	add	r2, r3
 8005e4e:	4b11      	ldr	r3, [pc, #68]	; (8005e94 <USB_EPSetStall+0x80>)
 8005e50:	4323      	orrs	r3, r4
 8005e52:	b29b      	uxth	r3, r3
 8005e54:	8013      	strh	r3, [r2, #0]
 8005e56:	e017      	b.n	8005e88 <USB_EPSetStall+0x74>
 8005e58:	687a      	ldr	r2, [r7, #4]
 8005e5a:	683b      	ldr	r3, [r7, #0]
 8005e5c:	781b      	ldrb	r3, [r3, #0]
 8005e5e:	009b      	lsls	r3, r3, #2
 8005e60:	4413      	add	r3, r2
 8005e62:	881b      	ldrh	r3, [r3, #0]
 8005e64:	b29b      	uxth	r3, r3
 8005e66:	f423 4380 	bic.w	r3, r3, #16384	; 0x4000
 8005e6a:	f023 0370 	bic.w	r3, r3, #112	; 0x70
 8005e6e:	b29c      	uxth	r4, r3
 8005e70:	f484 5380 	eor.w	r3, r4, #4096	; 0x1000
 8005e74:	b29c      	uxth	r4, r3
 8005e76:	687a      	ldr	r2, [r7, #4]
 8005e78:	683b      	ldr	r3, [r7, #0]
 8005e7a:	781b      	ldrb	r3, [r3, #0]
 8005e7c:	009b      	lsls	r3, r3, #2
 8005e7e:	441a      	add	r2, r3
 8005e80:	4b04      	ldr	r3, [pc, #16]	; (8005e94 <USB_EPSetStall+0x80>)
 8005e82:	4323      	orrs	r3, r4
 8005e84:	b29b      	uxth	r3, r3
 8005e86:	8013      	strh	r3, [r2, #0]
 8005e88:	2300      	movs	r3, #0
 8005e8a:	4618      	mov	r0, r3
 8005e8c:	3708      	adds	r7, #8
 8005e8e:	46bd      	mov	sp, r7
 8005e90:	bc90      	pop	{r4, r7}
 8005e92:	4770      	bx	lr
 8005e94:	ffff8080 	.word	0xffff8080

08005e98 <USB_EPClearStall>:
 8005e98:	b490      	push	{r4, r7}
 8005e9a:	b082      	sub	sp, #8
 8005e9c:	af00      	add	r7, sp, #0
 8005e9e:	6078      	str	r0, [r7, #4]
 8005ea0:	6039      	str	r1, [r7, #0]
 8005ea2:	683b      	ldr	r3, [r7, #0]
 8005ea4:	7b1b      	ldrb	r3, [r3, #12]
 8005ea6:	2b00      	cmp	r3, #0
 8005ea8:	d17d      	bne.n	8005fa6 <USB_EPClearStall+0x10e>
 8005eaa:	683b      	ldr	r3, [r7, #0]
 8005eac:	785b      	ldrb	r3, [r3, #1]
 8005eae:	2b00      	cmp	r3, #0
 8005eb0:	d03d      	beq.n	8005f2e <USB_EPClearStall+0x96>
 8005eb2:	687a      	ldr	r2, [r7, #4]
 8005eb4:	683b      	ldr	r3, [r7, #0]
 8005eb6:	781b      	ldrb	r3, [r3, #0]
 8005eb8:	009b      	lsls	r3, r3, #2
 8005eba:	4413      	add	r3, r2
 8005ebc:	881b      	ldrh	r3, [r3, #0]
 8005ebe:	b29c      	uxth	r4, r3
 8005ec0:	4623      	mov	r3, r4
 8005ec2:	f003 0340 	and.w	r3, r3, #64	; 0x40
 8005ec6:	2b00      	cmp	r3, #0
 8005ec8:	d014      	beq.n	8005ef4 <USB_EPClearStall+0x5c>
 8005eca:	687a      	ldr	r2, [r7, #4]
 8005ecc:	683b      	ldr	r3, [r7, #0]
 8005ece:	781b      	ldrb	r3, [r3, #0]
 8005ed0:	009b      	lsls	r3, r3, #2
 8005ed2:	4413      	add	r3, r2
 8005ed4:	881b      	ldrh	r3, [r3, #0]
 8005ed6:	b29b      	uxth	r3, r3
 8005ed8:	f423 43e0 	bic.w	r3, r3, #28672	; 0x7000
 8005edc:	f023 0370 	bic.w	r3, r3, #112	; 0x70
 8005ee0:	b29c      	uxth	r4, r3
 8005ee2:	687a      	ldr	r2, [r7, #4]
 8005ee4:	683b      	ldr	r3, [r7, #0]
 8005ee6:	781b      	ldrb	r3, [r3, #0]
 8005ee8:	009b      	lsls	r3, r3, #2
 8005eea:	441a      	add	r2, r3
 8005eec:	4b31      	ldr	r3, [pc, #196]	; (8005fb4 <USB_EPClearStall+0x11c>)
 8005eee:	4323      	orrs	r3, r4
 8005ef0:	b29b      	uxth	r3, r3
 8005ef2:	8013      	strh	r3, [r2, #0]
 8005ef4:	683b      	ldr	r3, [r7, #0]
 8005ef6:	78db      	ldrb	r3, [r3, #3]
 8005ef8:	2b01      	cmp	r3, #1
 8005efa:	d054      	beq.n	8005fa6 <USB_EPClearStall+0x10e>
 8005efc:	687a      	ldr	r2, [r7, #4]
 8005efe:	683b      	ldr	r3, [r7, #0]
 8005f00:	781b      	ldrb	r3, [r3, #0]
 8005f02:	009b      	lsls	r3, r3, #2
 8005f04:	4413      	add	r3, r2
 8005f06:	881b      	ldrh	r3, [r3, #0]
 8005f08:	b29b      	uxth	r3, r3
 8005f0a:	f423 43e0 	bic.w	r3, r3, #28672	; 0x7000
 8005f0e:	f023 0340 	bic.w	r3, r3, #64	; 0x40
 8005f12:	b29c      	uxth	r4, r3
 8005f14:	f084 0320 	eor.w	r3, r4, #32
 8005f18:	b29c      	uxth	r4, r3
 8005f1a:	687a      	ldr	r2, [r7, #4]
 8005f1c:	683b      	ldr	r3, [r7, #0]
 8005f1e:	781b      	ldrb	r3, [r3, #0]
 8005f20:	009b      	lsls	r3, r3, #2
 8005f22:	441a      	add	r2, r3
 8005f24:	4b24      	ldr	r3, [pc, #144]	; (8005fb8 <USB_EPClearStall+0x120>)
 8005f26:	4323      	orrs	r3, r4
 8005f28:	b29b      	uxth	r3, r3
 8005f2a:	8013      	strh	r3, [r2, #0]
 8005f2c:	e03b      	b.n	8005fa6 <USB_EPClearStall+0x10e>
 8005f2e:	687a      	ldr	r2, [r7, #4]
 8005f30:	683b      	ldr	r3, [r7, #0]
 8005f32:	781b      	ldrb	r3, [r3, #0]
 8005f34:	009b      	lsls	r3, r3, #2
 8005f36:	4413      	add	r3, r2
 8005f38:	881b      	ldrh	r3, [r3, #0]
 8005f3a:	b29c      	uxth	r4, r3
 8005f3c:	4623      	mov	r3, r4
 8005f3e:	f403 4380 	and.w	r3, r3, #16384	; 0x4000
 8005f42:	2b00      	cmp	r3, #0
 8005f44:	d014      	beq.n	8005f70 <USB_EPClearStall+0xd8>
 8005f46:	687a      	ldr	r2, [r7, #4]
 8005f48:	683b      	ldr	r3, [r7, #0]
 8005f4a:	781b      	ldrb	r3, [r3, #0]
 8005f4c:	009b      	lsls	r3, r3, #2
 8005f4e:	4413      	add	r3, r2
 8005f50:	881b      	ldrh	r3, [r3, #0]
 8005f52:	b29b      	uxth	r3, r3
 8005f54:	f423 43e0 	bic.w	r3, r3, #28672	; 0x7000
 8005f58:	f023 0370 	bic.w	r3, r3, #112	; 0x70
 8005f5c:	b29c      	uxth	r4, r3
 8005f5e:	687a      	ldr	r2, [r7, #4]
 8005f60:	683b      	ldr	r3, [r7, #0]
 8005f62:	781b      	ldrb	r3, [r3, #0]
 8005f64:	009b      	lsls	r3, r3, #2
 8005f66:	441a      	add	r2, r3
 8005f68:	4b14      	ldr	r3, [pc, #80]	; (8005fbc <USB_EPClearStall+0x124>)
 8005f6a:	4323      	orrs	r3, r4
 8005f6c:	b29b      	uxth	r3, r3
 8005f6e:	8013      	strh	r3, [r2, #0]
 8005f70:	687a      	ldr	r2, [r7, #4]
 8005f72:	683b      	ldr	r3, [r7, #0]
 8005f74:	781b      	ldrb	r3, [r3, #0]
 8005f76:	009b      	lsls	r3, r3, #2
 8005f78:	4413      	add	r3, r2
 8005f7a:	881b      	ldrh	r3, [r3, #0]
 8005f7c:	b29b      	uxth	r3, r3
 8005f7e:	f423 4380 	bic.w	r3, r3, #16384	; 0x4000
 8005f82:	f023 0370 	bic.w	r3, r3, #112	; 0x70
 8005f86:	b29c      	uxth	r4, r3
 8005f88:	f484 5380 	eor.w	r3, r4, #4096	; 0x1000
 8005f8c:	b29c      	uxth	r4, r3
 8005f8e:	f484 5300 	eor.w	r3, r4, #8192	; 0x2000
 8005f92:	b29c      	uxth	r4, r3
 8005f94:	687a      	ldr	r2, [r7, #4]
 8005f96:	683b      	ldr	r3, [r7, #0]
 8005f98:	781b      	ldrb	r3, [r3, #0]
 8005f9a:	009b      	lsls	r3, r3, #2
 8005f9c:	441a      	add	r2, r3
 8005f9e:	4b06      	ldr	r3, [pc, #24]	; (8005fb8 <USB_EPClearStall+0x120>)
 8005fa0:	4323      	orrs	r3, r4
 8005fa2:	b29b      	uxth	r3, r3
 8005fa4:	8013      	strh	r3, [r2, #0]
 8005fa6:	2300      	movs	r3, #0
 8005fa8:	4618      	mov	r0, r3
 8005faa:	3708      	adds	r7, #8
 8005fac:	46bd      	mov	sp, r7
 8005fae:	bc90      	pop	{r4, r7}
 8005fb0:	4770      	bx	lr
 8005fb2:	bf00      	nop
 8005fb4:	ffff80c0 	.word	0xffff80c0
 8005fb8:	ffff8080 	.word	0xffff8080
 8005fbc:	ffffc080 	.word	0xffffc080

08005fc0 <USB_SetDevAddress>:
 8005fc0:	b480      	push	{r7}
 8005fc2:	b083      	sub	sp, #12
 8005fc4:	af00      	add	r7, sp, #0
 8005fc6:	6078      	str	r0, [r7, #4]
 8005fc8:	460b      	mov	r3, r1
 8005fca:	70fb      	strb	r3, [r7, #3]
 8005fcc:	78fb      	ldrb	r3, [r7, #3]
 8005fce:	2b00      	cmp	r3, #0
 8005fd0:	d103      	bne.n	8005fda <USB_SetDevAddress+0x1a>
 8005fd2:	687b      	ldr	r3, [r7, #4]
 8005fd4:	2280      	movs	r2, #128	; 0x80
 8005fd6:	f8a3 204c 	strh.w	r2, [r3, #76]	; 0x4c
 8005fda:	2300      	movs	r3, #0
 8005fdc:	4618      	mov	r0, r3
 8005fde:	370c      	adds	r7, #12
 8005fe0:	46bd      	mov	sp, r7
 8005fe2:	f85d 7b04 	ldr.w	r7, [sp], #4
 8005fe6:	4770      	bx	lr

08005fe8 <USB_DevConnect>:
 8005fe8:	b480      	push	{r7}
 8005fea:	b083      	sub	sp, #12
 8005fec:	af00      	add	r7, sp, #0
 8005fee:	6078      	str	r0, [r7, #4]
 8005ff0:	687b      	ldr	r3, [r7, #4]
 8005ff2:	f8b3 3058 	ldrh.w	r3, [r3, #88]	; 0x58
 8005ff6:	b29b      	uxth	r3, r3
 8005ff8:	ea6f 4343 	mvn.w	r3, r3, lsl #17
 8005ffc:	ea6f 4353 	mvn.w	r3, r3, lsr #17
 8006000:	b29a      	uxth	r2, r3
 8006002:	687b      	ldr	r3, [r7, #4]
 8006004:	f8a3 2058 	strh.w	r2, [r3, #88]	; 0x58
 8006008:	2300      	movs	r3, #0
 800600a:	4618      	mov	r0, r3
 800600c:	370c      	adds	r7, #12
 800600e:	46bd      	mov	sp, r7
 8006010:	f85d 7b04 	ldr.w	r7, [sp], #4
 8006014:	4770      	bx	lr

08006016 <USB_ReadInterrupts>:
 8006016:	b480      	push	{r7}
 8006018:	b085      	sub	sp, #20
 800601a:	af00      	add	r7, sp, #0
 800601c:	6078      	str	r0, [r7, #4]
 800601e:	687b      	ldr	r3, [r7, #4]
 8006020:	f8b3 3044 	ldrh.w	r3, [r3, #68]	; 0x44
 8006024:	b29b      	uxth	r3, r3
 8006026:	60fb      	str	r3, [r7, #12]
 8006028:	68fb      	ldr	r3, [r7, #12]
 800602a:	4618      	mov	r0, r3
 800602c:	3714      	adds	r7, #20
 800602e:	46bd      	mov	sp, r7
 8006030:	f85d 7b04 	ldr.w	r7, [sp], #4
 8006034:	4770      	bx	lr

08006036 <USB_EP0_OutStart>:
 8006036:	b480      	push	{r7}
 8006038:	b083      	sub	sp, #12
 800603a:	af00      	add	r7, sp, #0
 800603c:	6078      	str	r0, [r7, #4]
 800603e:	6039      	str	r1, [r7, #0]
 8006040:	2300      	movs	r3, #0
 8006042:	4618      	mov	r0, r3
 8006044:	370c      	adds	r7, #12
 8006046:	46bd      	mov	sp, r7
 8006048:	f85d 7b04 	ldr.w	r7, [sp], #4
 800604c:	4770      	bx	lr

0800604e <USB_WritePMA>:
 800604e:	b480      	push	{r7}
 8006050:	b08d      	sub	sp, #52	; 0x34
 8006052:	af00      	add	r7, sp, #0
 8006054:	60f8      	str	r0, [r7, #12]
 8006056:	60b9      	str	r1, [r7, #8]
 8006058:	4611      	mov	r1, r2
 800605a:	461a      	mov	r2, r3
 800605c:	460b      	mov	r3, r1
 800605e:	80fb      	strh	r3, [r7, #6]
 8006060:	4613      	mov	r3, r2
 8006062:	80bb      	strh	r3, [r7, #4]
 8006064:	88bb      	ldrh	r3, [r7, #4]
 8006066:	3301      	adds	r3, #1
 8006068:	085b      	lsrs	r3, r3, #1
 800606a:	623b      	str	r3, [r7, #32]
 800606c:	68fb      	ldr	r3, [r7, #12]
 800606e:	61fb      	str	r3, [r7, #28]
 8006070:	68bb      	ldr	r3, [r7, #8]
 8006072:	627b      	str	r3, [r7, #36]	; 0x24
 8006074:	88fa      	ldrh	r2, [r7, #6]
 8006076:	69fb      	ldr	r3, [r7, #28]
 8006078:	4413      	add	r3, r2
 800607a:	f503 6380 	add.w	r3, r3, #1024	; 0x400
 800607e:	62bb      	str	r3, [r7, #40]	; 0x28
 8006080:	6a3b      	ldr	r3, [r7, #32]
 8006082:	62fb      	str	r3, [r7, #44]	; 0x2c
 8006084:	e01b      	b.n	80060be <USB_WritePMA+0x70>
 8006086:	6a7b      	ldr	r3, [r7, #36]	; 0x24
 8006088:	781b      	ldrb	r3, [r3, #0]
 800608a:	61bb      	str	r3, [r7, #24]
 800608c:	6a7b      	ldr	r3, [r7, #36]	; 0x24
 800608e:	3301      	adds	r3, #1
 8006090:	627b      	str	r3, [r7, #36]	; 0x24
 8006092:	6a7b      	ldr	r3, [r7, #36]	; 0x24
 8006094:	781b      	ldrb	r3, [r3, #0]
 8006096:	b29b      	uxth	r3, r3
 8006098:	021b      	lsls	r3, r3, #8
 800609a:	b29b      	uxth	r3, r3
 800609c:	461a      	mov	r2, r3
 800609e:	69bb      	ldr	r3, [r7, #24]
 80060a0:	4313      	orrs	r3, r2
 80060a2:	617b      	str	r3, [r7, #20]
 80060a4:	697b      	ldr	r3, [r7, #20]
 80060a6:	b29a      	uxth	r2, r3
 80060a8:	6abb      	ldr	r3, [r7, #40]	; 0x28
 80060aa:	801a      	strh	r2, [r3, #0]
 80060ac:	6abb      	ldr	r3, [r7, #40]	; 0x28
 80060ae:	3302      	adds	r3, #2
 80060b0:	62bb      	str	r3, [r7, #40]	; 0x28
 80060b2:	6a7b      	ldr	r3, [r7, #36]	; 0x24
 80060b4:	3301      	adds	r3, #1
 80060b6:	627b      	str	r3, [r7, #36]	; 0x24
 80060b8:	6afb      	ldr	r3, [r7, #44]	; 0x2c
 80060ba:	3b01      	subs	r3, #1
 80060bc:	62fb      	str	r3, [r7, #44]	; 0x2c
 80060be:	6afb      	ldr	r3, [r7, #44]	; 0x2c
 80060c0:	2b00      	cmp	r3, #0
 80060c2:	d1e0      	bne.n	8006086 <USB_WritePMA+0x38>
 80060c4:	bf00      	nop
 80060c6:	3734      	adds	r7, #52	; 0x34
 80060c8:	46bd      	mov	sp, r7
 80060ca:	f85d 7b04 	ldr.w	r7, [sp], #4
 80060ce:	4770      	bx	lr

080060d0 <USB_ReadPMA>:
 80060d0:	b480      	push	{r7}
 80060d2:	b08b      	sub	sp, #44	; 0x2c
 80060d4:	af00      	add	r7, sp, #0
 80060d6:	60f8      	str	r0, [r7, #12]
 80060d8:	60b9      	str	r1, [r7, #8]
 80060da:	4611      	mov	r1, r2
 80060dc:	461a      	mov	r2, r3
 80060de:	460b      	mov	r3, r1
 80060e0:	80fb      	strh	r3, [r7, #6]
 80060e2:	4613      	mov	r3, r2
 80060e4:	80bb      	strh	r3, [r7, #4]
 80060e6:	88bb      	ldrh	r3, [r7, #4]
 80060e8:	085b      	lsrs	r3, r3, #1
 80060ea:	b29b      	uxth	r3, r3
 80060ec:	61bb      	str	r3, [r7, #24]
 80060ee:	68fb      	ldr	r3, [r7, #12]
 80060f0:	617b      	str	r3, [r7, #20]
 80060f2:	68bb      	ldr	r3, [r7, #8]
 80060f4:	61fb      	str	r3, [r7, #28]
 80060f6:	88fa      	ldrh	r2, [r7, #6]
 80060f8:	697b      	ldr	r3, [r7, #20]
 80060fa:	4413      	add	r3, r2
 80060fc:	f503 6380 	add.w	r3, r3, #1024	; 0x400
 8006100:	623b      	str	r3, [r7, #32]
 8006102:	69bb      	ldr	r3, [r7, #24]
 8006104:	627b      	str	r3, [r7, #36]	; 0x24
 8006106:	e018      	b.n	800613a <USB_ReadPMA+0x6a>
 8006108:	6a3b      	ldr	r3, [r7, #32]
 800610a:	881b      	ldrh	r3, [r3, #0]
 800610c:	b29b      	uxth	r3, r3
 800610e:	613b      	str	r3, [r7, #16]
 8006110:	6a3b      	ldr	r3, [r7, #32]
 8006112:	3302      	adds	r3, #2
 8006114:	623b      	str	r3, [r7, #32]
 8006116:	693b      	ldr	r3, [r7, #16]
 8006118:	b2da      	uxtb	r2, r3
 800611a:	69fb      	ldr	r3, [r7, #28]
 800611c:	701a      	strb	r2, [r3, #0]
 800611e:	69fb      	ldr	r3, [r7, #28]
 8006120:	3301      	adds	r3, #1
 8006122:	61fb      	str	r3, [r7, #28]
 8006124:	693b      	ldr	r3, [r7, #16]
 8006126:	0a1b      	lsrs	r3, r3, #8
 8006128:	b2da      	uxtb	r2, r3
 800612a:	69fb      	ldr	r3, [r7, #28]
 800612c:	701a      	strb	r2, [r3, #0]
 800612e:	69fb      	ldr	r3, [r7, #28]
 8006130:	3301      	adds	r3, #1
 8006132:	61fb      	str	r3, [r7, #28]
 8006134:	6a7b      	ldr	r3, [r7, #36]	; 0x24
 8006136:	3b01      	subs	r3, #1
 8006138:	627b      	str	r3, [r7, #36]	; 0x24
 800613a:	6a7b      	ldr	r3, [r7, #36]	; 0x24
 800613c:	2b00      	cmp	r3, #0
 800613e:	d1e3      	bne.n	8006108 <USB_ReadPMA+0x38>
 8006140:	88bb      	ldrh	r3, [r7, #4]
 8006142:	f003 0301 	and.w	r3, r3, #1
 8006146:	b29b      	uxth	r3, r3
 8006148:	2b00      	cmp	r3, #0
 800614a:	d007      	beq.n	800615c <USB_ReadPMA+0x8c>
 800614c:	6a3b      	ldr	r3, [r7, #32]
 800614e:	881b      	ldrh	r3, [r3, #0]
 8006150:	b29b      	uxth	r3, r3
 8006152:	613b      	str	r3, [r7, #16]
 8006154:	693b      	ldr	r3, [r7, #16]
 8006156:	b2da      	uxtb	r2, r3
 8006158:	69fb      	ldr	r3, [r7, #28]
 800615a:	701a      	strb	r2, [r3, #0]
 800615c:	bf00      	nop
 800615e:	372c      	adds	r7, #44	; 0x2c
 8006160:	46bd      	mov	sp, r7
 8006162:	f85d 7b04 	ldr.w	r7, [sp], #4
 8006166:	4770      	bx	lr

08006168 <USBD_CDC_Init>:
 8006168:	b580      	push	{r7, lr}
 800616a:	b084      	sub	sp, #16
 800616c:	af00      	add	r7, sp, #0
 800616e:	6078      	str	r0, [r7, #4]
 8006170:	460b      	mov	r3, r1
 8006172:	70fb      	strb	r3, [r7, #3]
 8006174:	2300      	movs	r3, #0
 8006176:	73fb      	strb	r3, [r7, #15]
 8006178:	687b      	ldr	r3, [r7, #4]
 800617a:	7c1b      	ldrb	r3, [r3, #16]
 800617c:	2b00      	cmp	r3, #0
 800617e:	d115      	bne.n	80061ac <USBD_CDC_Init+0x44>
 8006180:	f44f 7300 	mov.w	r3, #512	; 0x200
 8006184:	2202      	movs	r2, #2
 8006186:	2181      	movs	r1, #129	; 0x81
 8006188:	6878      	ldr	r0, [r7, #4]
 800618a:	f001 fe80 	bl	8007e8e <USBD_LL_OpenEP>
 800618e:	687b      	ldr	r3, [r7, #4]
 8006190:	2201      	movs	r2, #1
 8006192:	62da      	str	r2, [r3, #44]	; 0x2c
 8006194:	f44f 7300 	mov.w	r3, #512	; 0x200
 8006198:	2202      	movs	r2, #2
 800619a:	2101      	movs	r1, #1
 800619c:	6878      	ldr	r0, [r7, #4]
 800619e:	f001 fe76 	bl	8007e8e <USBD_LL_OpenEP>
 80061a2:	687b      	ldr	r3, [r7, #4]
 80061a4:	2201      	movs	r2, #1
 80061a6:	f8c3 216c 	str.w	r2, [r3, #364]	; 0x16c
 80061aa:	e012      	b.n	80061d2 <USBD_CDC_Init+0x6a>
 80061ac:	2340      	movs	r3, #64	; 0x40
 80061ae:	2202      	movs	r2, #2
 80061b0:	2181      	movs	r1, #129	; 0x81
 80061b2:	6878      	ldr	r0, [r7, #4]
 80061b4:	f001 fe6b 	bl	8007e8e <USBD_LL_OpenEP>
 80061b8:	687b      	ldr	r3, [r7, #4]
 80061ba:	2201      	movs	r2, #1
 80061bc:	62da      	str	r2, [r3, #44]	; 0x2c
 80061be:	2340      	movs	r3, #64	; 0x40
 80061c0:	2202      	movs	r2, #2
 80061c2:	2101      	movs	r1, #1
 80061c4:	6878      	ldr	r0, [r7, #4]
 80061c6:	f001 fe62 	bl	8007e8e <USBD_LL_OpenEP>
 80061ca:	687b      	ldr	r3, [r7, #4]
 80061cc:	2201      	movs	r2, #1
 80061ce:	f8c3 216c 	str.w	r2, [r3, #364]	; 0x16c
 80061d2:	2308      	movs	r3, #8
 80061d4:	2203      	movs	r2, #3
 80061d6:	2182      	movs	r1, #130	; 0x82
 80061d8:	6878      	ldr	r0, [r7, #4]
 80061da:	f001 fe58 	bl	8007e8e <USBD_LL_OpenEP>
 80061de:	687b      	ldr	r3, [r7, #4]
 80061e0:	2201      	movs	r2, #1
 80061e2:	641a      	str	r2, [r3, #64]	; 0x40
 80061e4:	f44f 7007 	mov.w	r0, #540	; 0x21c
 80061e8:	f001 ffa8 	bl	800813c <USBD_static_malloc>
 80061ec:	4602      	mov	r2, r0
 80061ee:	687b      	ldr	r3, [r7, #4]
 80061f0:	f8c3 22b8 	str.w	r2, [r3, #696]	; 0x2b8
 80061f4:	687b      	ldr	r3, [r7, #4]
 80061f6:	f8d3 32b8 	ldr.w	r3, [r3, #696]	; 0x2b8
 80061fa:	2b00      	cmp	r3, #0
 80061fc:	d102      	bne.n	8006204 <USBD_CDC_Init+0x9c>
 80061fe:	2301      	movs	r3, #1
 8006200:	73fb      	strb	r3, [r7, #15]
 8006202:	e026      	b.n	8006252 <USBD_CDC_Init+0xea>
 8006204:	687b      	ldr	r3, [r7, #4]
 8006206:	f8d3 32b8 	ldr.w	r3, [r3, #696]	; 0x2b8
 800620a:	60bb      	str	r3, [r7, #8]
 800620c:	687b      	ldr	r3, [r7, #4]
 800620e:	f8d3 32bc 	ldr.w	r3, [r3, #700]	; 0x2bc
 8006212:	681b      	ldr	r3, [r3, #0]
 8006214:	4798      	blx	r3
 8006216:	68bb      	ldr	r3, [r7, #8]
 8006218:	2200      	movs	r2, #0
 800621a:	f8c3 2214 	str.w	r2, [r3, #532]	; 0x214
 800621e:	68bb      	ldr	r3, [r7, #8]
 8006220:	2200      	movs	r2, #0
 8006222:	f8c3 2218 	str.w	r2, [r3, #536]	; 0x218
 8006226:	687b      	ldr	r3, [r7, #4]
 8006228:	7c1b      	ldrb	r3, [r3, #16]
 800622a:	2b00      	cmp	r3, #0
 800622c:	d109      	bne.n	8006242 <USBD_CDC_Init+0xda>
 800622e:	68bb      	ldr	r3, [r7, #8]
 8006230:	f8d3 2204 	ldr.w	r2, [r3, #516]	; 0x204
 8006234:	f44f 7300 	mov.w	r3, #512	; 0x200
 8006238:	2101      	movs	r1, #1
 800623a:	6878      	ldr	r0, [r7, #4]
 800623c:	f001 ff12 	bl	8008064 <USBD_LL_PrepareReceive>
 8006240:	e007      	b.n	8006252 <USBD_CDC_Init+0xea>
 8006242:	68bb      	ldr	r3, [r7, #8]
 8006244:	f8d3 2204 	ldr.w	r2, [r3, #516]	; 0x204
 8006248:	2340      	movs	r3, #64	; 0x40
 800624a:	2101      	movs	r1, #1
 800624c:	6878      	ldr	r0, [r7, #4]
 800624e:	f001 ff09 	bl	8008064 <USBD_LL_PrepareReceive>
 8006252:	7bfb      	ldrb	r3, [r7, #15]
 8006254:	4618      	mov	r0, r3
 8006256:	3710      	adds	r7, #16
 8006258:	46bd      	mov	sp, r7
 800625a:	bd80      	pop	{r7, pc}

0800625c <USBD_CDC_DeInit>:
 800625c:	b580      	push	{r7, lr}
 800625e:	b084      	sub	sp, #16
 8006260:	af00      	add	r7, sp, #0
 8006262:	6078      	str	r0, [r7, #4]
 8006264:	460b      	mov	r3, r1
 8006266:	70fb      	strb	r3, [r7, #3]
 8006268:	2300      	movs	r3, #0
 800626a:	73fb      	strb	r3, [r7, #15]
 800626c:	2181      	movs	r1, #129	; 0x81
 800626e:	6878      	ldr	r0, [r7, #4]
 8006270:	f001 fe33 	bl	8007eda <USBD_LL_CloseEP>
 8006274:	687b      	ldr	r3, [r7, #4]
 8006276:	2200      	movs	r2, #0
 8006278:	62da      	str	r2, [r3, #44]	; 0x2c
 800627a:	2101      	movs	r1, #1
 800627c:	6878      	ldr	r0, [r7, #4]
 800627e:	f001 fe2c 	bl	8007eda <USBD_LL_CloseEP>
 8006282:	687b      	ldr	r3, [r7, #4]
 8006284:	2200      	movs	r2, #0
 8006286:	f8c3 216c 	str.w	r2, [r3, #364]	; 0x16c
 800628a:	2182      	movs	r1, #130	; 0x82
 800628c:	6878      	ldr	r0, [r7, #4]
 800628e:	f001 fe24 	bl	8007eda <USBD_LL_CloseEP>
 8006292:	687b      	ldr	r3, [r7, #4]
 8006294:	2200      	movs	r2, #0
 8006296:	641a      	str	r2, [r3, #64]	; 0x40
 8006298:	687b      	ldr	r3, [r7, #4]
 800629a:	f8d3 32b8 	ldr.w	r3, [r3, #696]	; 0x2b8
 800629e:	2b00      	cmp	r3, #0
 80062a0:	d00e      	beq.n	80062c0 <USBD_CDC_DeInit+0x64>
 80062a2:	687b      	ldr	r3, [r7, #4]
 80062a4:	f8d3 32bc 	ldr.w	r3, [r3, #700]	; 0x2bc
 80062a8:	685b      	ldr	r3, [r3, #4]
 80062aa:	4798      	blx	r3
 80062ac:	687b      	ldr	r3, [r7, #4]
 80062ae:	f8d3 32b8 	ldr.w	r3, [r3, #696]	; 0x2b8
 80062b2:	4618      	mov	r0, r3
 80062b4:	f001 ff50 	bl	8008158 <USBD_static_free>
 80062b8:	687b      	ldr	r3, [r7, #4]
 80062ba:	2200      	movs	r2, #0
 80062bc:	f8c3 22b8 	str.w	r2, [r3, #696]	; 0x2b8
 80062c0:	7bfb      	ldrb	r3, [r7, #15]
 80062c2:	4618      	mov	r0, r3
 80062c4:	3710      	adds	r7, #16
 80062c6:	46bd      	mov	sp, r7
 80062c8:	bd80      	pop	{r7, pc}

080062ca <USBD_CDC_Setup>:
 80062ca:	b580      	push	{r7, lr}
 80062cc:	b086      	sub	sp, #24
 80062ce:	af00      	add	r7, sp, #0
 80062d0:	6078      	str	r0, [r7, #4]
 80062d2:	6039      	str	r1, [r7, #0]
 80062d4:	687b      	ldr	r3, [r7, #4]
 80062d6:	f8d3 32b8 	ldr.w	r3, [r3, #696]	; 0x2b8
 80062da:	613b      	str	r3, [r7, #16]
 80062dc:	2300      	movs	r3, #0
 80062de:	73fb      	strb	r3, [r7, #15]
 80062e0:	2300      	movs	r3, #0
 80062e2:	81bb      	strh	r3, [r7, #12]
 80062e4:	2300      	movs	r3, #0
 80062e6:	75fb      	strb	r3, [r7, #23]
 80062e8:	683b      	ldr	r3, [r7, #0]
 80062ea:	781b      	ldrb	r3, [r3, #0]
 80062ec:	f003 0360 	and.w	r3, r3, #96	; 0x60
 80062f0:	2b00      	cmp	r3, #0
 80062f2:	d039      	beq.n	8006368 <USBD_CDC_Setup+0x9e>
 80062f4:	2b20      	cmp	r3, #32
 80062f6:	d17c      	bne.n	80063f2 <USBD_CDC_Setup+0x128>
 80062f8:	683b      	ldr	r3, [r7, #0]
 80062fa:	88db      	ldrh	r3, [r3, #6]
 80062fc:	2b00      	cmp	r3, #0
 80062fe:	d029      	beq.n	8006354 <USBD_CDC_Setup+0x8a>
 8006300:	683b      	ldr	r3, [r7, #0]
 8006302:	781b      	ldrb	r3, [r3, #0]
 8006304:	b25b      	sxtb	r3, r3
 8006306:	2b00      	cmp	r3, #0
 8006308:	da11      	bge.n	800632e <USBD_CDC_Setup+0x64>
 800630a:	687b      	ldr	r3, [r7, #4]
 800630c:	f8d3 32bc 	ldr.w	r3, [r3, #700]	; 0x2bc
 8006310:	689b      	ldr	r3, [r3, #8]
 8006312:	683a      	ldr	r2, [r7, #0]
 8006314:	7850      	ldrb	r0, [r2, #1]
 8006316:	6939      	ldr	r1, [r7, #16]
 8006318:	683a      	ldr	r2, [r7, #0]
 800631a:	88d2      	ldrh	r2, [r2, #6]
 800631c:	4798      	blx	r3
 800631e:	6939      	ldr	r1, [r7, #16]
 8006320:	683b      	ldr	r3, [r7, #0]
 8006322:	88db      	ldrh	r3, [r3, #6]
 8006324:	461a      	mov	r2, r3
 8006326:	6878      	ldr	r0, [r7, #4]
 8006328:	f001 f9fa 	bl	8007720 <USBD_CtlSendData>
 800632c:	e068      	b.n	8006400 <USBD_CDC_Setup+0x136>
 800632e:	683b      	ldr	r3, [r7, #0]
 8006330:	785a      	ldrb	r2, [r3, #1]
 8006332:	693b      	ldr	r3, [r7, #16]
 8006334:	f883 2200 	strb.w	r2, [r3, #512]	; 0x200
 8006338:	683b      	ldr	r3, [r7, #0]
 800633a:	88db      	ldrh	r3, [r3, #6]
 800633c:	b2da      	uxtb	r2, r3
 800633e:	693b      	ldr	r3, [r7, #16]
 8006340:	f883 2201 	strb.w	r2, [r3, #513]	; 0x201
 8006344:	6939      	ldr	r1, [r7, #16]
 8006346:	683b      	ldr	r3, [r7, #0]
 8006348:	88db      	ldrh	r3, [r3, #6]
 800634a:	461a      	mov	r2, r3
 800634c:	6878      	ldr	r0, [r7, #4]
 800634e:	f001 fa15 	bl	800777c <USBD_CtlPrepareRx>
 8006352:	e055      	b.n	8006400 <USBD_CDC_Setup+0x136>
 8006354:	687b      	ldr	r3, [r7, #4]
 8006356:	f8d3 32bc 	ldr.w	r3, [r3, #700]	; 0x2bc
 800635a:	689b      	ldr	r3, [r3, #8]
 800635c:	683a      	ldr	r2, [r7, #0]
 800635e:	7850      	ldrb	r0, [r2, #1]
 8006360:	2200      	movs	r2, #0
 8006362:	6839      	ldr	r1, [r7, #0]
 8006364:	4798      	blx	r3
 8006366:	e04b      	b.n	8006400 <USBD_CDC_Setup+0x136>
 8006368:	683b      	ldr	r3, [r7, #0]
 800636a:	785b      	ldrb	r3, [r3, #1]
 800636c:	2b0a      	cmp	r3, #10
 800636e:	d017      	beq.n	80063a0 <USBD_CDC_Setup+0xd6>
 8006370:	2b0b      	cmp	r3, #11
 8006372:	d029      	beq.n	80063c8 <USBD_CDC_Setup+0xfe>
 8006374:	2b00      	cmp	r3, #0
 8006376:	d133      	bne.n	80063e0 <USBD_CDC_Setup+0x116>
 8006378:	687b      	ldr	r3, [r7, #4]
 800637a:	f893 329c 	ldrb.w	r3, [r3, #668]	; 0x29c
 800637e:	2b03      	cmp	r3, #3
 8006380:	d107      	bne.n	8006392 <USBD_CDC_Setup+0xc8>
 8006382:	f107 030c 	add.w	r3, r7, #12
 8006386:	2202      	movs	r2, #2
 8006388:	4619      	mov	r1, r3
 800638a:	6878      	ldr	r0, [r7, #4]
 800638c:	f001 f9c8 	bl	8007720 <USBD_CtlSendData>
 8006390:	e02e      	b.n	80063f0 <USBD_CDC_Setup+0x126>
 8006392:	6839      	ldr	r1, [r7, #0]
 8006394:	6878      	ldr	r0, [r7, #4]
 8006396:	f001 f958 	bl	800764a <USBD_CtlError>
 800639a:	2302      	movs	r3, #2
 800639c:	75fb      	strb	r3, [r7, #23]
 800639e:	e027      	b.n	80063f0 <USBD_CDC_Setup+0x126>
 80063a0:	687b      	ldr	r3, [r7, #4]
 80063a2:	f893 329c 	ldrb.w	r3, [r3, #668]	; 0x29c
 80063a6:	2b03      	cmp	r3, #3
 80063a8:	d107      	bne.n	80063ba <USBD_CDC_Setup+0xf0>
 80063aa:	f107 030f 	add.w	r3, r7, #15
 80063ae:	2201      	movs	r2, #1
 80063b0:	4619      	mov	r1, r3
 80063b2:	6878      	ldr	r0, [r7, #4]
 80063b4:	f001 f9b4 	bl	8007720 <USBD_CtlSendData>
 80063b8:	e01a      	b.n	80063f0 <USBD_CDC_Setup+0x126>
 80063ba:	6839      	ldr	r1, [r7, #0]
 80063bc:	6878      	ldr	r0, [r7, #4]
 80063be:	f001 f944 	bl	800764a <USBD_CtlError>
 80063c2:	2302      	movs	r3, #2
 80063c4:	75fb      	strb	r3, [r7, #23]
 80063c6:	e013      	b.n	80063f0 <USBD_CDC_Setup+0x126>
 80063c8:	687b      	ldr	r3, [r7, #4]
 80063ca:	f893 329c 	ldrb.w	r3, [r3, #668]	; 0x29c
 80063ce:	2b03      	cmp	r3, #3
 80063d0:	d00d      	beq.n	80063ee <USBD_CDC_Setup+0x124>
 80063d2:	6839      	ldr	r1, [r7, #0]
 80063d4:	6878      	ldr	r0, [r7, #4]
 80063d6:	f001 f938 	bl	800764a <USBD_CtlError>
 80063da:	2302      	movs	r3, #2
 80063dc:	75fb      	strb	r3, [r7, #23]
 80063de:	e006      	b.n	80063ee <USBD_CDC_Setup+0x124>
 80063e0:	6839      	ldr	r1, [r7, #0]
 80063e2:	6878      	ldr	r0, [r7, #4]
 80063e4:	f001 f931 	bl	800764a <USBD_CtlError>
 80063e8:	2302      	movs	r3, #2
 80063ea:	75fb      	strb	r3, [r7, #23]
 80063ec:	e000      	b.n	80063f0 <USBD_CDC_Setup+0x126>
 80063ee:	bf00      	nop
 80063f0:	e006      	b.n	8006400 <USBD_CDC_Setup+0x136>
 80063f2:	6839      	ldr	r1, [r7, #0]
 80063f4:	6878      	ldr	r0, [r7, #4]
 80063f6:	f001 f928 	bl	800764a <USBD_CtlError>
 80063fa:	2302      	movs	r3, #2
 80063fc:	75fb      	strb	r3, [r7, #23]
 80063fe:	bf00      	nop
 8006400:	7dfb      	ldrb	r3, [r7, #23]
 8006402:	4618      	mov	r0, r3
 8006404:	3718      	adds	r7, #24
 8006406:	46bd      	mov	sp, r7
 8006408:	bd80      	pop	{r7, pc}

0800640a <USBD_CDC_DataIn>:
 800640a:	b580      	push	{r7, lr}
 800640c:	b084      	sub	sp, #16
 800640e:	af00      	add	r7, sp, #0
 8006410:	6078      	str	r0, [r7, #4]
 8006412:	460b      	mov	r3, r1
 8006414:	70fb      	strb	r3, [r7, #3]
 8006416:	687b      	ldr	r3, [r7, #4]
 8006418:	f8d3 32b8 	ldr.w	r3, [r3, #696]	; 0x2b8
 800641c:	60fb      	str	r3, [r7, #12]
 800641e:	687b      	ldr	r3, [r7, #4]
 8006420:	f8d3 32c0 	ldr.w	r3, [r3, #704]	; 0x2c0
 8006424:	60bb      	str	r3, [r7, #8]
 8006426:	687b      	ldr	r3, [r7, #4]
 8006428:	f8d3 32b8 	ldr.w	r3, [r3, #696]	; 0x2b8
 800642c:	2b00      	cmp	r3, #0
 800642e:	d037      	beq.n	80064a0 <USBD_CDC_DataIn+0x96>
 8006430:	78fa      	ldrb	r2, [r7, #3]
 8006432:	6879      	ldr	r1, [r7, #4]
 8006434:	4613      	mov	r3, r2
 8006436:	009b      	lsls	r3, r3, #2
 8006438:	4413      	add	r3, r2
 800643a:	009b      	lsls	r3, r3, #2
 800643c:	440b      	add	r3, r1
 800643e:	331c      	adds	r3, #28
 8006440:	681b      	ldr	r3, [r3, #0]
 8006442:	2b00      	cmp	r3, #0
 8006444:	d026      	beq.n	8006494 <USBD_CDC_DataIn+0x8a>
 8006446:	78fa      	ldrb	r2, [r7, #3]
 8006448:	6879      	ldr	r1, [r7, #4]
 800644a:	4613      	mov	r3, r2
 800644c:	009b      	lsls	r3, r3, #2
 800644e:	4413      	add	r3, r2
 8006450:	009b      	lsls	r3, r3, #2
 8006452:	440b      	add	r3, r1
 8006454:	331c      	adds	r3, #28
 8006456:	681b      	ldr	r3, [r3, #0]
 8006458:	78fa      	ldrb	r2, [r7, #3]
 800645a:	68b9      	ldr	r1, [r7, #8]
 800645c:	0152      	lsls	r2, r2, #5
 800645e:	440a      	add	r2, r1
 8006460:	3238      	adds	r2, #56	; 0x38
 8006462:	6812      	ldr	r2, [r2, #0]
 8006464:	fbb3 f1f2 	udiv	r1, r3, r2
 8006468:	fb02 f201 	mul.w	r2, r2, r1
 800646c:	1a9b      	subs	r3, r3, r2
 800646e:	2b00      	cmp	r3, #0
 8006470:	d110      	bne.n	8006494 <USBD_CDC_DataIn+0x8a>
 8006472:	78fa      	ldrb	r2, [r7, #3]
 8006474:	6879      	ldr	r1, [r7, #4]
 8006476:	4613      	mov	r3, r2
 8006478:	009b      	lsls	r3, r3, #2
 800647a:	4413      	add	r3, r2
 800647c:	009b      	lsls	r3, r3, #2
 800647e:	440b      	add	r3, r1
 8006480:	331c      	adds	r3, #28
 8006482:	2200      	movs	r2, #0
 8006484:	601a      	str	r2, [r3, #0]
 8006486:	78f9      	ldrb	r1, [r7, #3]
 8006488:	2300      	movs	r3, #0
 800648a:	2200      	movs	r2, #0
 800648c:	6878      	ldr	r0, [r7, #4]
 800648e:	f001 fdc6 	bl	800801e <USBD_LL_Transmit>
 8006492:	e003      	b.n	800649c <USBD_CDC_DataIn+0x92>
 8006494:	68fb      	ldr	r3, [r7, #12]
 8006496:	2200      	movs	r2, #0
 8006498:	f8c3 2214 	str.w	r2, [r3, #532]	; 0x214
 800649c:	2300      	movs	r3, #0
 800649e:	e000      	b.n	80064a2 <USBD_CDC_DataIn+0x98>
 80064a0:	2302      	movs	r3, #2
 80064a2:	4618      	mov	r0, r3
 80064a4:	3710      	adds	r7, #16
 80064a6:	46bd      	mov	sp, r7
 80064a8:	bd80      	pop	{r7, pc}

080064aa <USBD_CDC_DataOut>:
 80064aa:	b580      	push	{r7, lr}
 80064ac:	b084      	sub	sp, #16
 80064ae:	af00      	add	r7, sp, #0
 80064b0:	6078      	str	r0, [r7, #4]
 80064b2:	460b      	mov	r3, r1
 80064b4:	70fb      	strb	r3, [r7, #3]
 80064b6:	687b      	ldr	r3, [r7, #4]
 80064b8:	f8d3 32b8 	ldr.w	r3, [r3, #696]	; 0x2b8
 80064bc:	60fb      	str	r3, [r7, #12]
 80064be:	78fb      	ldrb	r3, [r7, #3]
 80064c0:	4619      	mov	r1, r3
 80064c2:	6878      	ldr	r0, [r7, #4]
 80064c4:	f001 fdf1 	bl	80080aa <USBD_LL_GetRxDataSize>
 80064c8:	4602      	mov	r2, r0
 80064ca:	68fb      	ldr	r3, [r7, #12]
 80064cc:	f8c3 220c 	str.w	r2, [r3, #524]	; 0x20c
 80064d0:	687b      	ldr	r3, [r7, #4]
 80064d2:	f8d3 32b8 	ldr.w	r3, [r3, #696]	; 0x2b8
 80064d6:	2b00      	cmp	r3, #0
 80064d8:	d00d      	beq.n	80064f6 <USBD_CDC_DataOut+0x4c>
 80064da:	687b      	ldr	r3, [r7, #4]
 80064dc:	f8d3 32bc 	ldr.w	r3, [r3, #700]	; 0x2bc
 80064e0:	68db      	ldr	r3, [r3, #12]
 80064e2:	68fa      	ldr	r2, [r7, #12]
 80064e4:	f8d2 0204 	ldr.w	r0, [r2, #516]	; 0x204
 80064e8:	68fa      	ldr	r2, [r7, #12]
 80064ea:	f502 7203 	add.w	r2, r2, #524	; 0x20c
 80064ee:	4611      	mov	r1, r2
 80064f0:	4798      	blx	r3
 80064f2:	2300      	movs	r3, #0
 80064f4:	e000      	b.n	80064f8 <USBD_CDC_DataOut+0x4e>
 80064f6:	2302      	movs	r3, #2
 80064f8:	4618      	mov	r0, r3
 80064fa:	3710      	adds	r7, #16
 80064fc:	46bd      	mov	sp, r7
 80064fe:	bd80      	pop	{r7, pc}

08006500 <USBD_CDC_EP0_RxReady>:
 8006500:	b580      	push	{r7, lr}
 8006502:	b084      	sub	sp, #16
 8006504:	af00      	add	r7, sp, #0
 8006506:	6078      	str	r0, [r7, #4]
 8006508:	687b      	ldr	r3, [r7, #4]
 800650a:	f8d3 32b8 	ldr.w	r3, [r3, #696]	; 0x2b8
 800650e:	60fb      	str	r3, [r7, #12]
 8006510:	687b      	ldr	r3, [r7, #4]
 8006512:	f8d3 32bc 	ldr.w	r3, [r3, #700]	; 0x2bc
 8006516:	2b00      	cmp	r3, #0
 8006518:	d015      	beq.n	8006546 <USBD_CDC_EP0_RxReady+0x46>
 800651a:	68fb      	ldr	r3, [r7, #12]
 800651c:	f893 3200 	ldrb.w	r3, [r3, #512]	; 0x200
 8006520:	2bff      	cmp	r3, #255	; 0xff
 8006522:	d010      	beq.n	8006546 <USBD_CDC_EP0_RxReady+0x46>
 8006524:	687b      	ldr	r3, [r7, #4]
 8006526:	f8d3 32bc 	ldr.w	r3, [r3, #700]	; 0x2bc
 800652a:	689b      	ldr	r3, [r3, #8]
 800652c:	68fa      	ldr	r2, [r7, #12]
 800652e:	f892 0200 	ldrb.w	r0, [r2, #512]	; 0x200
 8006532:	68f9      	ldr	r1, [r7, #12]
 8006534:	68fa      	ldr	r2, [r7, #12]
 8006536:	f892 2201 	ldrb.w	r2, [r2, #513]	; 0x201
 800653a:	b292      	uxth	r2, r2
 800653c:	4798      	blx	r3
 800653e:	68fb      	ldr	r3, [r7, #12]
 8006540:	22ff      	movs	r2, #255	; 0xff
 8006542:	f883 2200 	strb.w	r2, [r3, #512]	; 0x200
 8006546:	2300      	movs	r3, #0
 8006548:	4618      	mov	r0, r3
 800654a:	3710      	adds	r7, #16
 800654c:	46bd      	mov	sp, r7
 800654e:	bd80      	pop	{r7, pc}

08006550 <USBD_CDC_GetFSCfgDesc>:
 8006550:	b480      	push	{r7}
 8006552:	b083      	sub	sp, #12
 8006554:	af00      	add	r7, sp, #0
 8006556:	6078      	str	r0, [r7, #4]
 8006558:	687b      	ldr	r3, [r7, #4]
 800655a:	2243      	movs	r2, #67	; 0x43
 800655c:	801a      	strh	r2, [r3, #0]
 800655e:	4b03      	ldr	r3, [pc, #12]	; (800656c <USBD_CDC_GetFSCfgDesc+0x1c>)
 8006560:	4618      	mov	r0, r3
 8006562:	370c      	adds	r7, #12
 8006564:	46bd      	mov	sp, r7
 8006566:	f85d 7b04 	ldr.w	r7, [sp], #4
 800656a:	4770      	bx	lr
 800656c:	20000094 	.word	0x20000094

08006570 <USBD_CDC_GetHSCfgDesc>:
 8006570:	b480      	push	{r7}
 8006572:	b083      	sub	sp, #12
 8006574:	af00      	add	r7, sp, #0
 8006576:	6078      	str	r0, [r7, #4]
 8006578:	687b      	ldr	r3, [r7, #4]
 800657a:	2243      	movs	r2, #67	; 0x43
 800657c:	801a      	strh	r2, [r3, #0]
 800657e:	4b03      	ldr	r3, [pc, #12]	; (800658c <USBD_CDC_GetHSCfgDesc+0x1c>)
 8006580:	4618      	mov	r0, r3
 8006582:	370c      	adds	r7, #12
 8006584:	46bd      	mov	sp, r7
 8006586:	f85d 7b04 	ldr.w	r7, [sp], #4
 800658a:	4770      	bx	lr
 800658c:	20000050 	.word	0x20000050

08006590 <USBD_CDC_GetOtherSpeedCfgDesc>:
 8006590:	b480      	push	{r7}
 8006592:	b083      	sub	sp, #12
 8006594:	af00      	add	r7, sp, #0
 8006596:	6078      	str	r0, [r7, #4]
 8006598:	687b      	ldr	r3, [r7, #4]
 800659a:	2243      	movs	r2, #67	; 0x43
 800659c:	801a      	strh	r2, [r3, #0]
 800659e:	4b03      	ldr	r3, [pc, #12]	; (80065ac <USBD_CDC_GetOtherSpeedCfgDesc+0x1c>)
 80065a0:	4618      	mov	r0, r3
 80065a2:	370c      	adds	r7, #12
 80065a4:	46bd      	mov	sp, r7
 80065a6:	f85d 7b04 	ldr.w	r7, [sp], #4
 80065aa:	4770      	bx	lr
 80065ac:	200000d8 	.word	0x200000d8

080065b0 <USBD_CDC_GetDeviceQualifierDescriptor>:
 80065b0:	b480      	push	{r7}
 80065b2:	b083      	sub	sp, #12
 80065b4:	af00      	add	r7, sp, #0
 80065b6:	6078      	str	r0, [r7, #4]
 80065b8:	687b      	ldr	r3, [r7, #4]
 80065ba:	220a      	movs	r2, #10
 80065bc:	801a      	strh	r2, [r3, #0]
 80065be:	4b03      	ldr	r3, [pc, #12]	; (80065cc <USBD_CDC_GetDeviceQualifierDescriptor+0x1c>)
 80065c0:	4618      	mov	r0, r3
 80065c2:	370c      	adds	r7, #12
 80065c4:	46bd      	mov	sp, r7
 80065c6:	f85d 7b04 	ldr.w	r7, [sp], #4
 80065ca:	4770      	bx	lr
 80065cc:	2000000c 	.word	0x2000000c

080065d0 <USBD_CDC_RegisterInterface>:
 80065d0:	b480      	push	{r7}
 80065d2:	b085      	sub	sp, #20
 80065d4:	af00      	add	r7, sp, #0
 80065d6:	6078      	str	r0, [r7, #4]
 80065d8:	6039      	str	r1, [r7, #0]
 80065da:	2302      	movs	r3, #2
 80065dc:	73fb      	strb	r3, [r7, #15]
 80065de:	683b      	ldr	r3, [r7, #0]
 80065e0:	2b00      	cmp	r3, #0
 80065e2:	d005      	beq.n	80065f0 <USBD_CDC_RegisterInterface+0x20>
 80065e4:	687b      	ldr	r3, [r7, #4]
 80065e6:	683a      	ldr	r2, [r7, #0]
 80065e8:	f8c3 22bc 	str.w	r2, [r3, #700]	; 0x2bc
 80065ec:	2300      	movs	r3, #0
 80065ee:	73fb      	strb	r3, [r7, #15]
 80065f0:	7bfb      	ldrb	r3, [r7, #15]
 80065f2:	4618      	mov	r0, r3
 80065f4:	3714      	adds	r7, #20
 80065f6:	46bd      	mov	sp, r7
 80065f8:	f85d 7b04 	ldr.w	r7, [sp], #4
 80065fc:	4770      	bx	lr

080065fe <USBD_CDC_SetTxBuffer>:
 80065fe:	b480      	push	{r7}
 8006600:	b087      	sub	sp, #28
 8006602:	af00      	add	r7, sp, #0
 8006604:	60f8      	str	r0, [r7, #12]
 8006606:	60b9      	str	r1, [r7, #8]
 8006608:	4613      	mov	r3, r2
 800660a:	80fb      	strh	r3, [r7, #6]
 800660c:	68fb      	ldr	r3, [r7, #12]
 800660e:	f8d3 32b8 	ldr.w	r3, [r3, #696]	; 0x2b8
 8006612:	617b      	str	r3, [r7, #20]
 8006614:	697b      	ldr	r3, [r7, #20]
 8006616:	68ba      	ldr	r2, [r7, #8]
 8006618:	f8c3 2208 	str.w	r2, [r3, #520]	; 0x208
 800661c:	88fa      	ldrh	r2, [r7, #6]
 800661e:	697b      	ldr	r3, [r7, #20]
 8006620:	f8c3 2210 	str.w	r2, [r3, #528]	; 0x210
 8006624:	2300      	movs	r3, #0
 8006626:	4618      	mov	r0, r3
 8006628:	371c      	adds	r7, #28
 800662a:	46bd      	mov	sp, r7
 800662c:	f85d 7b04 	ldr.w	r7, [sp], #4
 8006630:	4770      	bx	lr

08006632 <USBD_CDC_SetRxBuffer>:
 8006632:	b480      	push	{r7}
 8006634:	b085      	sub	sp, #20
 8006636:	af00      	add	r7, sp, #0
 8006638:	6078      	str	r0, [r7, #4]
 800663a:	6039      	str	r1, [r7, #0]
 800663c:	687b      	ldr	r3, [r7, #4]
 800663e:	f8d3 32b8 	ldr.w	r3, [r3, #696]	; 0x2b8
 8006642:	60fb      	str	r3, [r7, #12]
 8006644:	68fb      	ldr	r3, [r7, #12]
 8006646:	683a      	ldr	r2, [r7, #0]
 8006648:	f8c3 2204 	str.w	r2, [r3, #516]	; 0x204
 800664c:	2300      	movs	r3, #0
 800664e:	4618      	mov	r0, r3
 8006650:	3714      	adds	r7, #20
 8006652:	46bd      	mov	sp, r7
 8006654:	f85d 7b04 	ldr.w	r7, [sp], #4
 8006658:	4770      	bx	lr

0800665a <USBD_CDC_ReceivePacket>:
 800665a:	b580      	push	{r7, lr}
 800665c:	b084      	sub	sp, #16
 800665e:	af00      	add	r7, sp, #0
 8006660:	6078      	str	r0, [r7, #4]
 8006662:	687b      	ldr	r3, [r7, #4]
 8006664:	f8d3 32b8 	ldr.w	r3, [r3, #696]	; 0x2b8
 8006668:	60fb      	str	r3, [r7, #12]
 800666a:	687b      	ldr	r3, [r7, #4]
 800666c:	f8d3 32b8 	ldr.w	r3, [r3, #696]	; 0x2b8
 8006670:	2b00      	cmp	r3, #0
 8006672:	d017      	beq.n	80066a4 <USBD_CDC_ReceivePacket+0x4a>
 8006674:	687b      	ldr	r3, [r7, #4]
 8006676:	7c1b      	ldrb	r3, [r3, #16]
 8006678:	2b00      	cmp	r3, #0
 800667a:	d109      	bne.n	8006690 <USBD_CDC_ReceivePacket+0x36>
 800667c:	68fb      	ldr	r3, [r7, #12]
 800667e:	f8d3 2204 	ldr.w	r2, [r3, #516]	; 0x204
 8006682:	f44f 7300 	mov.w	r3, #512	; 0x200
 8006686:	2101      	movs	r1, #1
 8006688:	6878      	ldr	r0, [r7, #4]
 800668a:	f001 fceb 	bl	8008064 <USBD_LL_PrepareReceive>
 800668e:	e007      	b.n	80066a0 <USBD_CDC_ReceivePacket+0x46>
 8006690:	68fb      	ldr	r3, [r7, #12]
 8006692:	f8d3 2204 	ldr.w	r2, [r3, #516]	; 0x204
 8006696:	2340      	movs	r3, #64	; 0x40
 8006698:	2101      	movs	r1, #1
 800669a:	6878      	ldr	r0, [r7, #4]
 800669c:	f001 fce2 	bl	8008064 <USBD_LL_PrepareReceive>
 80066a0:	2300      	movs	r3, #0
 80066a2:	e000      	b.n	80066a6 <USBD_CDC_ReceivePacket+0x4c>
 80066a4:	2302      	movs	r3, #2
 80066a6:	4618      	mov	r0, r3
 80066a8:	3710      	adds	r7, #16
 80066aa:	46bd      	mov	sp, r7
 80066ac:	bd80      	pop	{r7, pc}

080066ae <USBD_Init>:
 80066ae:	b580      	push	{r7, lr}
 80066b0:	b084      	sub	sp, #16
 80066b2:	af00      	add	r7, sp, #0
 80066b4:	60f8      	str	r0, [r7, #12]
 80066b6:	60b9      	str	r1, [r7, #8]
 80066b8:	4613      	mov	r3, r2
 80066ba:	71fb      	strb	r3, [r7, #7]
 80066bc:	68fb      	ldr	r3, [r7, #12]
 80066be:	2b00      	cmp	r3, #0
 80066c0:	d101      	bne.n	80066c6 <USBD_Init+0x18>
 80066c2:	2302      	movs	r3, #2
 80066c4:	e01a      	b.n	80066fc <USBD_Init+0x4e>
 80066c6:	68fb      	ldr	r3, [r7, #12]
 80066c8:	f8d3 32b4 	ldr.w	r3, [r3, #692]	; 0x2b4
 80066cc:	2b00      	cmp	r3, #0
 80066ce:	d003      	beq.n	80066d8 <USBD_Init+0x2a>
 80066d0:	68fb      	ldr	r3, [r7, #12]
 80066d2:	2200      	movs	r2, #0
 80066d4:	f8c3 22b4 	str.w	r2, [r3, #692]	; 0x2b4
 80066d8:	68bb      	ldr	r3, [r7, #8]
 80066da:	2b00      	cmp	r3, #0
 80066dc:	d003      	beq.n	80066e6 <USBD_Init+0x38>
 80066de:	68fb      	ldr	r3, [r7, #12]
 80066e0:	68ba      	ldr	r2, [r7, #8]
 80066e2:	f8c3 22b0 	str.w	r2, [r3, #688]	; 0x2b0
 80066e6:	68fb      	ldr	r3, [r7, #12]
 80066e8:	2201      	movs	r2, #1
 80066ea:	f883 229c 	strb.w	r2, [r3, #668]	; 0x29c
 80066ee:	68fb      	ldr	r3, [r7, #12]
 80066f0:	79fa      	ldrb	r2, [r7, #7]
 80066f2:	701a      	strb	r2, [r3, #0]
 80066f4:	68f8      	ldr	r0, [r7, #12]
 80066f6:	f001 fb4f 	bl	8007d98 <USBD_LL_Init>
 80066fa:	2300      	movs	r3, #0
 80066fc:	4618      	mov	r0, r3
 80066fe:	3710      	adds	r7, #16
 8006700:	46bd      	mov	sp, r7
 8006702:	bd80      	pop	{r7, pc}

08006704 <USBD_RegisterClass>:
 8006704:	b480      	push	{r7}
 8006706:	b085      	sub	sp, #20
 8006708:	af00      	add	r7, sp, #0
 800670a:	6078      	str	r0, [r7, #4]
 800670c:	6039      	str	r1, [r7, #0]
 800670e:	2300      	movs	r3, #0
 8006710:	73fb      	strb	r3, [r7, #15]
 8006712:	683b      	ldr	r3, [r7, #0]
 8006714:	2b00      	cmp	r3, #0
 8006716:	d006      	beq.n	8006726 <USBD_RegisterClass+0x22>
 8006718:	687b      	ldr	r3, [r7, #4]
 800671a:	683a      	ldr	r2, [r7, #0]
 800671c:	f8c3 22b4 	str.w	r2, [r3, #692]	; 0x2b4
 8006720:	2300      	movs	r3, #0
 8006722:	73fb      	strb	r3, [r7, #15]
 8006724:	e001      	b.n	800672a <USBD_RegisterClass+0x26>
 8006726:	2302      	movs	r3, #2
 8006728:	73fb      	strb	r3, [r7, #15]
 800672a:	7bfb      	ldrb	r3, [r7, #15]
 800672c:	4618      	mov	r0, r3
 800672e:	3714      	adds	r7, #20
 8006730:	46bd      	mov	sp, r7
 8006732:	f85d 7b04 	ldr.w	r7, [sp], #4
 8006736:	4770      	bx	lr

08006738 <USBD_Start>:
 8006738:	b580      	push	{r7, lr}
 800673a:	b082      	sub	sp, #8
 800673c:	af00      	add	r7, sp, #0
 800673e:	6078      	str	r0, [r7, #4]
 8006740:	6878      	ldr	r0, [r7, #4]
 8006742:	f001 fb89 	bl	8007e58 <USBD_LL_Start>
 8006746:	2300      	movs	r3, #0
 8006748:	4618      	mov	r0, r3
 800674a:	3708      	adds	r7, #8
 800674c:	46bd      	mov	sp, r7
 800674e:	bd80      	pop	{r7, pc}

08006750 <USBD_RunTestMode>:
 8006750:	b480      	push	{r7}
 8006752:	b083      	sub	sp, #12
 8006754:	af00      	add	r7, sp, #0
 8006756:	6078      	str	r0, [r7, #4]
 8006758:	2300      	movs	r3, #0
 800675a:	4618      	mov	r0, r3
 800675c:	370c      	adds	r7, #12
 800675e:	46bd      	mov	sp, r7
 8006760:	f85d 7b04 	ldr.w	r7, [sp], #4
 8006764:	4770      	bx	lr

08006766 <USBD_SetClassConfig>:
 8006766:	b580      	push	{r7, lr}
 8006768:	b084      	sub	sp, #16
 800676a:	af00      	add	r7, sp, #0
 800676c:	6078      	str	r0, [r7, #4]
 800676e:	460b      	mov	r3, r1
 8006770:	70fb      	strb	r3, [r7, #3]
 8006772:	2302      	movs	r3, #2
 8006774:	73fb      	strb	r3, [r7, #15]
 8006776:	687b      	ldr	r3, [r7, #4]
 8006778:	f8d3 32b4 	ldr.w	r3, [r3, #692]	; 0x2b4
 800677c:	2b00      	cmp	r3, #0
 800677e:	d00c      	beq.n	800679a <USBD_SetClassConfig+0x34>
 8006780:	687b      	ldr	r3, [r7, #4]
 8006782:	f8d3 32b4 	ldr.w	r3, [r3, #692]	; 0x2b4
 8006786:	681b      	ldr	r3, [r3, #0]
 8006788:	78fa      	ldrb	r2, [r7, #3]
 800678a:	4611      	mov	r1, r2
 800678c:	6878      	ldr	r0, [r7, #4]
 800678e:	4798      	blx	r3
 8006790:	4603      	mov	r3, r0
 8006792:	2b00      	cmp	r3, #0
 8006794:	d101      	bne.n	800679a <USBD_SetClassConfig+0x34>
 8006796:	2300      	movs	r3, #0
 8006798:	73fb      	strb	r3, [r7, #15]
 800679a:	7bfb      	ldrb	r3, [r7, #15]
 800679c:	4618      	mov	r0, r3
 800679e:	3710      	adds	r7, #16
 80067a0:	46bd      	mov	sp, r7
 80067a2:	bd80      	pop	{r7, pc}

080067a4 <USBD_ClrClassConfig>:
 80067a4:	b580      	push	{r7, lr}
 80067a6:	b082      	sub	sp, #8
 80067a8:	af00      	add	r7, sp, #0
 80067aa:	6078      	str	r0, [r7, #4]
 80067ac:	460b      	mov	r3, r1
 80067ae:	70fb      	strb	r3, [r7, #3]
 80067b0:	687b      	ldr	r3, [r7, #4]
 80067b2:	f8d3 32b4 	ldr.w	r3, [r3, #692]	; 0x2b4
 80067b6:	685b      	ldr	r3, [r3, #4]
 80067b8:	78fa      	ldrb	r2, [r7, #3]
 80067ba:	4611      	mov	r1, r2
 80067bc:	6878      	ldr	r0, [r7, #4]
 80067be:	4798      	blx	r3
 80067c0:	2300      	movs	r3, #0
 80067c2:	4618      	mov	r0, r3
 80067c4:	3708      	adds	r7, #8
 80067c6:	46bd      	mov	sp, r7
 80067c8:	bd80      	pop	{r7, pc}

080067ca <USBD_LL_SetupStage>:
 80067ca:	b580      	push	{r7, lr}
 80067cc:	b082      	sub	sp, #8
 80067ce:	af00      	add	r7, sp, #0
 80067d0:	6078      	str	r0, [r7, #4]
 80067d2:	6039      	str	r1, [r7, #0]
 80067d4:	687b      	ldr	r3, [r7, #4]
 80067d6:	f503 732a 	add.w	r3, r3, #680	; 0x2a8
 80067da:	6839      	ldr	r1, [r7, #0]
 80067dc:	4618      	mov	r0, r3
 80067de:	f000 fef7 	bl	80075d0 <USBD_ParseSetupRequest>
 80067e2:	687b      	ldr	r3, [r7, #4]
 80067e4:	2201      	movs	r2, #1
 80067e6:	f8c3 2294 	str.w	r2, [r3, #660]	; 0x294
 80067ea:	687b      	ldr	r3, [r7, #4]
 80067ec:	f8b3 32ae 	ldrh.w	r3, [r3, #686]	; 0x2ae
 80067f0:	461a      	mov	r2, r3
 80067f2:	687b      	ldr	r3, [r7, #4]
 80067f4:	f8c3 2298 	str.w	r2, [r3, #664]	; 0x298
 80067f8:	687b      	ldr	r3, [r7, #4]
 80067fa:	f893 32a8 	ldrb.w	r3, [r3, #680]	; 0x2a8
 80067fe:	f003 031f 	and.w	r3, r3, #31
 8006802:	2b01      	cmp	r3, #1
 8006804:	d00c      	beq.n	8006820 <USBD_LL_SetupStage+0x56>
 8006806:	2b01      	cmp	r3, #1
 8006808:	d302      	bcc.n	8006810 <USBD_LL_SetupStage+0x46>
 800680a:	2b02      	cmp	r3, #2
 800680c:	d010      	beq.n	8006830 <USBD_LL_SetupStage+0x66>
 800680e:	e017      	b.n	8006840 <USBD_LL_SetupStage+0x76>
 8006810:	687b      	ldr	r3, [r7, #4]
 8006812:	f503 732a 	add.w	r3, r3, #680	; 0x2a8
 8006816:	4619      	mov	r1, r3
 8006818:	6878      	ldr	r0, [r7, #4]
 800681a:	f000 f9cd 	bl	8006bb8 <USBD_StdDevReq>
 800681e:	e01a      	b.n	8006856 <USBD_LL_SetupStage+0x8c>
 8006820:	687b      	ldr	r3, [r7, #4]
 8006822:	f503 732a 	add.w	r3, r3, #680	; 0x2a8
 8006826:	4619      	mov	r1, r3
 8006828:	6878      	ldr	r0, [r7, #4]
 800682a:	f000 fa2f 	bl	8006c8c <USBD_StdItfReq>
 800682e:	e012      	b.n	8006856 <USBD_LL_SetupStage+0x8c>
 8006830:	687b      	ldr	r3, [r7, #4]
 8006832:	f503 732a 	add.w	r3, r3, #680	; 0x2a8
 8006836:	4619      	mov	r1, r3
 8006838:	6878      	ldr	r0, [r7, #4]
 800683a:	f000 fa6d 	bl	8006d18 <USBD_StdEPReq>
 800683e:	e00a      	b.n	8006856 <USBD_LL_SetupStage+0x8c>
 8006840:	687b      	ldr	r3, [r7, #4]
 8006842:	f893 32a8 	ldrb.w	r3, [r3, #680]	; 0x2a8
 8006846:	f023 037f 	bic.w	r3, r3, #127	; 0x7f
 800684a:	b2db      	uxtb	r3, r3
 800684c:	4619      	mov	r1, r3
 800684e:	6878      	ldr	r0, [r7, #4]
 8006850:	f001 fb62 	bl	8007f18 <USBD_LL_StallEP>
 8006854:	bf00      	nop
 8006856:	2300      	movs	r3, #0
 8006858:	4618      	mov	r0, r3
 800685a:	3708      	adds	r7, #8
 800685c:	46bd      	mov	sp, r7
 800685e:	bd80      	pop	{r7, pc}

08006860 <USBD_LL_DataOutStage>:
 8006860:	b580      	push	{r7, lr}
 8006862:	b086      	sub	sp, #24
 8006864:	af00      	add	r7, sp, #0
 8006866:	60f8      	str	r0, [r7, #12]
 8006868:	460b      	mov	r3, r1
 800686a:	607a      	str	r2, [r7, #4]
 800686c:	72fb      	strb	r3, [r7, #11]
 800686e:	7afb      	ldrb	r3, [r7, #11]
 8006870:	2b00      	cmp	r3, #0
 8006872:	d14b      	bne.n	800690c <USBD_LL_DataOutStage+0xac>
 8006874:	68fb      	ldr	r3, [r7, #12]
 8006876:	f503 73aa 	add.w	r3, r3, #340	; 0x154
 800687a:	617b      	str	r3, [r7, #20]
 800687c:	68fb      	ldr	r3, [r7, #12]
 800687e:	f8d3 3294 	ldr.w	r3, [r3, #660]	; 0x294
 8006882:	2b03      	cmp	r3, #3
 8006884:	d134      	bne.n	80068f0 <USBD_LL_DataOutStage+0x90>
 8006886:	697b      	ldr	r3, [r7, #20]
 8006888:	68da      	ldr	r2, [r3, #12]
 800688a:	697b      	ldr	r3, [r7, #20]
 800688c:	691b      	ldr	r3, [r3, #16]
 800688e:	429a      	cmp	r2, r3
 8006890:	d919      	bls.n	80068c6 <USBD_LL_DataOutStage+0x66>
 8006892:	697b      	ldr	r3, [r7, #20]
 8006894:	68da      	ldr	r2, [r3, #12]
 8006896:	697b      	ldr	r3, [r7, #20]
 8006898:	691b      	ldr	r3, [r3, #16]
 800689a:	1ad2      	subs	r2, r2, r3
 800689c:	697b      	ldr	r3, [r7, #20]
 800689e:	60da      	str	r2, [r3, #12]
 80068a0:	697b      	ldr	r3, [r7, #20]
 80068a2:	68da      	ldr	r2, [r3, #12]
 80068a4:	697b      	ldr	r3, [r7, #20]
 80068a6:	691b      	ldr	r3, [r3, #16]
 80068a8:	429a      	cmp	r2, r3
 80068aa:	d203      	bcs.n	80068b4 <USBD_LL_DataOutStage+0x54>
 80068ac:	697b      	ldr	r3, [r7, #20]
 80068ae:	68db      	ldr	r3, [r3, #12]
 80068b0:	b29b      	uxth	r3, r3
 80068b2:	e002      	b.n	80068ba <USBD_LL_DataOutStage+0x5a>
 80068b4:	697b      	ldr	r3, [r7, #20]
 80068b6:	691b      	ldr	r3, [r3, #16]
 80068b8:	b29b      	uxth	r3, r3
 80068ba:	461a      	mov	r2, r3
 80068bc:	6879      	ldr	r1, [r7, #4]
 80068be:	68f8      	ldr	r0, [r7, #12]
 80068c0:	f000 ff7a 	bl	80077b8 <USBD_CtlContinueRx>
 80068c4:	e038      	b.n	8006938 <USBD_LL_DataOutStage+0xd8>
 80068c6:	68fb      	ldr	r3, [r7, #12]
 80068c8:	f8d3 32b4 	ldr.w	r3, [r3, #692]	; 0x2b4
 80068cc:	691b      	ldr	r3, [r3, #16]
 80068ce:	2b00      	cmp	r3, #0
 80068d0:	d00a      	beq.n	80068e8 <USBD_LL_DataOutStage+0x88>
 80068d2:	68fb      	ldr	r3, [r7, #12]
 80068d4:	f893 329c 	ldrb.w	r3, [r3, #668]	; 0x29c
 80068d8:	2b03      	cmp	r3, #3
 80068da:	d105      	bne.n	80068e8 <USBD_LL_DataOutStage+0x88>
 80068dc:	68fb      	ldr	r3, [r7, #12]
 80068de:	f8d3 32b4 	ldr.w	r3, [r3, #692]	; 0x2b4
 80068e2:	691b      	ldr	r3, [r3, #16]
 80068e4:	68f8      	ldr	r0, [r7, #12]
 80068e6:	4798      	blx	r3
 80068e8:	68f8      	ldr	r0, [r7, #12]
 80068ea:	f000 ff77 	bl	80077dc <USBD_CtlSendStatus>
 80068ee:	e023      	b.n	8006938 <USBD_LL_DataOutStage+0xd8>
 80068f0:	68fb      	ldr	r3, [r7, #12]
 80068f2:	f8d3 3294 	ldr.w	r3, [r3, #660]	; 0x294
 80068f6:	2b05      	cmp	r3, #5
 80068f8:	d11e      	bne.n	8006938 <USBD_LL_DataOutStage+0xd8>
 80068fa:	68fb      	ldr	r3, [r7, #12]
 80068fc:	2200      	movs	r2, #0
 80068fe:	f8c3 2294 	str.w	r2, [r3, #660]	; 0x294
 8006902:	2100      	movs	r1, #0
 8006904:	68f8      	ldr	r0, [r7, #12]
 8006906:	f001 fb07 	bl	8007f18 <USBD_LL_StallEP>
 800690a:	e015      	b.n	8006938 <USBD_LL_DataOutStage+0xd8>
 800690c:	68fb      	ldr	r3, [r7, #12]
 800690e:	f8d3 32b4 	ldr.w	r3, [r3, #692]	; 0x2b4
 8006912:	699b      	ldr	r3, [r3, #24]
 8006914:	2b00      	cmp	r3, #0
 8006916:	d00d      	beq.n	8006934 <USBD_LL_DataOutStage+0xd4>
 8006918:	68fb      	ldr	r3, [r7, #12]
 800691a:	f893 329c 	ldrb.w	r3, [r3, #668]	; 0x29c
 800691e:	2b03      	cmp	r3, #3
 8006920:	d108      	bne.n	8006934 <USBD_LL_DataOutStage+0xd4>
 8006922:	68fb      	ldr	r3, [r7, #12]
 8006924:	f8d3 32b4 	ldr.w	r3, [r3, #692]	; 0x2b4
 8006928:	699b      	ldr	r3, [r3, #24]
 800692a:	7afa      	ldrb	r2, [r7, #11]
 800692c:	4611      	mov	r1, r2
 800692e:	68f8      	ldr	r0, [r7, #12]
 8006930:	4798      	blx	r3
 8006932:	e001      	b.n	8006938 <USBD_LL_DataOutStage+0xd8>
 8006934:	2302      	movs	r3, #2
 8006936:	e000      	b.n	800693a <USBD_LL_DataOutStage+0xda>
 8006938:	2300      	movs	r3, #0
 800693a:	4618      	mov	r0, r3
 800693c:	3718      	adds	r7, #24
 800693e:	46bd      	mov	sp, r7
 8006940:	bd80      	pop	{r7, pc}

08006942 <USBD_LL_DataInStage>:
 8006942:	b580      	push	{r7, lr}
 8006944:	b086      	sub	sp, #24
 8006946:	af00      	add	r7, sp, #0
 8006948:	60f8      	str	r0, [r7, #12]
 800694a:	460b      	mov	r3, r1
 800694c:	607a      	str	r2, [r7, #4]
 800694e:	72fb      	strb	r3, [r7, #11]
 8006950:	7afb      	ldrb	r3, [r7, #11]
 8006952:	2b00      	cmp	r3, #0
 8006954:	d17f      	bne.n	8006a56 <USBD_LL_DataInStage+0x114>
 8006956:	68fb      	ldr	r3, [r7, #12]
 8006958:	3314      	adds	r3, #20
 800695a:	617b      	str	r3, [r7, #20]
 800695c:	68fb      	ldr	r3, [r7, #12]
 800695e:	f8d3 3294 	ldr.w	r3, [r3, #660]	; 0x294
 8006962:	2b02      	cmp	r3, #2
 8006964:	d15c      	bne.n	8006a20 <USBD_LL_DataInStage+0xde>
 8006966:	697b      	ldr	r3, [r7, #20]
 8006968:	68da      	ldr	r2, [r3, #12]
 800696a:	697b      	ldr	r3, [r7, #20]
 800696c:	691b      	ldr	r3, [r3, #16]
 800696e:	429a      	cmp	r2, r3
 8006970:	d915      	bls.n	800699e <USBD_LL_DataInStage+0x5c>
 8006972:	697b      	ldr	r3, [r7, #20]
 8006974:	68da      	ldr	r2, [r3, #12]
 8006976:	697b      	ldr	r3, [r7, #20]
 8006978:	691b      	ldr	r3, [r3, #16]
 800697a:	1ad2      	subs	r2, r2, r3
 800697c:	697b      	ldr	r3, [r7, #20]
 800697e:	60da      	str	r2, [r3, #12]
 8006980:	697b      	ldr	r3, [r7, #20]
 8006982:	68db      	ldr	r3, [r3, #12]
 8006984:	b29b      	uxth	r3, r3
 8006986:	461a      	mov	r2, r3
 8006988:	6879      	ldr	r1, [r7, #4]
 800698a:	68f8      	ldr	r0, [r7, #12]
 800698c:	f000 fee4 	bl	8007758 <USBD_CtlContinueSendData>
 8006990:	2300      	movs	r3, #0
 8006992:	2200      	movs	r2, #0
 8006994:	2100      	movs	r1, #0
 8006996:	68f8      	ldr	r0, [r7, #12]
 8006998:	f001 fb64 	bl	8008064 <USBD_LL_PrepareReceive>
 800699c:	e04e      	b.n	8006a3c <USBD_LL_DataInStage+0xfa>
 800699e:	697b      	ldr	r3, [r7, #20]
 80069a0:	689b      	ldr	r3, [r3, #8]
 80069a2:	697a      	ldr	r2, [r7, #20]
 80069a4:	6912      	ldr	r2, [r2, #16]
 80069a6:	fbb3 f1f2 	udiv	r1, r3, r2
 80069aa:	fb02 f201 	mul.w	r2, r2, r1
 80069ae:	1a9b      	subs	r3, r3, r2
 80069b0:	2b00      	cmp	r3, #0
 80069b2:	d11c      	bne.n	80069ee <USBD_LL_DataInStage+0xac>
 80069b4:	697b      	ldr	r3, [r7, #20]
 80069b6:	689a      	ldr	r2, [r3, #8]
 80069b8:	697b      	ldr	r3, [r7, #20]
 80069ba:	691b      	ldr	r3, [r3, #16]
 80069bc:	429a      	cmp	r2, r3
 80069be:	d316      	bcc.n	80069ee <USBD_LL_DataInStage+0xac>
 80069c0:	697b      	ldr	r3, [r7, #20]
 80069c2:	689a      	ldr	r2, [r3, #8]
 80069c4:	68fb      	ldr	r3, [r7, #12]
 80069c6:	f8d3 3298 	ldr.w	r3, [r3, #664]	; 0x298
 80069ca:	429a      	cmp	r2, r3
 80069cc:	d20f      	bcs.n	80069ee <USBD_LL_DataInStage+0xac>
 80069ce:	2200      	movs	r2, #0
 80069d0:	2100      	movs	r1, #0
 80069d2:	68f8      	ldr	r0, [r7, #12]
 80069d4:	f000 fec0 	bl	8007758 <USBD_CtlContinueSendData>
 80069d8:	68fb      	ldr	r3, [r7, #12]
 80069da:	2200      	movs	r2, #0
 80069dc:	f8c3 2298 	str.w	r2, [r3, #664]	; 0x298
 80069e0:	2300      	movs	r3, #0
 80069e2:	2200      	movs	r2, #0
 80069e4:	2100      	movs	r1, #0
 80069e6:	68f8      	ldr	r0, [r7, #12]
 80069e8:	f001 fb3c 	bl	8008064 <USBD_LL_PrepareReceive>
 80069ec:	e026      	b.n	8006a3c <USBD_LL_DataInStage+0xfa>
 80069ee:	68fb      	ldr	r3, [r7, #12]
 80069f0:	f8d3 32b4 	ldr.w	r3, [r3, #692]	; 0x2b4
 80069f4:	68db      	ldr	r3, [r3, #12]
 80069f6:	2b00      	cmp	r3, #0
 80069f8:	d00a      	beq.n	8006a10 <USBD_LL_DataInStage+0xce>
 80069fa:	68fb      	ldr	r3, [r7, #12]
 80069fc:	f893 329c 	ldrb.w	r3, [r3, #668]	; 0x29c
 8006a00:	2b03      	cmp	r3, #3
 8006a02:	d105      	bne.n	8006a10 <USBD_LL_DataInStage+0xce>
 8006a04:	68fb      	ldr	r3, [r7, #12]
 8006a06:	f8d3 32b4 	ldr.w	r3, [r3, #692]	; 0x2b4
 8006a0a:	68db      	ldr	r3, [r3, #12]
 8006a0c:	68f8      	ldr	r0, [r7, #12]
 8006a0e:	4798      	blx	r3
 8006a10:	2180      	movs	r1, #128	; 0x80
 8006a12:	68f8      	ldr	r0, [r7, #12]
 8006a14:	f001 fa80 	bl	8007f18 <USBD_LL_StallEP>
 8006a18:	68f8      	ldr	r0, [r7, #12]
 8006a1a:	f000 fef2 	bl	8007802 <USBD_CtlReceiveStatus>
 8006a1e:	e00d      	b.n	8006a3c <USBD_LL_DataInStage+0xfa>
 8006a20:	68fb      	ldr	r3, [r7, #12]
 8006a22:	f8d3 3294 	ldr.w	r3, [r3, #660]	; 0x294
 8006a26:	2b04      	cmp	r3, #4
 8006a28:	d004      	beq.n	8006a34 <USBD_LL_DataInStage+0xf2>
 8006a2a:	68fb      	ldr	r3, [r7, #12]
 8006a2c:	f8d3 3294 	ldr.w	r3, [r3, #660]	; 0x294
 8006a30:	2b00      	cmp	r3, #0
 8006a32:	d103      	bne.n	8006a3c <USBD_LL_DataInStage+0xfa>
 8006a34:	2180      	movs	r1, #128	; 0x80
 8006a36:	68f8      	ldr	r0, [r7, #12]
 8006a38:	f001 fa6e 	bl	8007f18 <USBD_LL_StallEP>
 8006a3c:	68fb      	ldr	r3, [r7, #12]
 8006a3e:	f893 32a0 	ldrb.w	r3, [r3, #672]	; 0x2a0
 8006a42:	2b01      	cmp	r3, #1
 8006a44:	d11d      	bne.n	8006a82 <USBD_LL_DataInStage+0x140>
 8006a46:	68f8      	ldr	r0, [r7, #12]
 8006a48:	f7ff fe82 	bl	8006750 <USBD_RunTestMode>
 8006a4c:	68fb      	ldr	r3, [r7, #12]
 8006a4e:	2200      	movs	r2, #0
 8006a50:	f883 22a0 	strb.w	r2, [r3, #672]	; 0x2a0
 8006a54:	e015      	b.n	8006a82 <USBD_LL_DataInStage+0x140>
 8006a56:	68fb      	ldr	r3, [r7, #12]
 8006a58:	f8d3 32b4 	ldr.w	r3, [r3, #692]	; 0x2b4
 8006a5c:	695b      	ldr	r3, [r3, #20]
 8006a5e:	2b00      	cmp	r3, #0
 8006a60:	d00d      	beq.n	8006a7e <USBD_LL_DataInStage+0x13c>
 8006a62:	68fb      	ldr	r3, [r7, #12]
 8006a64:	f893 329c 	ldrb.w	r3, [r3, #668]	; 0x29c
 8006a68:	2b03      	cmp	r3, #3
 8006a6a:	d108      	bne.n	8006a7e <USBD_LL_DataInStage+0x13c>
 8006a6c:	68fb      	ldr	r3, [r7, #12]
 8006a6e:	f8d3 32b4 	ldr.w	r3, [r3, #692]	; 0x2b4
 8006a72:	695b      	ldr	r3, [r3, #20]
 8006a74:	7afa      	ldrb	r2, [r7, #11]
 8006a76:	4611      	mov	r1, r2
 8006a78:	68f8      	ldr	r0, [r7, #12]
 8006a7a:	4798      	blx	r3
 8006a7c:	e001      	b.n	8006a82 <USBD_LL_DataInStage+0x140>
 8006a7e:	2302      	movs	r3, #2
 8006a80:	e000      	b.n	8006a84 <USBD_LL_DataInStage+0x142>
 8006a82:	2300      	movs	r3, #0
 8006a84:	4618      	mov	r0, r3
 8006a86:	3718      	adds	r7, #24
 8006a88:	46bd      	mov	sp, r7
 8006a8a:	bd80      	pop	{r7, pc}

08006a8c <USBD_LL_Reset>:
 8006a8c:	b580      	push	{r7, lr}
 8006a8e:	b082      	sub	sp, #8
 8006a90:	af00      	add	r7, sp, #0
 8006a92:	6078      	str	r0, [r7, #4]
 8006a94:	2340      	movs	r3, #64	; 0x40
 8006a96:	2200      	movs	r2, #0
 8006a98:	2100      	movs	r1, #0
 8006a9a:	6878      	ldr	r0, [r7, #4]
 8006a9c:	f001 f9f7 	bl	8007e8e <USBD_LL_OpenEP>
 8006aa0:	687b      	ldr	r3, [r7, #4]
 8006aa2:	2201      	movs	r2, #1
 8006aa4:	f8c3 2158 	str.w	r2, [r3, #344]	; 0x158
 8006aa8:	687b      	ldr	r3, [r7, #4]
 8006aaa:	2240      	movs	r2, #64	; 0x40
 8006aac:	f8c3 2164 	str.w	r2, [r3, #356]	; 0x164
 8006ab0:	2340      	movs	r3, #64	; 0x40
 8006ab2:	2200      	movs	r2, #0
 8006ab4:	2180      	movs	r1, #128	; 0x80
 8006ab6:	6878      	ldr	r0, [r7, #4]
 8006ab8:	f001 f9e9 	bl	8007e8e <USBD_LL_OpenEP>
 8006abc:	687b      	ldr	r3, [r7, #4]
 8006abe:	2201      	movs	r2, #1
 8006ac0:	619a      	str	r2, [r3, #24]
 8006ac2:	687b      	ldr	r3, [r7, #4]
 8006ac4:	2240      	movs	r2, #64	; 0x40
 8006ac6:	625a      	str	r2, [r3, #36]	; 0x24
 8006ac8:	687b      	ldr	r3, [r7, #4]
 8006aca:	2201      	movs	r2, #1
 8006acc:	f883 229c 	strb.w	r2, [r3, #668]	; 0x29c
 8006ad0:	687b      	ldr	r3, [r7, #4]
 8006ad2:	2200      	movs	r2, #0
 8006ad4:	f8c3 2294 	str.w	r2, [r3, #660]	; 0x294
 8006ad8:	687b      	ldr	r3, [r7, #4]
 8006ada:	2200      	movs	r2, #0
 8006adc:	605a      	str	r2, [r3, #4]
 8006ade:	687b      	ldr	r3, [r7, #4]
 8006ae0:	2200      	movs	r2, #0
 8006ae2:	f8c3 22a4 	str.w	r2, [r3, #676]	; 0x2a4
 8006ae6:	687b      	ldr	r3, [r7, #4]
 8006ae8:	f8d3 32b8 	ldr.w	r3, [r3, #696]	; 0x2b8
 8006aec:	2b00      	cmp	r3, #0
 8006aee:	d009      	beq.n	8006b04 <USBD_LL_Reset+0x78>
 8006af0:	687b      	ldr	r3, [r7, #4]
 8006af2:	f8d3 32b4 	ldr.w	r3, [r3, #692]	; 0x2b4
 8006af6:	685b      	ldr	r3, [r3, #4]
 8006af8:	687a      	ldr	r2, [r7, #4]
 8006afa:	6852      	ldr	r2, [r2, #4]
 8006afc:	b2d2      	uxtb	r2, r2
 8006afe:	4611      	mov	r1, r2
 8006b00:	6878      	ldr	r0, [r7, #4]
 8006b02:	4798      	blx	r3
 8006b04:	2300      	movs	r3, #0
 8006b06:	4618      	mov	r0, r3
 8006b08:	3708      	adds	r7, #8
 8006b0a:	46bd      	mov	sp, r7
 8006b0c:	bd80      	pop	{r7, pc}

08006b0e <USBD_LL_SetSpeed>:
 8006b0e:	b480      	push	{r7}
 8006b10:	b083      	sub	sp, #12
 8006b12:	af00      	add	r7, sp, #0
 8006b14:	6078      	str	r0, [r7, #4]
 8006b16:	460b      	mov	r3, r1
 8006b18:	70fb      	strb	r3, [r7, #3]
 8006b1a:	687b      	ldr	r3, [r7, #4]
 8006b1c:	78fa      	ldrb	r2, [r7, #3]
 8006b1e:	741a      	strb	r2, [r3, #16]
 8006b20:	2300      	movs	r3, #0
 8006b22:	4618      	mov	r0, r3
 8006b24:	370c      	adds	r7, #12
 8006b26:	46bd      	mov	sp, r7
 8006b28:	f85d 7b04 	ldr.w	r7, [sp], #4
 8006b2c:	4770      	bx	lr

08006b2e <USBD_LL_Suspend>:
 8006b2e:	b480      	push	{r7}
 8006b30:	b083      	sub	sp, #12
 8006b32:	af00      	add	r7, sp, #0
 8006b34:	6078      	str	r0, [r7, #4]
 8006b36:	687b      	ldr	r3, [r7, #4]
 8006b38:	f893 229c 	ldrb.w	r2, [r3, #668]	; 0x29c
 8006b3c:	687b      	ldr	r3, [r7, #4]
 8006b3e:	f883 229d 	strb.w	r2, [r3, #669]	; 0x29d
 8006b42:	687b      	ldr	r3, [r7, #4]
 8006b44:	2204      	movs	r2, #4
 8006b46:	f883 229c 	strb.w	r2, [r3, #668]	; 0x29c
 8006b4a:	2300      	movs	r3, #0
 8006b4c:	4618      	mov	r0, r3
 8006b4e:	370c      	adds	r7, #12
 8006b50:	46bd      	mov	sp, r7
 8006b52:	f85d 7b04 	ldr.w	r7, [sp], #4
 8006b56:	4770      	bx	lr

08006b58 <USBD_LL_Resume>:
 8006b58:	b480      	push	{r7}
 8006b5a:	b083      	sub	sp, #12
 8006b5c:	af00      	add	r7, sp, #0
 8006b5e:	6078      	str	r0, [r7, #4]
 8006b60:	687b      	ldr	r3, [r7, #4]
 8006b62:	f893 329c 	ldrb.w	r3, [r3, #668]	; 0x29c
 8006b66:	2b04      	cmp	r3, #4
 8006b68:	d105      	bne.n	8006b76 <USBD_LL_Resume+0x1e>
 8006b6a:	687b      	ldr	r3, [r7, #4]
 8006b6c:	f893 229d 	ldrb.w	r2, [r3, #669]	; 0x29d
 8006b70:	687b      	ldr	r3, [r7, #4]
 8006b72:	f883 229c 	strb.w	r2, [r3, #668]	; 0x29c
 8006b76:	2300      	movs	r3, #0
 8006b78:	4618      	mov	r0, r3
 8006b7a:	370c      	adds	r7, #12
 8006b7c:	46bd      	mov	sp, r7
 8006b7e:	f85d 7b04 	ldr.w	r7, [sp], #4
 8006b82:	4770      	bx	lr

08006b84 <USBD_LL_SOF>:
 8006b84:	b580      	push	{r7, lr}
 8006b86:	b082      	sub	sp, #8
 8006b88:	af00      	add	r7, sp, #0
 8006b8a:	6078      	str	r0, [r7, #4]
 8006b8c:	687b      	ldr	r3, [r7, #4]
 8006b8e:	f893 329c 	ldrb.w	r3, [r3, #668]	; 0x29c
 8006b92:	2b03      	cmp	r3, #3
 8006b94:	d10b      	bne.n	8006bae <USBD_LL_SOF+0x2a>
 8006b96:	687b      	ldr	r3, [r7, #4]
 8006b98:	f8d3 32b4 	ldr.w	r3, [r3, #692]	; 0x2b4
 8006b9c:	69db      	ldr	r3, [r3, #28]
 8006b9e:	2b00      	cmp	r3, #0
 8006ba0:	d005      	beq.n	8006bae <USBD_LL_SOF+0x2a>
 8006ba2:	687b      	ldr	r3, [r7, #4]
 8006ba4:	f8d3 32b4 	ldr.w	r3, [r3, #692]	; 0x2b4
 8006ba8:	69db      	ldr	r3, [r3, #28]
 8006baa:	6878      	ldr	r0, [r7, #4]
 8006bac:	4798      	blx	r3
 8006bae:	2300      	movs	r3, #0
 8006bb0:	4618      	mov	r0, r3
 8006bb2:	3708      	adds	r7, #8
 8006bb4:	46bd      	mov	sp, r7
 8006bb6:	bd80      	pop	{r7, pc}

08006bb8 <USBD_StdDevReq>:
 8006bb8:	b580      	push	{r7, lr}
 8006bba:	b084      	sub	sp, #16
 8006bbc:	af00      	add	r7, sp, #0
 8006bbe:	6078      	str	r0, [r7, #4]
 8006bc0:	6039      	str	r1, [r7, #0]
 8006bc2:	2300      	movs	r3, #0
 8006bc4:	73fb      	strb	r3, [r7, #15]
 8006bc6:	683b      	ldr	r3, [r7, #0]
 8006bc8:	781b      	ldrb	r3, [r3, #0]
 8006bca:	f003 0360 	and.w	r3, r3, #96	; 0x60
 8006bce:	2b20      	cmp	r3, #32
 8006bd0:	d004      	beq.n	8006bdc <USBD_StdDevReq+0x24>
 8006bd2:	2b40      	cmp	r3, #64	; 0x40
 8006bd4:	d002      	beq.n	8006bdc <USBD_StdDevReq+0x24>
 8006bd6:	2b00      	cmp	r3, #0
 8006bd8:	d008      	beq.n	8006bec <USBD_StdDevReq+0x34>
 8006bda:	e04c      	b.n	8006c76 <USBD_StdDevReq+0xbe>
 8006bdc:	687b      	ldr	r3, [r7, #4]
 8006bde:	f8d3 32b4 	ldr.w	r3, [r3, #692]	; 0x2b4
 8006be2:	689b      	ldr	r3, [r3, #8]
 8006be4:	6839      	ldr	r1, [r7, #0]
 8006be6:	6878      	ldr	r0, [r7, #4]
 8006be8:	4798      	blx	r3
 8006bea:	e049      	b.n	8006c80 <USBD_StdDevReq+0xc8>
 8006bec:	683b      	ldr	r3, [r7, #0]
 8006bee:	785b      	ldrb	r3, [r3, #1]
 8006bf0:	2b09      	cmp	r3, #9
 8006bf2:	d83a      	bhi.n	8006c6a <USBD_StdDevReq+0xb2>
 8006bf4:	a201      	add	r2, pc, #4	; (adr r2, 8006bfc <USBD_StdDevReq+0x44>)
 8006bf6:	f852 f023 	ldr.w	pc, [r2, r3, lsl #2]
 8006bfa:	bf00      	nop
 8006bfc:	08006c4d 	.word	0x08006c4d
 8006c00:	08006c61 	.word	0x08006c61
 8006c04:	08006c6b 	.word	0x08006c6b
 8006c08:	08006c57 	.word	0x08006c57
 8006c0c:	08006c6b 	.word	0x08006c6b
 8006c10:	08006c2f 	.word	0x08006c2f
 8006c14:	08006c25 	.word	0x08006c25
 8006c18:	08006c6b 	.word	0x08006c6b
 8006c1c:	08006c43 	.word	0x08006c43
 8006c20:	08006c39 	.word	0x08006c39
 8006c24:	6839      	ldr	r1, [r7, #0]
 8006c26:	6878      	ldr	r0, [r7, #4]
 8006c28:	f000 f9d4 	bl	8006fd4 <USBD_GetDescriptor>
 8006c2c:	e022      	b.n	8006c74 <USBD_StdDevReq+0xbc>
 8006c2e:	6839      	ldr	r1, [r7, #0]
 8006c30:	6878      	ldr	r0, [r7, #4]
 8006c32:	f000 fb61 	bl	80072f8 <USBD_SetAddress>
 8006c36:	e01d      	b.n	8006c74 <USBD_StdDevReq+0xbc>
 8006c38:	6839      	ldr	r1, [r7, #0]
 8006c3a:	6878      	ldr	r0, [r7, #4]
 8006c3c:	f000 fb9e 	bl	800737c <USBD_SetConfig>
 8006c40:	e018      	b.n	8006c74 <USBD_StdDevReq+0xbc>
 8006c42:	6839      	ldr	r1, [r7, #0]
 8006c44:	6878      	ldr	r0, [r7, #4]
 8006c46:	f000 fc27 	bl	8007498 <USBD_GetConfig>
 8006c4a:	e013      	b.n	8006c74 <USBD_StdDevReq+0xbc>
 8006c4c:	6839      	ldr	r1, [r7, #0]
 8006c4e:	6878      	ldr	r0, [r7, #4]
 8006c50:	f000 fc56 	bl	8007500 <USBD_GetStatus>
 8006c54:	e00e      	b.n	8006c74 <USBD_StdDevReq+0xbc>
 8006c56:	6839      	ldr	r1, [r7, #0]
 8006c58:	6878      	ldr	r0, [r7, #4]
 8006c5a:	f000 fc84 	bl	8007566 <USBD_SetFeature>
 8006c5e:	e009      	b.n	8006c74 <USBD_StdDevReq+0xbc>
 8006c60:	6839      	ldr	r1, [r7, #0]
 8006c62:	6878      	ldr	r0, [r7, #4]
 8006c64:	f000 fc93 	bl	800758e <USBD_ClrFeature>
 8006c68:	e004      	b.n	8006c74 <USBD_StdDevReq+0xbc>
 8006c6a:	6839      	ldr	r1, [r7, #0]
 8006c6c:	6878      	ldr	r0, [r7, #4]
 8006c6e:	f000 fcec 	bl	800764a <USBD_CtlError>
 8006c72:	bf00      	nop
 8006c74:	e004      	b.n	8006c80 <USBD_StdDevReq+0xc8>
 8006c76:	6839      	ldr	r1, [r7, #0]
 8006c78:	6878      	ldr	r0, [r7, #4]
 8006c7a:	f000 fce6 	bl	800764a <USBD_CtlError>
 8006c7e:	bf00      	nop
 8006c80:	7bfb      	ldrb	r3, [r7, #15]
 8006c82:	4618      	mov	r0, r3
 8006c84:	3710      	adds	r7, #16
 8006c86:	46bd      	mov	sp, r7
 8006c88:	bd80      	pop	{r7, pc}
 8006c8a:	bf00      	nop

08006c8c <USBD_StdItfReq>:
 8006c8c:	b580      	push	{r7, lr}
 8006c8e:	b084      	sub	sp, #16
 8006c90:	af00      	add	r7, sp, #0
 8006c92:	6078      	str	r0, [r7, #4]
 8006c94:	6039      	str	r1, [r7, #0]
 8006c96:	2300      	movs	r3, #0
 8006c98:	73fb      	strb	r3, [r7, #15]
 8006c9a:	683b      	ldr	r3, [r7, #0]
 8006c9c:	781b      	ldrb	r3, [r3, #0]
 8006c9e:	f003 0360 	and.w	r3, r3, #96	; 0x60
 8006ca2:	2b20      	cmp	r3, #32
 8006ca4:	d003      	beq.n	8006cae <USBD_StdItfReq+0x22>
 8006ca6:	2b40      	cmp	r3, #64	; 0x40
 8006ca8:	d001      	beq.n	8006cae <USBD_StdItfReq+0x22>
 8006caa:	2b00      	cmp	r3, #0
 8006cac:	d12a      	bne.n	8006d04 <USBD_StdItfReq+0x78>
 8006cae:	687b      	ldr	r3, [r7, #4]
 8006cb0:	f893 329c 	ldrb.w	r3, [r3, #668]	; 0x29c
 8006cb4:	3b01      	subs	r3, #1
 8006cb6:	2b02      	cmp	r3, #2
 8006cb8:	d81d      	bhi.n	8006cf6 <USBD_StdItfReq+0x6a>
 8006cba:	683b      	ldr	r3, [r7, #0]
 8006cbc:	889b      	ldrh	r3, [r3, #4]
 8006cbe:	b2db      	uxtb	r3, r3
 8006cc0:	2b01      	cmp	r3, #1
 8006cc2:	d813      	bhi.n	8006cec <USBD_StdItfReq+0x60>
 8006cc4:	687b      	ldr	r3, [r7, #4]
 8006cc6:	f8d3 32b4 	ldr.w	r3, [r3, #692]	; 0x2b4
 8006cca:	689b      	ldr	r3, [r3, #8]
 8006ccc:	6839      	ldr	r1, [r7, #0]
 8006cce:	6878      	ldr	r0, [r7, #4]
 8006cd0:	4798      	blx	r3
 8006cd2:	4603      	mov	r3, r0
 8006cd4:	73fb      	strb	r3, [r7, #15]
 8006cd6:	683b      	ldr	r3, [r7, #0]
 8006cd8:	88db      	ldrh	r3, [r3, #6]
 8006cda:	2b00      	cmp	r3, #0
 8006cdc:	d110      	bne.n	8006d00 <USBD_StdItfReq+0x74>
 8006cde:	7bfb      	ldrb	r3, [r7, #15]
 8006ce0:	2b00      	cmp	r3, #0
 8006ce2:	d10d      	bne.n	8006d00 <USBD_StdItfReq+0x74>
 8006ce4:	6878      	ldr	r0, [r7, #4]
 8006ce6:	f000 fd79 	bl	80077dc <USBD_CtlSendStatus>
 8006cea:	e009      	b.n	8006d00 <USBD_StdItfReq+0x74>
 8006cec:	6839      	ldr	r1, [r7, #0]
 8006cee:	6878      	ldr	r0, [r7, #4]
 8006cf0:	f000 fcab 	bl	800764a <USBD_CtlError>
 8006cf4:	e004      	b.n	8006d00 <USBD_StdItfReq+0x74>
 8006cf6:	6839      	ldr	r1, [r7, #0]
 8006cf8:	6878      	ldr	r0, [r7, #4]
 8006cfa:	f000 fca6 	bl	800764a <USBD_CtlError>
 8006cfe:	e000      	b.n	8006d02 <USBD_StdItfReq+0x76>
 8006d00:	bf00      	nop
 8006d02:	e004      	b.n	8006d0e <USBD_StdItfReq+0x82>
 8006d04:	6839      	ldr	r1, [r7, #0]
 8006d06:	6878      	ldr	r0, [r7, #4]
 8006d08:	f000 fc9f 	bl	800764a <USBD_CtlError>
 8006d0c:	bf00      	nop
 8006d0e:	2300      	movs	r3, #0
 8006d10:	4618      	mov	r0, r3
 8006d12:	3710      	adds	r7, #16
 8006d14:	46bd      	mov	sp, r7
 8006d16:	bd80      	pop	{r7, pc}

08006d18 <USBD_StdEPReq>:
 8006d18:	b580      	push	{r7, lr}
 8006d1a:	b084      	sub	sp, #16
 8006d1c:	af00      	add	r7, sp, #0
 8006d1e:	6078      	str	r0, [r7, #4]
 8006d20:	6039      	str	r1, [r7, #0]
 8006d22:	2300      	movs	r3, #0
 8006d24:	73fb      	strb	r3, [r7, #15]
 8006d26:	683b      	ldr	r3, [r7, #0]
 8006d28:	889b      	ldrh	r3, [r3, #4]
 8006d2a:	73bb      	strb	r3, [r7, #14]
 8006d2c:	683b      	ldr	r3, [r7, #0]
 8006d2e:	781b      	ldrb	r3, [r3, #0]
 8006d30:	f003 0360 	and.w	r3, r3, #96	; 0x60
 8006d34:	2b20      	cmp	r3, #32
 8006d36:	d004      	beq.n	8006d42 <USBD_StdEPReq+0x2a>
 8006d38:	2b40      	cmp	r3, #64	; 0x40
 8006d3a:	d002      	beq.n	8006d42 <USBD_StdEPReq+0x2a>
 8006d3c:	2b00      	cmp	r3, #0
 8006d3e:	d008      	beq.n	8006d52 <USBD_StdEPReq+0x3a>
 8006d40:	e13d      	b.n	8006fbe <USBD_StdEPReq+0x2a6>
 8006d42:	687b      	ldr	r3, [r7, #4]
 8006d44:	f8d3 32b4 	ldr.w	r3, [r3, #692]	; 0x2b4
 8006d48:	689b      	ldr	r3, [r3, #8]
 8006d4a:	6839      	ldr	r1, [r7, #0]
 8006d4c:	6878      	ldr	r0, [r7, #4]
 8006d4e:	4798      	blx	r3
 8006d50:	e13a      	b.n	8006fc8 <USBD_StdEPReq+0x2b0>
 8006d52:	683b      	ldr	r3, [r7, #0]
 8006d54:	781b      	ldrb	r3, [r3, #0]
 8006d56:	f003 0360 	and.w	r3, r3, #96	; 0x60
 8006d5a:	2b20      	cmp	r3, #32
 8006d5c:	d10a      	bne.n	8006d74 <USBD_StdEPReq+0x5c>
 8006d5e:	687b      	ldr	r3, [r7, #4]
 8006d60:	f8d3 32b4 	ldr.w	r3, [r3, #692]	; 0x2b4
 8006d64:	689b      	ldr	r3, [r3, #8]
 8006d66:	6839      	ldr	r1, [r7, #0]
 8006d68:	6878      	ldr	r0, [r7, #4]
 8006d6a:	4798      	blx	r3
 8006d6c:	4603      	mov	r3, r0
 8006d6e:	73fb      	strb	r3, [r7, #15]
 8006d70:	7bfb      	ldrb	r3, [r7, #15]
 8006d72:	e12a      	b.n	8006fca <USBD_StdEPReq+0x2b2>
 8006d74:	683b      	ldr	r3, [r7, #0]
 8006d76:	785b      	ldrb	r3, [r3, #1]
 8006d78:	2b01      	cmp	r3, #1
 8006d7a:	d03e      	beq.n	8006dfa <USBD_StdEPReq+0xe2>
 8006d7c:	2b03      	cmp	r3, #3
 8006d7e:	d002      	beq.n	8006d86 <USBD_StdEPReq+0x6e>
 8006d80:	2b00      	cmp	r3, #0
 8006d82:	d070      	beq.n	8006e66 <USBD_StdEPReq+0x14e>
 8006d84:	e115      	b.n	8006fb2 <USBD_StdEPReq+0x29a>
 8006d86:	687b      	ldr	r3, [r7, #4]
 8006d88:	f893 329c 	ldrb.w	r3, [r3, #668]	; 0x29c
 8006d8c:	2b02      	cmp	r3, #2
 8006d8e:	d002      	beq.n	8006d96 <USBD_StdEPReq+0x7e>
 8006d90:	2b03      	cmp	r3, #3
 8006d92:	d015      	beq.n	8006dc0 <USBD_StdEPReq+0xa8>
 8006d94:	e02b      	b.n	8006dee <USBD_StdEPReq+0xd6>
 8006d96:	7bbb      	ldrb	r3, [r7, #14]
 8006d98:	2b00      	cmp	r3, #0
 8006d9a:	d00c      	beq.n	8006db6 <USBD_StdEPReq+0x9e>
 8006d9c:	7bbb      	ldrb	r3, [r7, #14]
 8006d9e:	2b80      	cmp	r3, #128	; 0x80
 8006da0:	d009      	beq.n	8006db6 <USBD_StdEPReq+0x9e>
 8006da2:	7bbb      	ldrb	r3, [r7, #14]
 8006da4:	4619      	mov	r1, r3
 8006da6:	6878      	ldr	r0, [r7, #4]
 8006da8:	f001 f8b6 	bl	8007f18 <USBD_LL_StallEP>
 8006dac:	2180      	movs	r1, #128	; 0x80
 8006dae:	6878      	ldr	r0, [r7, #4]
 8006db0:	f001 f8b2 	bl	8007f18 <USBD_LL_StallEP>
 8006db4:	e020      	b.n	8006df8 <USBD_StdEPReq+0xe0>
 8006db6:	6839      	ldr	r1, [r7, #0]
 8006db8:	6878      	ldr	r0, [r7, #4]
 8006dba:	f000 fc46 	bl	800764a <USBD_CtlError>
 8006dbe:	e01b      	b.n	8006df8 <USBD_StdEPReq+0xe0>
 8006dc0:	683b      	ldr	r3, [r7, #0]
 8006dc2:	885b      	ldrh	r3, [r3, #2]
 8006dc4:	2b00      	cmp	r3, #0
 8006dc6:	d10e      	bne.n	8006de6 <USBD_StdEPReq+0xce>
 8006dc8:	7bbb      	ldrb	r3, [r7, #14]
 8006dca:	2b00      	cmp	r3, #0
 8006dcc:	d00b      	beq.n	8006de6 <USBD_StdEPReq+0xce>
 8006dce:	7bbb      	ldrb	r3, [r7, #14]
 8006dd0:	2b80      	cmp	r3, #128	; 0x80
 8006dd2:	d008      	beq.n	8006de6 <USBD_StdEPReq+0xce>
 8006dd4:	683b      	ldr	r3, [r7, #0]
 8006dd6:	88db      	ldrh	r3, [r3, #6]
 8006dd8:	2b00      	cmp	r3, #0
 8006dda:	d104      	bne.n	8006de6 <USBD_StdEPReq+0xce>
 8006ddc:	7bbb      	ldrb	r3, [r7, #14]
 8006dde:	4619      	mov	r1, r3
 8006de0:	6878      	ldr	r0, [r7, #4]
 8006de2:	f001 f899 	bl	8007f18 <USBD_LL_StallEP>
 8006de6:	6878      	ldr	r0, [r7, #4]
 8006de8:	f000 fcf8 	bl	80077dc <USBD_CtlSendStatus>
 8006dec:	e004      	b.n	8006df8 <USBD_StdEPReq+0xe0>
 8006dee:	6839      	ldr	r1, [r7, #0]
 8006df0:	6878      	ldr	r0, [r7, #4]
 8006df2:	f000 fc2a 	bl	800764a <USBD_CtlError>
 8006df6:	bf00      	nop
 8006df8:	e0e0      	b.n	8006fbc <USBD_StdEPReq+0x2a4>
 8006dfa:	687b      	ldr	r3, [r7, #4]
 8006dfc:	f893 329c 	ldrb.w	r3, [r3, #668]	; 0x29c
 8006e00:	2b02      	cmp	r3, #2
 8006e02:	d002      	beq.n	8006e0a <USBD_StdEPReq+0xf2>
 8006e04:	2b03      	cmp	r3, #3
 8006e06:	d015      	beq.n	8006e34 <USBD_StdEPReq+0x11c>
 8006e08:	e026      	b.n	8006e58 <USBD_StdEPReq+0x140>
 8006e0a:	7bbb      	ldrb	r3, [r7, #14]
 8006e0c:	2b00      	cmp	r3, #0
 8006e0e:	d00c      	beq.n	8006e2a <USBD_StdEPReq+0x112>
 8006e10:	7bbb      	ldrb	r3, [r7, #14]
 8006e12:	2b80      	cmp	r3, #128	; 0x80
 8006e14:	d009      	beq.n	8006e2a <USBD_StdEPReq+0x112>
 8006e16:	7bbb      	ldrb	r3, [r7, #14]
 8006e18:	4619      	mov	r1, r3
 8006e1a:	6878      	ldr	r0, [r7, #4]
 8006e1c:	f001 f87c 	bl	8007f18 <USBD_LL_StallEP>
 8006e20:	2180      	movs	r1, #128	; 0x80
 8006e22:	6878      	ldr	r0, [r7, #4]
 8006e24:	f001 f878 	bl	8007f18 <USBD_LL_StallEP>
 8006e28:	e01c      	b.n	8006e64 <USBD_StdEPReq+0x14c>
 8006e2a:	6839      	ldr	r1, [r7, #0]
 8006e2c:	6878      	ldr	r0, [r7, #4]
 8006e2e:	f000 fc0c 	bl	800764a <USBD_CtlError>
 8006e32:	e017      	b.n	8006e64 <USBD_StdEPReq+0x14c>
 8006e34:	683b      	ldr	r3, [r7, #0]
 8006e36:	885b      	ldrh	r3, [r3, #2]
 8006e38:	2b00      	cmp	r3, #0
 8006e3a:	d112      	bne.n	8006e62 <USBD_StdEPReq+0x14a>
 8006e3c:	7bbb      	ldrb	r3, [r7, #14]
 8006e3e:	f003 037f 	and.w	r3, r3, #127	; 0x7f
 8006e42:	2b00      	cmp	r3, #0
 8006e44:	d004      	beq.n	8006e50 <USBD_StdEPReq+0x138>
 8006e46:	7bbb      	ldrb	r3, [r7, #14]
 8006e48:	4619      	mov	r1, r3
 8006e4a:	6878      	ldr	r0, [r7, #4]
 8006e4c:	f001 f883 	bl	8007f56 <USBD_LL_ClearStallEP>
 8006e50:	6878      	ldr	r0, [r7, #4]
 8006e52:	f000 fcc3 	bl	80077dc <USBD_CtlSendStatus>
 8006e56:	e004      	b.n	8006e62 <USBD_StdEPReq+0x14a>
 8006e58:	6839      	ldr	r1, [r7, #0]
 8006e5a:	6878      	ldr	r0, [r7, #4]
 8006e5c:	f000 fbf5 	bl	800764a <USBD_CtlError>
 8006e60:	e000      	b.n	8006e64 <USBD_StdEPReq+0x14c>
 8006e62:	bf00      	nop
 8006e64:	e0aa      	b.n	8006fbc <USBD_StdEPReq+0x2a4>
 8006e66:	687b      	ldr	r3, [r7, #4]
 8006e68:	f893 329c 	ldrb.w	r3, [r3, #668]	; 0x29c
 8006e6c:	2b02      	cmp	r3, #2
 8006e6e:	d002      	beq.n	8006e76 <USBD_StdEPReq+0x15e>
 8006e70:	2b03      	cmp	r3, #3
 8006e72:	d032      	beq.n	8006eda <USBD_StdEPReq+0x1c2>
 8006e74:	e097      	b.n	8006fa6 <USBD_StdEPReq+0x28e>
 8006e76:	7bbb      	ldrb	r3, [r7, #14]
 8006e78:	2b00      	cmp	r3, #0
 8006e7a:	d007      	beq.n	8006e8c <USBD_StdEPReq+0x174>
 8006e7c:	7bbb      	ldrb	r3, [r7, #14]
 8006e7e:	2b80      	cmp	r3, #128	; 0x80
 8006e80:	d004      	beq.n	8006e8c <USBD_StdEPReq+0x174>
 8006e82:	6839      	ldr	r1, [r7, #0]
 8006e84:	6878      	ldr	r0, [r7, #4]
 8006e86:	f000 fbe0 	bl	800764a <USBD_CtlError>
 8006e8a:	e091      	b.n	8006fb0 <USBD_StdEPReq+0x298>
 8006e8c:	f997 300e 	ldrsb.w	r3, [r7, #14]
 8006e90:	2b00      	cmp	r3, #0
 8006e92:	da0b      	bge.n	8006eac <USBD_StdEPReq+0x194>
 8006e94:	7bbb      	ldrb	r3, [r7, #14]
 8006e96:	f003 027f 	and.w	r2, r3, #127	; 0x7f
 8006e9a:	4613      	mov	r3, r2
 8006e9c:	009b      	lsls	r3, r3, #2
 8006e9e:	4413      	add	r3, r2
 8006ea0:	009b      	lsls	r3, r3, #2
 8006ea2:	3310      	adds	r3, #16
 8006ea4:	687a      	ldr	r2, [r7, #4]
 8006ea6:	4413      	add	r3, r2
 8006ea8:	3304      	adds	r3, #4
 8006eaa:	e00b      	b.n	8006ec4 <USBD_StdEPReq+0x1ac>
 8006eac:	7bbb      	ldrb	r3, [r7, #14]
 8006eae:	f003 027f 	and.w	r2, r3, #127	; 0x7f
 8006eb2:	4613      	mov	r3, r2
 8006eb4:	009b      	lsls	r3, r3, #2
 8006eb6:	4413      	add	r3, r2
 8006eb8:	009b      	lsls	r3, r3, #2
 8006eba:	f503 73a8 	add.w	r3, r3, #336	; 0x150
 8006ebe:	687a      	ldr	r2, [r7, #4]
 8006ec0:	4413      	add	r3, r2
 8006ec2:	3304      	adds	r3, #4
 8006ec4:	60bb      	str	r3, [r7, #8]
 8006ec6:	68bb      	ldr	r3, [r7, #8]
 8006ec8:	2200      	movs	r2, #0
 8006eca:	601a      	str	r2, [r3, #0]
 8006ecc:	68bb      	ldr	r3, [r7, #8]
 8006ece:	2202      	movs	r2, #2
 8006ed0:	4619      	mov	r1, r3
 8006ed2:	6878      	ldr	r0, [r7, #4]
 8006ed4:	f000 fc24 	bl	8007720 <USBD_CtlSendData>
 8006ed8:	e06a      	b.n	8006fb0 <USBD_StdEPReq+0x298>
 8006eda:	f997 300e 	ldrsb.w	r3, [r7, #14]
 8006ede:	2b00      	cmp	r3, #0
 8006ee0:	da11      	bge.n	8006f06 <USBD_StdEPReq+0x1ee>
 8006ee2:	7bbb      	ldrb	r3, [r7, #14]
 8006ee4:	f003 020f 	and.w	r2, r3, #15
 8006ee8:	6879      	ldr	r1, [r7, #4]
 8006eea:	4613      	mov	r3, r2
 8006eec:	009b      	lsls	r3, r3, #2
 8006eee:	4413      	add	r3, r2
 8006ef0:	009b      	lsls	r3, r3, #2
 8006ef2:	440b      	add	r3, r1
 8006ef4:	3318      	adds	r3, #24
 8006ef6:	681b      	ldr	r3, [r3, #0]
 8006ef8:	2b00      	cmp	r3, #0
 8006efa:	d117      	bne.n	8006f2c <USBD_StdEPReq+0x214>
 8006efc:	6839      	ldr	r1, [r7, #0]
 8006efe:	6878      	ldr	r0, [r7, #4]
 8006f00:	f000 fba3 	bl	800764a <USBD_CtlError>
 8006f04:	e054      	b.n	8006fb0 <USBD_StdEPReq+0x298>
 8006f06:	7bbb      	ldrb	r3, [r7, #14]
 8006f08:	f003 020f 	and.w	r2, r3, #15
 8006f0c:	6879      	ldr	r1, [r7, #4]
 8006f0e:	4613      	mov	r3, r2
 8006f10:	009b      	lsls	r3, r3, #2
 8006f12:	4413      	add	r3, r2
 8006f14:	009b      	lsls	r3, r3, #2
 8006f16:	440b      	add	r3, r1
 8006f18:	f503 73ac 	add.w	r3, r3, #344	; 0x158
 8006f1c:	681b      	ldr	r3, [r3, #0]
 8006f1e:	2b00      	cmp	r3, #0
 8006f20:	d104      	bne.n	8006f2c <USBD_StdEPReq+0x214>
 8006f22:	6839      	ldr	r1, [r7, #0]
 8006f24:	6878      	ldr	r0, [r7, #4]
 8006f26:	f000 fb90 	bl	800764a <USBD_CtlError>
 8006f2a:	e041      	b.n	8006fb0 <USBD_StdEPReq+0x298>
 8006f2c:	f997 300e 	ldrsb.w	r3, [r7, #14]
 8006f30:	2b00      	cmp	r3, #0
 8006f32:	da0b      	bge.n	8006f4c <USBD_StdEPReq+0x234>
 8006f34:	7bbb      	ldrb	r3, [r7, #14]
 8006f36:	f003 027f 	and.w	r2, r3, #127	; 0x7f
 8006f3a:	4613      	mov	r3, r2
 8006f3c:	009b      	lsls	r3, r3, #2
 8006f3e:	4413      	add	r3, r2
 8006f40:	009b      	lsls	r3, r3, #2
 8006f42:	3310      	adds	r3, #16
 8006f44:	687a      	ldr	r2, [r7, #4]
 8006f46:	4413      	add	r3, r2
 8006f48:	3304      	adds	r3, #4
 8006f4a:	e00b      	b.n	8006f64 <USBD_StdEPReq+0x24c>
 8006f4c:	7bbb      	ldrb	r3, [r7, #14]
 8006f4e:	f003 027f 	and.w	r2, r3, #127	; 0x7f
 8006f52:	4613      	mov	r3, r2
 8006f54:	009b      	lsls	r3, r3, #2
 8006f56:	4413      	add	r3, r2
 8006f58:	009b      	lsls	r3, r3, #2
 8006f5a:	f503 73a8 	add.w	r3, r3, #336	; 0x150
 8006f5e:	687a      	ldr	r2, [r7, #4]
 8006f60:	4413      	add	r3, r2
 8006f62:	3304      	adds	r3, #4
 8006f64:	60bb      	str	r3, [r7, #8]
 8006f66:	7bbb      	ldrb	r3, [r7, #14]
 8006f68:	2b00      	cmp	r3, #0
 8006f6a:	d002      	beq.n	8006f72 <USBD_StdEPReq+0x25a>
 8006f6c:	7bbb      	ldrb	r3, [r7, #14]
 8006f6e:	2b80      	cmp	r3, #128	; 0x80
 8006f70:	d103      	bne.n	8006f7a <USBD_StdEPReq+0x262>
 8006f72:	68bb      	ldr	r3, [r7, #8]
 8006f74:	2200      	movs	r2, #0
 8006f76:	601a      	str	r2, [r3, #0]
 8006f78:	e00e      	b.n	8006f98 <USBD_StdEPReq+0x280>
 8006f7a:	7bbb      	ldrb	r3, [r7, #14]
 8006f7c:	4619      	mov	r1, r3
 8006f7e:	6878      	ldr	r0, [r7, #4]
 8006f80:	f001 f808 	bl	8007f94 <USBD_LL_IsStallEP>
 8006f84:	4603      	mov	r3, r0
 8006f86:	2b00      	cmp	r3, #0
 8006f88:	d003      	beq.n	8006f92 <USBD_StdEPReq+0x27a>
 8006f8a:	68bb      	ldr	r3, [r7, #8]
 8006f8c:	2201      	movs	r2, #1
 8006f8e:	601a      	str	r2, [r3, #0]
 8006f90:	e002      	b.n	8006f98 <USBD_StdEPReq+0x280>
 8006f92:	68bb      	ldr	r3, [r7, #8]
 8006f94:	2200      	movs	r2, #0
 8006f96:	601a      	str	r2, [r3, #0]
 8006f98:	68bb      	ldr	r3, [r7, #8]
 8006f9a:	2202      	movs	r2, #2
 8006f9c:	4619      	mov	r1, r3
 8006f9e:	6878      	ldr	r0, [r7, #4]
 8006fa0:	f000 fbbe 	bl	8007720 <USBD_CtlSendData>
 8006fa4:	e004      	b.n	8006fb0 <USBD_StdEPReq+0x298>
 8006fa6:	6839      	ldr	r1, [r7, #0]
 8006fa8:	6878      	ldr	r0, [r7, #4]
 8006faa:	f000 fb4e 	bl	800764a <USBD_CtlError>
 8006fae:	bf00      	nop
 8006fb0:	e004      	b.n	8006fbc <USBD_StdEPReq+0x2a4>
 8006fb2:	6839      	ldr	r1, [r7, #0]
 8006fb4:	6878      	ldr	r0, [r7, #4]
 8006fb6:	f000 fb48 	bl	800764a <USBD_CtlError>
 8006fba:	bf00      	nop
 8006fbc:	e004      	b.n	8006fc8 <USBD_StdEPReq+0x2b0>
 8006fbe:	6839      	ldr	r1, [r7, #0]
 8006fc0:	6878      	ldr	r0, [r7, #4]
 8006fc2:	f000 fb42 	bl	800764a <USBD_CtlError>
 8006fc6:	bf00      	nop
 8006fc8:	7bfb      	ldrb	r3, [r7, #15]
 8006fca:	4618      	mov	r0, r3
 8006fcc:	3710      	adds	r7, #16
 8006fce:	46bd      	mov	sp, r7
 8006fd0:	bd80      	pop	{r7, pc}
	...

08006fd4 <USBD_GetDescriptor>:
 8006fd4:	b580      	push	{r7, lr}
 8006fd6:	b084      	sub	sp, #16
 8006fd8:	af00      	add	r7, sp, #0
 8006fda:	6078      	str	r0, [r7, #4]
 8006fdc:	6039      	str	r1, [r7, #0]
 8006fde:	2300      	movs	r3, #0
 8006fe0:	813b      	strh	r3, [r7, #8]
 8006fe2:	2300      	movs	r3, #0
 8006fe4:	60fb      	str	r3, [r7, #12]
 8006fe6:	2300      	movs	r3, #0
 8006fe8:	72fb      	strb	r3, [r7, #11]
 8006fea:	683b      	ldr	r3, [r7, #0]
 8006fec:	885b      	ldrh	r3, [r3, #2]
 8006fee:	0a1b      	lsrs	r3, r3, #8
 8006ff0:	b29b      	uxth	r3, r3
 8006ff2:	3b01      	subs	r3, #1
 8006ff4:	2b0e      	cmp	r3, #14
 8006ff6:	f200 8152 	bhi.w	800729e <USBD_GetDescriptor+0x2ca>
 8006ffa:	a201      	add	r2, pc, #4	; (adr r2, 8007000 <USBD_GetDescriptor+0x2c>)
 8006ffc:	f852 f023 	ldr.w	pc, [r2, r3, lsl #2]
 8007000:	08007071 	.word	0x08007071
 8007004:	08007089 	.word	0x08007089
 8007008:	080070c9 	.word	0x080070c9
 800700c:	0800729f 	.word	0x0800729f
 8007010:	0800729f 	.word	0x0800729f
 8007014:	0800723f 	.word	0x0800723f
 8007018:	0800726b 	.word	0x0800726b
 800701c:	0800729f 	.word	0x0800729f
 8007020:	0800729f 	.word	0x0800729f
 8007024:	0800729f 	.word	0x0800729f
 8007028:	0800729f 	.word	0x0800729f
 800702c:	0800729f 	.word	0x0800729f
 8007030:	0800729f 	.word	0x0800729f
 8007034:	0800729f 	.word	0x0800729f
 8007038:	0800703d 	.word	0x0800703d
 800703c:	687b      	ldr	r3, [r7, #4]
 800703e:	f8d3 32b0 	ldr.w	r3, [r3, #688]	; 0x2b0
 8007042:	69db      	ldr	r3, [r3, #28]
 8007044:	2b00      	cmp	r3, #0
 8007046:	d00b      	beq.n	8007060 <USBD_GetDescriptor+0x8c>
 8007048:	687b      	ldr	r3, [r7, #4]
 800704a:	f8d3 32b0 	ldr.w	r3, [r3, #688]	; 0x2b0
 800704e:	69db      	ldr	r3, [r3, #28]
 8007050:	687a      	ldr	r2, [r7, #4]
 8007052:	7c12      	ldrb	r2, [r2, #16]
 8007054:	f107 0108 	add.w	r1, r7, #8
 8007058:	4610      	mov	r0, r2
 800705a:	4798      	blx	r3
 800705c:	60f8      	str	r0, [r7, #12]
 800705e:	e126      	b.n	80072ae <USBD_GetDescriptor+0x2da>
 8007060:	6839      	ldr	r1, [r7, #0]
 8007062:	6878      	ldr	r0, [r7, #4]
 8007064:	f000 faf1 	bl	800764a <USBD_CtlError>
 8007068:	7afb      	ldrb	r3, [r7, #11]
 800706a:	3301      	adds	r3, #1
 800706c:	72fb      	strb	r3, [r7, #11]
 800706e:	e11e      	b.n	80072ae <USBD_GetDescriptor+0x2da>
 8007070:	687b      	ldr	r3, [r7, #4]
 8007072:	f8d3 32b0 	ldr.w	r3, [r3, #688]	; 0x2b0
 8007076:	681b      	ldr	r3, [r3, #0]
 8007078:	687a      	ldr	r2, [r7, #4]
 800707a:	7c12      	ldrb	r2, [r2, #16]
 800707c:	f107 0108 	add.w	r1, r7, #8
 8007080:	4610      	mov	r0, r2
 8007082:	4798      	blx	r3
 8007084:	60f8      	str	r0, [r7, #12]
 8007086:	e112      	b.n	80072ae <USBD_GetDescriptor+0x2da>
 8007088:	687b      	ldr	r3, [r7, #4]
 800708a:	7c1b      	ldrb	r3, [r3, #16]
 800708c:	2b00      	cmp	r3, #0
 800708e:	d10d      	bne.n	80070ac <USBD_GetDescriptor+0xd8>
 8007090:	687b      	ldr	r3, [r7, #4]
 8007092:	f8d3 32b4 	ldr.w	r3, [r3, #692]	; 0x2b4
 8007096:	6a9b      	ldr	r3, [r3, #40]	; 0x28
 8007098:	f107 0208 	add.w	r2, r7, #8
 800709c:	4610      	mov	r0, r2
 800709e:	4798      	blx	r3
 80070a0:	60f8      	str	r0, [r7, #12]
 80070a2:	68fb      	ldr	r3, [r7, #12]
 80070a4:	3301      	adds	r3, #1
 80070a6:	2202      	movs	r2, #2
 80070a8:	701a      	strb	r2, [r3, #0]
 80070aa:	e100      	b.n	80072ae <USBD_GetDescriptor+0x2da>
 80070ac:	687b      	ldr	r3, [r7, #4]
 80070ae:	f8d3 32b4 	ldr.w	r3, [r3, #692]	; 0x2b4
 80070b2:	6adb      	ldr	r3, [r3, #44]	; 0x2c
 80070b4:	f107 0208 	add.w	r2, r7, #8
 80070b8:	4610      	mov	r0, r2
 80070ba:	4798      	blx	r3
 80070bc:	60f8      	str	r0, [r7, #12]
 80070be:	68fb      	ldr	r3, [r7, #12]
 80070c0:	3301      	adds	r3, #1
 80070c2:	2202      	movs	r2, #2
 80070c4:	701a      	strb	r2, [r3, #0]
 80070c6:	e0f2      	b.n	80072ae <USBD_GetDescriptor+0x2da>
 80070c8:	683b      	ldr	r3, [r7, #0]
 80070ca:	885b      	ldrh	r3, [r3, #2]
 80070cc:	b2db      	uxtb	r3, r3
 80070ce:	2b05      	cmp	r3, #5
 80070d0:	f200 80ac 	bhi.w	800722c <USBD_GetDescriptor+0x258>
 80070d4:	a201      	add	r2, pc, #4	; (adr r2, 80070dc <USBD_GetDescriptor+0x108>)
 80070d6:	f852 f023 	ldr.w	pc, [r2, r3, lsl #2]
 80070da:	bf00      	nop
 80070dc:	080070f5 	.word	0x080070f5
 80070e0:	08007129 	.word	0x08007129
 80070e4:	0800715d 	.word	0x0800715d
 80070e8:	08007191 	.word	0x08007191
 80070ec:	080071c5 	.word	0x080071c5
 80070f0:	080071f9 	.word	0x080071f9
 80070f4:	687b      	ldr	r3, [r7, #4]
 80070f6:	f8d3 32b0 	ldr.w	r3, [r3, #688]	; 0x2b0
 80070fa:	685b      	ldr	r3, [r3, #4]
 80070fc:	2b00      	cmp	r3, #0
 80070fe:	d00b      	beq.n	8007118 <USBD_GetDescriptor+0x144>
 8007100:	687b      	ldr	r3, [r7, #4]
 8007102:	f8d3 32b0 	ldr.w	r3, [r3, #688]	; 0x2b0
 8007106:	685b      	ldr	r3, [r3, #4]
 8007108:	687a      	ldr	r2, [r7, #4]
 800710a:	7c12      	ldrb	r2, [r2, #16]
 800710c:	f107 0108 	add.w	r1, r7, #8
 8007110:	4610      	mov	r0, r2
 8007112:	4798      	blx	r3
 8007114:	60f8      	str	r0, [r7, #12]
 8007116:	e091      	b.n	800723c <USBD_GetDescriptor+0x268>
 8007118:	6839      	ldr	r1, [r7, #0]
 800711a:	6878      	ldr	r0, [r7, #4]
 800711c:	f000 fa95 	bl	800764a <USBD_CtlError>
 8007120:	7afb      	ldrb	r3, [r7, #11]
 8007122:	3301      	adds	r3, #1
 8007124:	72fb      	strb	r3, [r7, #11]
 8007126:	e089      	b.n	800723c <USBD_GetDescriptor+0x268>
 8007128:	687b      	ldr	r3, [r7, #4]
 800712a:	f8d3 32b0 	ldr.w	r3, [r3, #688]	; 0x2b0
 800712e:	689b      	ldr	r3, [r3, #8]
 8007130:	2b00      	cmp	r3, #0
 8007132:	d00b      	beq.n	800714c <USBD_GetDescriptor+0x178>
 8007134:	687b      	ldr	r3, [r7, #4]
 8007136:	f8d3 32b0 	ldr.w	r3, [r3, #688]	; 0x2b0
 800713a:	689b      	ldr	r3, [r3, #8]
 800713c:	687a      	ldr	r2, [r7, #4]
 800713e:	7c12      	ldrb	r2, [r2, #16]
 8007140:	f107 0108 	add.w	r1, r7, #8
 8007144:	4610      	mov	r0, r2
 8007146:	4798      	blx	r3
 8007148:	60f8      	str	r0, [r7, #12]
 800714a:	e077      	b.n	800723c <USBD_GetDescriptor+0x268>
 800714c:	6839      	ldr	r1, [r7, #0]
 800714e:	6878      	ldr	r0, [r7, #4]
 8007150:	f000 fa7b 	bl	800764a <USBD_CtlError>
 8007154:	7afb      	ldrb	r3, [r7, #11]
 8007156:	3301      	adds	r3, #1
 8007158:	72fb      	strb	r3, [r7, #11]
 800715a:	e06f      	b.n	800723c <USBD_GetDescriptor+0x268>
 800715c:	687b      	ldr	r3, [r7, #4]
 800715e:	f8d3 32b0 	ldr.w	r3, [r3, #688]	; 0x2b0
 8007162:	68db      	ldr	r3, [r3, #12]
 8007164:	2b00      	cmp	r3, #0
 8007166:	d00b      	beq.n	8007180 <USBD_GetDescriptor+0x1ac>
 8007168:	687b      	ldr	r3, [r7, #4]
 800716a:	f8d3 32b0 	ldr.w	r3, [r3, #688]	; 0x2b0
 800716e:	68db      	ldr	r3, [r3, #12]
 8007170:	687a      	ldr	r2, [r7, #4]
 8007172:	7c12      	ldrb	r2, [r2, #16]
 8007174:	f107 0108 	add.w	r1, r7, #8
 8007178:	4610      	mov	r0, r2
 800717a:	4798      	blx	r3
 800717c:	60f8      	str	r0, [r7, #12]
 800717e:	e05d      	b.n	800723c <USBD_GetDescriptor+0x268>
 8007180:	6839      	ldr	r1, [r7, #0]
 8007182:	6878      	ldr	r0, [r7, #4]
 8007184:	f000 fa61 	bl	800764a <USBD_CtlError>
 8007188:	7afb      	ldrb	r3, [r7, #11]
 800718a:	3301      	adds	r3, #1
 800718c:	72fb      	strb	r3, [r7, #11]
 800718e:	e055      	b.n	800723c <USBD_GetDescriptor+0x268>
 8007190:	687b      	ldr	r3, [r7, #4]
 8007192:	f8d3 32b0 	ldr.w	r3, [r3, #688]	; 0x2b0
 8007196:	691b      	ldr	r3, [r3, #16]
 8007198:	2b00      	cmp	r3, #0
 800719a:	d00b      	beq.n	80071b4 <USBD_GetDescriptor+0x1e0>
 800719c:	687b      	ldr	r3, [r7, #4]
 800719e:	f8d3 32b0 	ldr.w	r3, [r3, #688]	; 0x2b0
 80071a2:	691b      	ldr	r3, [r3, #16]
 80071a4:	687a      	ldr	r2, [r7, #4]
 80071a6:	7c12      	ldrb	r2, [r2, #16]
 80071a8:	f107 0108 	add.w	r1, r7, #8
 80071ac:	4610      	mov	r0, r2
 80071ae:	4798      	blx	r3
 80071b0:	60f8      	str	r0, [r7, #12]
 80071b2:	e043      	b.n	800723c <USBD_GetDescriptor+0x268>
 80071b4:	6839      	ldr	r1, [r7, #0]
 80071b6:	6878      	ldr	r0, [r7, #4]
 80071b8:	f000 fa47 	bl	800764a <USBD_CtlError>
 80071bc:	7afb      	ldrb	r3, [r7, #11]
 80071be:	3301      	adds	r3, #1
 80071c0:	72fb      	strb	r3, [r7, #11]
 80071c2:	e03b      	b.n	800723c <USBD_GetDescriptor+0x268>
 80071c4:	687b      	ldr	r3, [r7, #4]
 80071c6:	f8d3 32b0 	ldr.w	r3, [r3, #688]	; 0x2b0
 80071ca:	695b      	ldr	r3, [r3, #20]
 80071cc:	2b00      	cmp	r3, #0
 80071ce:	d00b      	beq.n	80071e8 <USBD_GetDescriptor+0x214>
 80071d0:	687b      	ldr	r3, [r7, #4]
 80071d2:	f8d3 32b0 	ldr.w	r3, [r3, #688]	; 0x2b0
 80071d6:	695b      	ldr	r3, [r3, #20]
 80071d8:	687a      	ldr	r2, [r7, #4]
 80071da:	7c12      	ldrb	r2, [r2, #16]
 80071dc:	f107 0108 	add.w	r1, r7, #8
 80071e0:	4610      	mov	r0, r2
 80071e2:	4798      	blx	r3
 80071e4:	60f8      	str	r0, [r7, #12]
 80071e6:	e029      	b.n	800723c <USBD_GetDescriptor+0x268>
 80071e8:	6839      	ldr	r1, [r7, #0]
 80071ea:	6878      	ldr	r0, [r7, #4]
 80071ec:	f000 fa2d 	bl	800764a <USBD_CtlError>
 80071f0:	7afb      	ldrb	r3, [r7, #11]
 80071f2:	3301      	adds	r3, #1
 80071f4:	72fb      	strb	r3, [r7, #11]
 80071f6:	e021      	b.n	800723c <USBD_GetDescriptor+0x268>
 80071f8:	687b      	ldr	r3, [r7, #4]
 80071fa:	f8d3 32b0 	ldr.w	r3, [r3, #688]	; 0x2b0
 80071fe:	699b      	ldr	r3, [r3, #24]
 8007200:	2b00      	cmp	r3, #0
 8007202:	d00b      	beq.n	800721c <USBD_GetDescriptor+0x248>
 8007204:	687b      	ldr	r3, [r7, #4]
 8007206:	f8d3 32b0 	ldr.w	r3, [r3, #688]	; 0x2b0
 800720a:	699b      	ldr	r3, [r3, #24]
 800720c:	687a      	ldr	r2, [r7, #4]
 800720e:	7c12      	ldrb	r2, [r2, #16]
 8007210:	f107 0108 	add.w	r1, r7, #8
 8007214:	4610      	mov	r0, r2
 8007216:	4798      	blx	r3
 8007218:	60f8      	str	r0, [r7, #12]
 800721a:	e00f      	b.n	800723c <USBD_GetDescriptor+0x268>
 800721c:	6839      	ldr	r1, [r7, #0]
 800721e:	6878      	ldr	r0, [r7, #4]
 8007220:	f000 fa13 	bl	800764a <USBD_CtlError>
 8007224:	7afb      	ldrb	r3, [r7, #11]
 8007226:	3301      	adds	r3, #1
 8007228:	72fb      	strb	r3, [r7, #11]
 800722a:	e007      	b.n	800723c <USBD_GetDescriptor+0x268>
 800722c:	6839      	ldr	r1, [r7, #0]
 800722e:	6878      	ldr	r0, [r7, #4]
 8007230:	f000 fa0b 	bl	800764a <USBD_CtlError>
 8007234:	7afb      	ldrb	r3, [r7, #11]
 8007236:	3301      	adds	r3, #1
 8007238:	72fb      	strb	r3, [r7, #11]
 800723a:	e038      	b.n	80072ae <USBD_GetDescriptor+0x2da>
 800723c:	e037      	b.n	80072ae <USBD_GetDescriptor+0x2da>
 800723e:	687b      	ldr	r3, [r7, #4]
 8007240:	7c1b      	ldrb	r3, [r3, #16]
 8007242:	2b00      	cmp	r3, #0
 8007244:	d109      	bne.n	800725a <USBD_GetDescriptor+0x286>
 8007246:	687b      	ldr	r3, [r7, #4]
 8007248:	f8d3 32b4 	ldr.w	r3, [r3, #692]	; 0x2b4
 800724c:	6b5b      	ldr	r3, [r3, #52]	; 0x34
 800724e:	f107 0208 	add.w	r2, r7, #8
 8007252:	4610      	mov	r0, r2
 8007254:	4798      	blx	r3
 8007256:	60f8      	str	r0, [r7, #12]
 8007258:	e029      	b.n	80072ae <USBD_GetDescriptor+0x2da>
 800725a:	6839      	ldr	r1, [r7, #0]
 800725c:	6878      	ldr	r0, [r7, #4]
 800725e:	f000 f9f4 	bl	800764a <USBD_CtlError>
 8007262:	7afb      	ldrb	r3, [r7, #11]
 8007264:	3301      	adds	r3, #1
 8007266:	72fb      	strb	r3, [r7, #11]
 8007268:	e021      	b.n	80072ae <USBD_GetDescriptor+0x2da>
 800726a:	687b      	ldr	r3, [r7, #4]
 800726c:	7c1b      	ldrb	r3, [r3, #16]
 800726e:	2b00      	cmp	r3, #0
 8007270:	d10d      	bne.n	800728e <USBD_GetDescriptor+0x2ba>
 8007272:	687b      	ldr	r3, [r7, #4]
 8007274:	f8d3 32b4 	ldr.w	r3, [r3, #692]	; 0x2b4
 8007278:	6b1b      	ldr	r3, [r3, #48]	; 0x30
 800727a:	f107 0208 	add.w	r2, r7, #8
 800727e:	4610      	mov	r0, r2
 8007280:	4798      	blx	r3
 8007282:	60f8      	str	r0, [r7, #12]
 8007284:	68fb      	ldr	r3, [r7, #12]
 8007286:	3301      	adds	r3, #1
 8007288:	2207      	movs	r2, #7
 800728a:	701a      	strb	r2, [r3, #0]
 800728c:	e00f      	b.n	80072ae <USBD_GetDescriptor+0x2da>
 800728e:	6839      	ldr	r1, [r7, #0]
 8007290:	6878      	ldr	r0, [r7, #4]
 8007292:	f000 f9da 	bl	800764a <USBD_CtlError>
 8007296:	7afb      	ldrb	r3, [r7, #11]
 8007298:	3301      	adds	r3, #1
 800729a:	72fb      	strb	r3, [r7, #11]
 800729c:	e007      	b.n	80072ae <USBD_GetDescriptor+0x2da>
 800729e:	6839      	ldr	r1, [r7, #0]
 80072a0:	6878      	ldr	r0, [r7, #4]
 80072a2:	f000 f9d2 	bl	800764a <USBD_CtlError>
 80072a6:	7afb      	ldrb	r3, [r7, #11]
 80072a8:	3301      	adds	r3, #1
 80072aa:	72fb      	strb	r3, [r7, #11]
 80072ac:	bf00      	nop
 80072ae:	7afb      	ldrb	r3, [r7, #11]
 80072b0:	2b00      	cmp	r3, #0
 80072b2:	d11c      	bne.n	80072ee <USBD_GetDescriptor+0x31a>
 80072b4:	893b      	ldrh	r3, [r7, #8]
 80072b6:	2b00      	cmp	r3, #0
 80072b8:	d011      	beq.n	80072de <USBD_GetDescriptor+0x30a>
 80072ba:	683b      	ldr	r3, [r7, #0]
 80072bc:	88db      	ldrh	r3, [r3, #6]
 80072be:	2b00      	cmp	r3, #0
 80072c0:	d00d      	beq.n	80072de <USBD_GetDescriptor+0x30a>
 80072c2:	683b      	ldr	r3, [r7, #0]
 80072c4:	88da      	ldrh	r2, [r3, #6]
 80072c6:	893b      	ldrh	r3, [r7, #8]
 80072c8:	4293      	cmp	r3, r2
 80072ca:	bf28      	it	cs
 80072cc:	4613      	movcs	r3, r2
 80072ce:	b29b      	uxth	r3, r3
 80072d0:	813b      	strh	r3, [r7, #8]
 80072d2:	893b      	ldrh	r3, [r7, #8]
 80072d4:	461a      	mov	r2, r3
 80072d6:	68f9      	ldr	r1, [r7, #12]
 80072d8:	6878      	ldr	r0, [r7, #4]
 80072da:	f000 fa21 	bl	8007720 <USBD_CtlSendData>
 80072de:	683b      	ldr	r3, [r7, #0]
 80072e0:	88db      	ldrh	r3, [r3, #6]
 80072e2:	2b00      	cmp	r3, #0
 80072e4:	d104      	bne.n	80072f0 <USBD_GetDescriptor+0x31c>
 80072e6:	6878      	ldr	r0, [r7, #4]
 80072e8:	f000 fa78 	bl	80077dc <USBD_CtlSendStatus>
 80072ec:	e000      	b.n	80072f0 <USBD_GetDescriptor+0x31c>
 80072ee:	bf00      	nop
 80072f0:	3710      	adds	r7, #16
 80072f2:	46bd      	mov	sp, r7
 80072f4:	bd80      	pop	{r7, pc}
 80072f6:	bf00      	nop

080072f8 <USBD_SetAddress>:
 80072f8:	b580      	push	{r7, lr}
 80072fa:	b084      	sub	sp, #16
 80072fc:	af00      	add	r7, sp, #0
 80072fe:	6078      	str	r0, [r7, #4]
 8007300:	6039      	str	r1, [r7, #0]
 8007302:	683b      	ldr	r3, [r7, #0]
 8007304:	889b      	ldrh	r3, [r3, #4]
 8007306:	2b00      	cmp	r3, #0
 8007308:	d130      	bne.n	800736c <USBD_SetAddress+0x74>
 800730a:	683b      	ldr	r3, [r7, #0]
 800730c:	88db      	ldrh	r3, [r3, #6]
 800730e:	2b00      	cmp	r3, #0
 8007310:	d12c      	bne.n	800736c <USBD_SetAddress+0x74>
 8007312:	683b      	ldr	r3, [r7, #0]
 8007314:	885b      	ldrh	r3, [r3, #2]
 8007316:	2b7f      	cmp	r3, #127	; 0x7f
 8007318:	d828      	bhi.n	800736c <USBD_SetAddress+0x74>
 800731a:	683b      	ldr	r3, [r7, #0]
 800731c:	885b      	ldrh	r3, [r3, #2]
 800731e:	b2db      	uxtb	r3, r3
 8007320:	f003 037f 	and.w	r3, r3, #127	; 0x7f
 8007324:	73fb      	strb	r3, [r7, #15]
 8007326:	687b      	ldr	r3, [r7, #4]
 8007328:	f893 329c 	ldrb.w	r3, [r3, #668]	; 0x29c
 800732c:	2b03      	cmp	r3, #3
 800732e:	d104      	bne.n	800733a <USBD_SetAddress+0x42>
 8007330:	6839      	ldr	r1, [r7, #0]
 8007332:	6878      	ldr	r0, [r7, #4]
 8007334:	f000 f989 	bl	800764a <USBD_CtlError>
 8007338:	e01c      	b.n	8007374 <USBD_SetAddress+0x7c>
 800733a:	687b      	ldr	r3, [r7, #4]
 800733c:	7bfa      	ldrb	r2, [r7, #15]
 800733e:	f883 229e 	strb.w	r2, [r3, #670]	; 0x29e
 8007342:	7bfb      	ldrb	r3, [r7, #15]
 8007344:	4619      	mov	r1, r3
 8007346:	6878      	ldr	r0, [r7, #4]
 8007348:	f000 fe4a 	bl	8007fe0 <USBD_LL_SetUSBAddress>
 800734c:	6878      	ldr	r0, [r7, #4]
 800734e:	f000 fa45 	bl	80077dc <USBD_CtlSendStatus>
 8007352:	7bfb      	ldrb	r3, [r7, #15]
 8007354:	2b00      	cmp	r3, #0
 8007356:	d004      	beq.n	8007362 <USBD_SetAddress+0x6a>
 8007358:	687b      	ldr	r3, [r7, #4]
 800735a:	2202      	movs	r2, #2
 800735c:	f883 229c 	strb.w	r2, [r3, #668]	; 0x29c
 8007360:	e008      	b.n	8007374 <USBD_SetAddress+0x7c>
 8007362:	687b      	ldr	r3, [r7, #4]
 8007364:	2201      	movs	r2, #1
 8007366:	f883 229c 	strb.w	r2, [r3, #668]	; 0x29c
 800736a:	e003      	b.n	8007374 <USBD_SetAddress+0x7c>
 800736c:	6839      	ldr	r1, [r7, #0]
 800736e:	6878      	ldr	r0, [r7, #4]
 8007370:	f000 f96b 	bl	800764a <USBD_CtlError>
 8007374:	bf00      	nop
 8007376:	3710      	adds	r7, #16
 8007378:	46bd      	mov	sp, r7
 800737a:	bd80      	pop	{r7, pc}

0800737c <USBD_SetConfig>:
 800737c:	b580      	push	{r7, lr}
 800737e:	b082      	sub	sp, #8
 8007380:	af00      	add	r7, sp, #0
 8007382:	6078      	str	r0, [r7, #4]
 8007384:	6039      	str	r1, [r7, #0]
 8007386:	683b      	ldr	r3, [r7, #0]
 8007388:	885b      	ldrh	r3, [r3, #2]
 800738a:	b2da      	uxtb	r2, r3
 800738c:	4b41      	ldr	r3, [pc, #260]	; (8007494 <USBD_SetConfig+0x118>)
 800738e:	701a      	strb	r2, [r3, #0]
 8007390:	4b40      	ldr	r3, [pc, #256]	; (8007494 <USBD_SetConfig+0x118>)
 8007392:	781b      	ldrb	r3, [r3, #0]
 8007394:	2b01      	cmp	r3, #1
 8007396:	d904      	bls.n	80073a2 <USBD_SetConfig+0x26>
 8007398:	6839      	ldr	r1, [r7, #0]
 800739a:	6878      	ldr	r0, [r7, #4]
 800739c:	f000 f955 	bl	800764a <USBD_CtlError>
 80073a0:	e075      	b.n	800748e <USBD_SetConfig+0x112>
 80073a2:	687b      	ldr	r3, [r7, #4]
 80073a4:	f893 329c 	ldrb.w	r3, [r3, #668]	; 0x29c
 80073a8:	2b02      	cmp	r3, #2
 80073aa:	d002      	beq.n	80073b2 <USBD_SetConfig+0x36>
 80073ac:	2b03      	cmp	r3, #3
 80073ae:	d023      	beq.n	80073f8 <USBD_SetConfig+0x7c>
 80073b0:	e062      	b.n	8007478 <USBD_SetConfig+0xfc>
 80073b2:	4b38      	ldr	r3, [pc, #224]	; (8007494 <USBD_SetConfig+0x118>)
 80073b4:	781b      	ldrb	r3, [r3, #0]
 80073b6:	2b00      	cmp	r3, #0
 80073b8:	d01a      	beq.n	80073f0 <USBD_SetConfig+0x74>
 80073ba:	4b36      	ldr	r3, [pc, #216]	; (8007494 <USBD_SetConfig+0x118>)
 80073bc:	781b      	ldrb	r3, [r3, #0]
 80073be:	461a      	mov	r2, r3
 80073c0:	687b      	ldr	r3, [r7, #4]
 80073c2:	605a      	str	r2, [r3, #4]
 80073c4:	687b      	ldr	r3, [r7, #4]
 80073c6:	2203      	movs	r2, #3
 80073c8:	f883 229c 	strb.w	r2, [r3, #668]	; 0x29c
 80073cc:	4b31      	ldr	r3, [pc, #196]	; (8007494 <USBD_SetConfig+0x118>)
 80073ce:	781b      	ldrb	r3, [r3, #0]
 80073d0:	4619      	mov	r1, r3
 80073d2:	6878      	ldr	r0, [r7, #4]
 80073d4:	f7ff f9c7 	bl	8006766 <USBD_SetClassConfig>
 80073d8:	4603      	mov	r3, r0
 80073da:	2b02      	cmp	r3, #2
 80073dc:	d104      	bne.n	80073e8 <USBD_SetConfig+0x6c>
 80073de:	6839      	ldr	r1, [r7, #0]
 80073e0:	6878      	ldr	r0, [r7, #4]
 80073e2:	f000 f932 	bl	800764a <USBD_CtlError>
 80073e6:	e052      	b.n	800748e <USBD_SetConfig+0x112>
 80073e8:	6878      	ldr	r0, [r7, #4]
 80073ea:	f000 f9f7 	bl	80077dc <USBD_CtlSendStatus>
 80073ee:	e04e      	b.n	800748e <USBD_SetConfig+0x112>
 80073f0:	6878      	ldr	r0, [r7, #4]
 80073f2:	f000 f9f3 	bl	80077dc <USBD_CtlSendStatus>
 80073f6:	e04a      	b.n	800748e <USBD_SetConfig+0x112>
 80073f8:	4b26      	ldr	r3, [pc, #152]	; (8007494 <USBD_SetConfig+0x118>)
 80073fa:	781b      	ldrb	r3, [r3, #0]
 80073fc:	2b00      	cmp	r3, #0
 80073fe:	d112      	bne.n	8007426 <USBD_SetConfig+0xaa>
 8007400:	687b      	ldr	r3, [r7, #4]
 8007402:	2202      	movs	r2, #2
 8007404:	f883 229c 	strb.w	r2, [r3, #668]	; 0x29c
 8007408:	4b22      	ldr	r3, [pc, #136]	; (8007494 <USBD_SetConfig+0x118>)
 800740a:	781b      	ldrb	r3, [r3, #0]
 800740c:	461a      	mov	r2, r3
 800740e:	687b      	ldr	r3, [r7, #4]
 8007410:	605a      	str	r2, [r3, #4]
 8007412:	4b20      	ldr	r3, [pc, #128]	; (8007494 <USBD_SetConfig+0x118>)
 8007414:	781b      	ldrb	r3, [r3, #0]
 8007416:	4619      	mov	r1, r3
 8007418:	6878      	ldr	r0, [r7, #4]
 800741a:	f7ff f9c3 	bl	80067a4 <USBD_ClrClassConfig>
 800741e:	6878      	ldr	r0, [r7, #4]
 8007420:	f000 f9dc 	bl	80077dc <USBD_CtlSendStatus>
 8007424:	e033      	b.n	800748e <USBD_SetConfig+0x112>
 8007426:	4b1b      	ldr	r3, [pc, #108]	; (8007494 <USBD_SetConfig+0x118>)
 8007428:	781b      	ldrb	r3, [r3, #0]
 800742a:	461a      	mov	r2, r3
 800742c:	687b      	ldr	r3, [r7, #4]
 800742e:	685b      	ldr	r3, [r3, #4]
 8007430:	429a      	cmp	r2, r3
 8007432:	d01d      	beq.n	8007470 <USBD_SetConfig+0xf4>
 8007434:	687b      	ldr	r3, [r7, #4]
 8007436:	685b      	ldr	r3, [r3, #4]
 8007438:	b2db      	uxtb	r3, r3
 800743a:	4619      	mov	r1, r3
 800743c:	6878      	ldr	r0, [r7, #4]
 800743e:	f7ff f9b1 	bl	80067a4 <USBD_ClrClassConfig>
 8007442:	4b14      	ldr	r3, [pc, #80]	; (8007494 <USBD_SetConfig+0x118>)
 8007444:	781b      	ldrb	r3, [r3, #0]
 8007446:	461a      	mov	r2, r3
 8007448:	687b      	ldr	r3, [r7, #4]
 800744a:	605a      	str	r2, [r3, #4]
 800744c:	4b11      	ldr	r3, [pc, #68]	; (8007494 <USBD_SetConfig+0x118>)
 800744e:	781b      	ldrb	r3, [r3, #0]
 8007450:	4619      	mov	r1, r3
 8007452:	6878      	ldr	r0, [r7, #4]
 8007454:	f7ff f987 	bl	8006766 <USBD_SetClassConfig>
 8007458:	4603      	mov	r3, r0
 800745a:	2b02      	cmp	r3, #2
 800745c:	d104      	bne.n	8007468 <USBD_SetConfig+0xec>
 800745e:	6839      	ldr	r1, [r7, #0]
 8007460:	6878      	ldr	r0, [r7, #4]
 8007462:	f000 f8f2 	bl	800764a <USBD_CtlError>
 8007466:	e012      	b.n	800748e <USBD_SetConfig+0x112>
 8007468:	6878      	ldr	r0, [r7, #4]
 800746a:	f000 f9b7 	bl	80077dc <USBD_CtlSendStatus>
 800746e:	e00e      	b.n	800748e <USBD_SetConfig+0x112>
 8007470:	6878      	ldr	r0, [r7, #4]
 8007472:	f000 f9b3 	bl	80077dc <USBD_CtlSendStatus>
 8007476:	e00a      	b.n	800748e <USBD_SetConfig+0x112>
 8007478:	6839      	ldr	r1, [r7, #0]
 800747a:	6878      	ldr	r0, [r7, #4]
 800747c:	f000 f8e5 	bl	800764a <USBD_CtlError>
 8007480:	4b04      	ldr	r3, [pc, #16]	; (8007494 <USBD_SetConfig+0x118>)
 8007482:	781b      	ldrb	r3, [r3, #0]
 8007484:	4619      	mov	r1, r3
 8007486:	6878      	ldr	r0, [r7, #4]
 8007488:	f7ff f98c 	bl	80067a4 <USBD_ClrClassConfig>
 800748c:	bf00      	nop
 800748e:	3708      	adds	r7, #8
 8007490:	46bd      	mov	sp, r7
 8007492:	bd80      	pop	{r7, pc}
 8007494:	20001402 	.word	0x20001402

08007498 <USBD_GetConfig>:
 8007498:	b580      	push	{r7, lr}
 800749a:	b082      	sub	sp, #8
 800749c:	af00      	add	r7, sp, #0
 800749e:	6078      	str	r0, [r7, #4]
 80074a0:	6039      	str	r1, [r7, #0]
 80074a2:	683b      	ldr	r3, [r7, #0]
 80074a4:	88db      	ldrh	r3, [r3, #6]
 80074a6:	2b01      	cmp	r3, #1
 80074a8:	d004      	beq.n	80074b4 <USBD_GetConfig+0x1c>
 80074aa:	6839      	ldr	r1, [r7, #0]
 80074ac:	6878      	ldr	r0, [r7, #4]
 80074ae:	f000 f8cc 	bl	800764a <USBD_CtlError>
 80074b2:	e021      	b.n	80074f8 <USBD_GetConfig+0x60>
 80074b4:	687b      	ldr	r3, [r7, #4]
 80074b6:	f893 329c 	ldrb.w	r3, [r3, #668]	; 0x29c
 80074ba:	2b01      	cmp	r3, #1
 80074bc:	db17      	blt.n	80074ee <USBD_GetConfig+0x56>
 80074be:	2b02      	cmp	r3, #2
 80074c0:	dd02      	ble.n	80074c8 <USBD_GetConfig+0x30>
 80074c2:	2b03      	cmp	r3, #3
 80074c4:	d00b      	beq.n	80074de <USBD_GetConfig+0x46>
 80074c6:	e012      	b.n	80074ee <USBD_GetConfig+0x56>
 80074c8:	687b      	ldr	r3, [r7, #4]
 80074ca:	2200      	movs	r2, #0
 80074cc:	609a      	str	r2, [r3, #8]
 80074ce:	687b      	ldr	r3, [r7, #4]
 80074d0:	3308      	adds	r3, #8
 80074d2:	2201      	movs	r2, #1
 80074d4:	4619      	mov	r1, r3
 80074d6:	6878      	ldr	r0, [r7, #4]
 80074d8:	f000 f922 	bl	8007720 <USBD_CtlSendData>
 80074dc:	e00c      	b.n	80074f8 <USBD_GetConfig+0x60>
 80074de:	687b      	ldr	r3, [r7, #4]
 80074e0:	3304      	adds	r3, #4
 80074e2:	2201      	movs	r2, #1
 80074e4:	4619      	mov	r1, r3
 80074e6:	6878      	ldr	r0, [r7, #4]
 80074e8:	f000 f91a 	bl	8007720 <USBD_CtlSendData>
 80074ec:	e004      	b.n	80074f8 <USBD_GetConfig+0x60>
 80074ee:	6839      	ldr	r1, [r7, #0]
 80074f0:	6878      	ldr	r0, [r7, #4]
 80074f2:	f000 f8aa 	bl	800764a <USBD_CtlError>
 80074f6:	bf00      	nop
 80074f8:	bf00      	nop
 80074fa:	3708      	adds	r7, #8
 80074fc:	46bd      	mov	sp, r7
 80074fe:	bd80      	pop	{r7, pc}

08007500 <USBD_GetStatus>:
 8007500:	b580      	push	{r7, lr}
 8007502:	b082      	sub	sp, #8
 8007504:	af00      	add	r7, sp, #0
 8007506:	6078      	str	r0, [r7, #4]
 8007508:	6039      	str	r1, [r7, #0]
 800750a:	687b      	ldr	r3, [r7, #4]
 800750c:	f893 329c 	ldrb.w	r3, [r3, #668]	; 0x29c
 8007510:	3b01      	subs	r3, #1
 8007512:	2b02      	cmp	r3, #2
 8007514:	d81e      	bhi.n	8007554 <USBD_GetStatus+0x54>
 8007516:	683b      	ldr	r3, [r7, #0]
 8007518:	88db      	ldrh	r3, [r3, #6]
 800751a:	2b02      	cmp	r3, #2
 800751c:	d004      	beq.n	8007528 <USBD_GetStatus+0x28>
 800751e:	6839      	ldr	r1, [r7, #0]
 8007520:	6878      	ldr	r0, [r7, #4]
 8007522:	f000 f892 	bl	800764a <USBD_CtlError>
 8007526:	e01a      	b.n	800755e <USBD_GetStatus+0x5e>
 8007528:	687b      	ldr	r3, [r7, #4]
 800752a:	2201      	movs	r2, #1
 800752c:	60da      	str	r2, [r3, #12]
 800752e:	687b      	ldr	r3, [r7, #4]
 8007530:	f8d3 32a4 	ldr.w	r3, [r3, #676]	; 0x2a4
 8007534:	2b00      	cmp	r3, #0
 8007536:	d005      	beq.n	8007544 <USBD_GetStatus+0x44>
 8007538:	687b      	ldr	r3, [r7, #4]
 800753a:	68db      	ldr	r3, [r3, #12]
 800753c:	f043 0202 	orr.w	r2, r3, #2
 8007540:	687b      	ldr	r3, [r7, #4]
 8007542:	60da      	str	r2, [r3, #12]
 8007544:	687b      	ldr	r3, [r7, #4]
 8007546:	330c      	adds	r3, #12
 8007548:	2202      	movs	r2, #2
 800754a:	4619      	mov	r1, r3
 800754c:	6878      	ldr	r0, [r7, #4]
 800754e:	f000 f8e7 	bl	8007720 <USBD_CtlSendData>
 8007552:	e004      	b.n	800755e <USBD_GetStatus+0x5e>
 8007554:	6839      	ldr	r1, [r7, #0]
 8007556:	6878      	ldr	r0, [r7, #4]
 8007558:	f000 f877 	bl	800764a <USBD_CtlError>
 800755c:	bf00      	nop
 800755e:	bf00      	nop
 8007560:	3708      	adds	r7, #8
 8007562:	46bd      	mov	sp, r7
 8007564:	bd80      	pop	{r7, pc}

08007566 <USBD_SetFeature>:
 8007566:	b580      	push	{r7, lr}
 8007568:	b082      	sub	sp, #8
 800756a:	af00      	add	r7, sp, #0
 800756c:	6078      	str	r0, [r7, #4]
 800756e:	6039      	str	r1, [r7, #0]
 8007570:	683b      	ldr	r3, [r7, #0]
 8007572:	885b      	ldrh	r3, [r3, #2]
 8007574:	2b01      	cmp	r3, #1
 8007576:	d106      	bne.n	8007586 <USBD_SetFeature+0x20>
 8007578:	687b      	ldr	r3, [r7, #4]
 800757a:	2201      	movs	r2, #1
 800757c:	f8c3 22a4 	str.w	r2, [r3, #676]	; 0x2a4
 8007580:	6878      	ldr	r0, [r7, #4]
 8007582:	f000 f92b 	bl	80077dc <USBD_CtlSendStatus>
 8007586:	bf00      	nop
 8007588:	3708      	adds	r7, #8
 800758a:	46bd      	mov	sp, r7
 800758c:	bd80      	pop	{r7, pc}

0800758e <USBD_ClrFeature>:
 800758e:	b580      	push	{r7, lr}
 8007590:	b082      	sub	sp, #8
 8007592:	af00      	add	r7, sp, #0
 8007594:	6078      	str	r0, [r7, #4]
 8007596:	6039      	str	r1, [r7, #0]
 8007598:	687b      	ldr	r3, [r7, #4]
 800759a:	f893 329c 	ldrb.w	r3, [r3, #668]	; 0x29c
 800759e:	3b01      	subs	r3, #1
 80075a0:	2b02      	cmp	r3, #2
 80075a2:	d80b      	bhi.n	80075bc <USBD_ClrFeature+0x2e>
 80075a4:	683b      	ldr	r3, [r7, #0]
 80075a6:	885b      	ldrh	r3, [r3, #2]
 80075a8:	2b01      	cmp	r3, #1
 80075aa:	d10c      	bne.n	80075c6 <USBD_ClrFeature+0x38>
 80075ac:	687b      	ldr	r3, [r7, #4]
 80075ae:	2200      	movs	r2, #0
 80075b0:	f8c3 22a4 	str.w	r2, [r3, #676]	; 0x2a4
 80075b4:	6878      	ldr	r0, [r7, #4]
 80075b6:	f000 f911 	bl	80077dc <USBD_CtlSendStatus>
 80075ba:	e004      	b.n	80075c6 <USBD_ClrFeature+0x38>
 80075bc:	6839      	ldr	r1, [r7, #0]
 80075be:	6878      	ldr	r0, [r7, #4]
 80075c0:	f000 f843 	bl	800764a <USBD_CtlError>
 80075c4:	e000      	b.n	80075c8 <USBD_ClrFeature+0x3a>
 80075c6:	bf00      	nop
 80075c8:	bf00      	nop
 80075ca:	3708      	adds	r7, #8
 80075cc:	46bd      	mov	sp, r7
 80075ce:	bd80      	pop	{r7, pc}

080075d0 <USBD_ParseSetupRequest>:
 80075d0:	b480      	push	{r7}
 80075d2:	b083      	sub	sp, #12
 80075d4:	af00      	add	r7, sp, #0
 80075d6:	6078      	str	r0, [r7, #4]
 80075d8:	6039      	str	r1, [r7, #0]
 80075da:	683b      	ldr	r3, [r7, #0]
 80075dc:	781a      	ldrb	r2, [r3, #0]
 80075de:	687b      	ldr	r3, [r7, #4]
 80075e0:	701a      	strb	r2, [r3, #0]
 80075e2:	683b      	ldr	r3, [r7, #0]
 80075e4:	785a      	ldrb	r2, [r3, #1]
 80075e6:	687b      	ldr	r3, [r7, #4]
 80075e8:	705a      	strb	r2, [r3, #1]
 80075ea:	683b      	ldr	r3, [r7, #0]
 80075ec:	3302      	adds	r3, #2
 80075ee:	781b      	ldrb	r3, [r3, #0]
 80075f0:	b29a      	uxth	r2, r3
 80075f2:	683b      	ldr	r3, [r7, #0]
 80075f4:	3303      	adds	r3, #3
 80075f6:	781b      	ldrb	r3, [r3, #0]
 80075f8:	b29b      	uxth	r3, r3
 80075fa:	021b      	lsls	r3, r3, #8
 80075fc:	b29b      	uxth	r3, r3
 80075fe:	4413      	add	r3, r2
 8007600:	b29a      	uxth	r2, r3
 8007602:	687b      	ldr	r3, [r7, #4]
 8007604:	805a      	strh	r2, [r3, #2]
 8007606:	683b      	ldr	r3, [r7, #0]
 8007608:	3304      	adds	r3, #4
 800760a:	781b      	ldrb	r3, [r3, #0]
 800760c:	b29a      	uxth	r2, r3
 800760e:	683b      	ldr	r3, [r7, #0]
 8007610:	3305      	adds	r3, #5
 8007612:	781b      	ldrb	r3, [r3, #0]
 8007614:	b29b      	uxth	r3, r3
 8007616:	021b      	lsls	r3, r3, #8
 8007618:	b29b      	uxth	r3, r3
 800761a:	4413      	add	r3, r2
 800761c:	b29a      	uxth	r2, r3
 800761e:	687b      	ldr	r3, [r7, #4]
 8007620:	809a      	strh	r2, [r3, #4]
 8007622:	683b      	ldr	r3, [r7, #0]
 8007624:	3306      	adds	r3, #6
 8007626:	781b      	ldrb	r3, [r3, #0]
 8007628:	b29a      	uxth	r2, r3
 800762a:	683b      	ldr	r3, [r7, #0]
 800762c:	3307      	adds	r3, #7
 800762e:	781b      	ldrb	r3, [r3, #0]
 8007630:	b29b      	uxth	r3, r3
 8007632:	021b      	lsls	r3, r3, #8
 8007634:	b29b      	uxth	r3, r3
 8007636:	4413      	add	r3, r2
 8007638:	b29a      	uxth	r2, r3
 800763a:	687b      	ldr	r3, [r7, #4]
 800763c:	80da      	strh	r2, [r3, #6]
 800763e:	bf00      	nop
 8007640:	370c      	adds	r7, #12
 8007642:	46bd      	mov	sp, r7
 8007644:	f85d 7b04 	ldr.w	r7, [sp], #4
 8007648:	4770      	bx	lr

0800764a <USBD_CtlError>:
 800764a:	b580      	push	{r7, lr}
 800764c:	b082      	sub	sp, #8
 800764e:	af00      	add	r7, sp, #0
 8007650:	6078      	str	r0, [r7, #4]
 8007652:	6039      	str	r1, [r7, #0]
 8007654:	2180      	movs	r1, #128	; 0x80
 8007656:	6878      	ldr	r0, [r7, #4]
 8007658:	f000 fc5e 	bl	8007f18 <USBD_LL_StallEP>
 800765c:	2100      	movs	r1, #0
 800765e:	6878      	ldr	r0, [r7, #4]
 8007660:	f000 fc5a 	bl	8007f18 <USBD_LL_StallEP>
 8007664:	bf00      	nop
 8007666:	3708      	adds	r7, #8
 8007668:	46bd      	mov	sp, r7
 800766a:	bd80      	pop	{r7, pc}

0800766c <USBD_GetString>:
 800766c:	b580      	push	{r7, lr}
 800766e:	b086      	sub	sp, #24
 8007670:	af00      	add	r7, sp, #0
 8007672:	60f8      	str	r0, [r7, #12]
 8007674:	60b9      	str	r1, [r7, #8]
 8007676:	607a      	str	r2, [r7, #4]
 8007678:	2300      	movs	r3, #0
 800767a:	75fb      	strb	r3, [r7, #23]
 800767c:	68fb      	ldr	r3, [r7, #12]
 800767e:	2b00      	cmp	r3, #0
 8007680:	d032      	beq.n	80076e8 <USBD_GetString+0x7c>
 8007682:	68f8      	ldr	r0, [r7, #12]
 8007684:	f000 f834 	bl	80076f0 <USBD_GetLen>
 8007688:	4603      	mov	r3, r0
 800768a:	3301      	adds	r3, #1
 800768c:	b29b      	uxth	r3, r3
 800768e:	005b      	lsls	r3, r3, #1
 8007690:	b29a      	uxth	r2, r3
 8007692:	687b      	ldr	r3, [r7, #4]
 8007694:	801a      	strh	r2, [r3, #0]
 8007696:	7dfb      	ldrb	r3, [r7, #23]
 8007698:	1c5a      	adds	r2, r3, #1
 800769a:	75fa      	strb	r2, [r7, #23]
 800769c:	461a      	mov	r2, r3
 800769e:	68bb      	ldr	r3, [r7, #8]
 80076a0:	4413      	add	r3, r2
 80076a2:	687a      	ldr	r2, [r7, #4]
 80076a4:	7812      	ldrb	r2, [r2, #0]
 80076a6:	701a      	strb	r2, [r3, #0]
 80076a8:	7dfb      	ldrb	r3, [r7, #23]
 80076aa:	1c5a      	adds	r2, r3, #1
 80076ac:	75fa      	strb	r2, [r7, #23]
 80076ae:	461a      	mov	r2, r3
 80076b0:	68bb      	ldr	r3, [r7, #8]
 80076b2:	4413      	add	r3, r2
 80076b4:	2203      	movs	r2, #3
 80076b6:	701a      	strb	r2, [r3, #0]
 80076b8:	e012      	b.n	80076e0 <USBD_GetString+0x74>
 80076ba:	68fb      	ldr	r3, [r7, #12]
 80076bc:	1c5a      	adds	r2, r3, #1
 80076be:	60fa      	str	r2, [r7, #12]
 80076c0:	7dfa      	ldrb	r2, [r7, #23]
 80076c2:	1c51      	adds	r1, r2, #1
 80076c4:	75f9      	strb	r1, [r7, #23]
 80076c6:	4611      	mov	r1, r2
 80076c8:	68ba      	ldr	r2, [r7, #8]
 80076ca:	440a      	add	r2, r1
 80076cc:	781b      	ldrb	r3, [r3, #0]
 80076ce:	7013      	strb	r3, [r2, #0]
 80076d0:	7dfb      	ldrb	r3, [r7, #23]
 80076d2:	1c5a      	adds	r2, r3, #1
 80076d4:	75fa      	strb	r2, [r7, #23]
 80076d6:	461a      	mov	r2, r3
 80076d8:	68bb      	ldr	r3, [r7, #8]
 80076da:	4413      	add	r3, r2
 80076dc:	2200      	movs	r2, #0
 80076de:	701a      	strb	r2, [r3, #0]
 80076e0:	68fb      	ldr	r3, [r7, #12]
 80076e2:	781b      	ldrb	r3, [r3, #0]
 80076e4:	2b00      	cmp	r3, #0
 80076e6:	d1e8      	bne.n	80076ba <USBD_GetString+0x4e>
 80076e8:	bf00      	nop
 80076ea:	3718      	adds	r7, #24
 80076ec:	46bd      	mov	sp, r7
 80076ee:	bd80      	pop	{r7, pc}

080076f0 <USBD_GetLen>:
 80076f0:	b480      	push	{r7}
 80076f2:	b085      	sub	sp, #20
 80076f4:	af00      	add	r7, sp, #0
 80076f6:	6078      	str	r0, [r7, #4]
 80076f8:	2300      	movs	r3, #0
 80076fa:	73fb      	strb	r3, [r7, #15]
 80076fc:	e005      	b.n	800770a <USBD_GetLen+0x1a>
 80076fe:	7bfb      	ldrb	r3, [r7, #15]
 8007700:	3301      	adds	r3, #1
 8007702:	73fb      	strb	r3, [r7, #15]
 8007704:	687b      	ldr	r3, [r7, #4]
 8007706:	3301      	adds	r3, #1
 8007708:	607b      	str	r3, [r7, #4]
 800770a:	687b      	ldr	r3, [r7, #4]
 800770c:	781b      	ldrb	r3, [r3, #0]
 800770e:	2b00      	cmp	r3, #0
 8007710:	d1f5      	bne.n	80076fe <USBD_GetLen+0xe>
 8007712:	7bfb      	ldrb	r3, [r7, #15]
 8007714:	4618      	mov	r0, r3
 8007716:	3714      	adds	r7, #20
 8007718:	46bd      	mov	sp, r7
 800771a:	f85d 7b04 	ldr.w	r7, [sp], #4
 800771e:	4770      	bx	lr

08007720 <USBD_CtlSendData>:
 8007720:	b580      	push	{r7, lr}
 8007722:	b084      	sub	sp, #16
 8007724:	af00      	add	r7, sp, #0
 8007726:	60f8      	str	r0, [r7, #12]
 8007728:	60b9      	str	r1, [r7, #8]
 800772a:	4613      	mov	r3, r2
 800772c:	80fb      	strh	r3, [r7, #6]
 800772e:	68fb      	ldr	r3, [r7, #12]
 8007730:	2202      	movs	r2, #2
 8007732:	f8c3 2294 	str.w	r2, [r3, #660]	; 0x294
 8007736:	88fa      	ldrh	r2, [r7, #6]
 8007738:	68fb      	ldr	r3, [r7, #12]
 800773a:	61da      	str	r2, [r3, #28]
 800773c:	88fa      	ldrh	r2, [r7, #6]
 800773e:	68fb      	ldr	r3, [r7, #12]
 8007740:	621a      	str	r2, [r3, #32]
 8007742:	88fb      	ldrh	r3, [r7, #6]
 8007744:	68ba      	ldr	r2, [r7, #8]
 8007746:	2100      	movs	r1, #0
 8007748:	68f8      	ldr	r0, [r7, #12]
 800774a:	f000 fc68 	bl	800801e <USBD_LL_Transmit>
 800774e:	2300      	movs	r3, #0
 8007750:	4618      	mov	r0, r3
 8007752:	3710      	adds	r7, #16
 8007754:	46bd      	mov	sp, r7
 8007756:	bd80      	pop	{r7, pc}

08007758 <USBD_CtlContinueSendData>:
 8007758:	b580      	push	{r7, lr}
 800775a:	b084      	sub	sp, #16
 800775c:	af00      	add	r7, sp, #0
 800775e:	60f8      	str	r0, [r7, #12]
 8007760:	60b9      	str	r1, [r7, #8]
 8007762:	4613      	mov	r3, r2
 8007764:	80fb      	strh	r3, [r7, #6]
 8007766:	88fb      	ldrh	r3, [r7, #6]
 8007768:	68ba      	ldr	r2, [r7, #8]
 800776a:	2100      	movs	r1, #0
 800776c:	68f8      	ldr	r0, [r7, #12]
 800776e:	f000 fc56 	bl	800801e <USBD_LL_Transmit>
 8007772:	2300      	movs	r3, #0
 8007774:	4618      	mov	r0, r3
 8007776:	3710      	adds	r7, #16
 8007778:	46bd      	mov	sp, r7
 800777a:	bd80      	pop	{r7, pc}

0800777c <USBD_CtlPrepareRx>:
 800777c:	b580      	push	{r7, lr}
 800777e:	b084      	sub	sp, #16
 8007780:	af00      	add	r7, sp, #0
 8007782:	60f8      	str	r0, [r7, #12]
 8007784:	60b9      	str	r1, [r7, #8]
 8007786:	4613      	mov	r3, r2
 8007788:	80fb      	strh	r3, [r7, #6]
 800778a:	68fb      	ldr	r3, [r7, #12]
 800778c:	2203      	movs	r2, #3
 800778e:	f8c3 2294 	str.w	r2, [r3, #660]	; 0x294
 8007792:	88fa      	ldrh	r2, [r7, #6]
 8007794:	68fb      	ldr	r3, [r7, #12]
 8007796:	f8c3 215c 	str.w	r2, [r3, #348]	; 0x15c
 800779a:	88fa      	ldrh	r2, [r7, #6]
 800779c:	68fb      	ldr	r3, [r7, #12]
 800779e:	f8c3 2160 	str.w	r2, [r3, #352]	; 0x160
 80077a2:	88fb      	ldrh	r3, [r7, #6]
 80077a4:	68ba      	ldr	r2, [r7, #8]
 80077a6:	2100      	movs	r1, #0
 80077a8:	68f8      	ldr	r0, [r7, #12]
 80077aa:	f000 fc5b 	bl	8008064 <USBD_LL_PrepareReceive>
 80077ae:	2300      	movs	r3, #0
 80077b0:	4618      	mov	r0, r3
 80077b2:	3710      	adds	r7, #16
 80077b4:	46bd      	mov	sp, r7
 80077b6:	bd80      	pop	{r7, pc}

080077b8 <USBD_CtlContinueRx>:
 80077b8:	b580      	push	{r7, lr}
 80077ba:	b084      	sub	sp, #16
 80077bc:	af00      	add	r7, sp, #0
 80077be:	60f8      	str	r0, [r7, #12]
 80077c0:	60b9      	str	r1, [r7, #8]
 80077c2:	4613      	mov	r3, r2
 80077c4:	80fb      	strh	r3, [r7, #6]
 80077c6:	88fb      	ldrh	r3, [r7, #6]
 80077c8:	68ba      	ldr	r2, [r7, #8]
 80077ca:	2100      	movs	r1, #0
 80077cc:	68f8      	ldr	r0, [r7, #12]
 80077ce:	f000 fc49 	bl	8008064 <USBD_LL_PrepareReceive>
 80077d2:	2300      	movs	r3, #0
 80077d4:	4618      	mov	r0, r3
 80077d6:	3710      	adds	r7, #16
 80077d8:	46bd      	mov	sp, r7
 80077da:	bd80      	pop	{r7, pc}

080077dc <USBD_CtlSendStatus>:
 80077dc:	b580      	push	{r7, lr}
 80077de:	b082      	sub	sp, #8
 80077e0:	af00      	add	r7, sp, #0
 80077e2:	6078      	str	r0, [r7, #4]
 80077e4:	687b      	ldr	r3, [r7, #4]
 80077e6:	2204      	movs	r2, #4
 80077e8:	f8c3 2294 	str.w	r2, [r3, #660]	; 0x294
 80077ec:	2300      	movs	r3, #0
 80077ee:	2200      	movs	r2, #0
 80077f0:	2100      	movs	r1, #0
 80077f2:	6878      	ldr	r0, [r7, #4]
 80077f4:	f000 fc13 	bl	800801e <USBD_LL_Transmit>
 80077f8:	2300      	movs	r3, #0
 80077fa:	4618      	mov	r0, r3
 80077fc:	3708      	adds	r7, #8
 80077fe:	46bd      	mov	sp, r7
 8007800:	bd80      	pop	{r7, pc}

08007802 <USBD_CtlReceiveStatus>:
 8007802:	b580      	push	{r7, lr}
 8007804:	b082      	sub	sp, #8
 8007806:	af00      	add	r7, sp, #0
 8007808:	6078      	str	r0, [r7, #4]
 800780a:	687b      	ldr	r3, [r7, #4]
 800780c:	2205      	movs	r2, #5
 800780e:	f8c3 2294 	str.w	r2, [r3, #660]	; 0x294
 8007812:	2300      	movs	r3, #0
 8007814:	2200      	movs	r2, #0
 8007816:	2100      	movs	r1, #0
 8007818:	6878      	ldr	r0, [r7, #4]
 800781a:	f000 fc23 	bl	8008064 <USBD_LL_PrepareReceive>
 800781e:	2300      	movs	r3, #0
 8007820:	4618      	mov	r0, r3
 8007822:	3708      	adds	r7, #8
 8007824:	46bd      	mov	sp, r7
 8007826:	bd80      	pop	{r7, pc}

08007828 <MX_USB_Device_Init>:
 8007828:	b580      	push	{r7, lr}
 800782a:	af00      	add	r7, sp, #0
 800782c:	2200      	movs	r2, #0
 800782e:	4912      	ldr	r1, [pc, #72]	; (8007878 <MX_USB_Device_Init+0x50>)
 8007830:	4812      	ldr	r0, [pc, #72]	; (800787c <MX_USB_Device_Init+0x54>)
 8007832:	f7fe ff3c 	bl	80066ae <USBD_Init>
 8007836:	4603      	mov	r3, r0
 8007838:	2b00      	cmp	r3, #0
 800783a:	d001      	beq.n	8007840 <MX_USB_Device_Init+0x18>
 800783c:	f7f9 f856 	bl	80008ec <Error_Handler>
 8007840:	490f      	ldr	r1, [pc, #60]	; (8007880 <MX_USB_Device_Init+0x58>)
 8007842:	480e      	ldr	r0, [pc, #56]	; (800787c <MX_USB_Device_Init+0x54>)
 8007844:	f7fe ff5e 	bl	8006704 <USBD_RegisterClass>
 8007848:	4603      	mov	r3, r0
 800784a:	2b00      	cmp	r3, #0
 800784c:	d001      	beq.n	8007852 <MX_USB_Device_Init+0x2a>
 800784e:	f7f9 f84d 	bl	80008ec <Error_Handler>
 8007852:	490c      	ldr	r1, [pc, #48]	; (8007884 <MX_USB_Device_Init+0x5c>)
 8007854:	4809      	ldr	r0, [pc, #36]	; (800787c <MX_USB_Device_Init+0x54>)
 8007856:	f7fe febb 	bl	80065d0 <USBD_CDC_RegisterInterface>
 800785a:	4603      	mov	r3, r0
 800785c:	2b00      	cmp	r3, #0
 800785e:	d001      	beq.n	8007864 <MX_USB_Device_Init+0x3c>
 8007860:	f7f9 f844 	bl	80008ec <Error_Handler>
 8007864:	4805      	ldr	r0, [pc, #20]	; (800787c <MX_USB_Device_Init+0x54>)
 8007866:	f7fe ff67 	bl	8006738 <USBD_Start>
 800786a:	4603      	mov	r3, r0
 800786c:	2b00      	cmp	r3, #0
 800786e:	d001      	beq.n	8007874 <MX_USB_Device_Init+0x4c>
 8007870:	f7f9 f83c 	bl	80008ec <Error_Handler>
 8007874:	bf00      	nop
 8007876:	bd80      	pop	{r7, pc}
 8007878:	2000012c 	.word	0x2000012c
 800787c:	200018bc 	.word	0x200018bc
 8007880:	20000018 	.word	0x20000018
 8007884:	2000011c 	.word	0x2000011c

08007888 <CDC_Init_FS>:
 8007888:	b580      	push	{r7, lr}
 800788a:	af00      	add	r7, sp, #0
 800788c:	2200      	movs	r2, #0
 800788e:	4905      	ldr	r1, [pc, #20]	; (80078a4 <CDC_Init_FS+0x1c>)
 8007890:	4805      	ldr	r0, [pc, #20]	; (80078a8 <CDC_Init_FS+0x20>)
 8007892:	f7fe feb4 	bl	80065fe <USBD_CDC_SetTxBuffer>
 8007896:	4905      	ldr	r1, [pc, #20]	; (80078ac <CDC_Init_FS+0x24>)
 8007898:	4803      	ldr	r0, [pc, #12]	; (80078a8 <CDC_Init_FS+0x20>)
 800789a:	f7fe feca 	bl	8006632 <USBD_CDC_SetRxBuffer>
 800789e:	2300      	movs	r3, #0
 80078a0:	4618      	mov	r0, r3
 80078a2:	bd80      	pop	{r7, pc}
 80078a4:	20001f68 	.word	0x20001f68
 80078a8:	200018bc 	.word	0x200018bc
 80078ac:	20001b80 	.word	0x20001b80

080078b0 <CDC_DeInit_FS>:
 80078b0:	b480      	push	{r7}
 80078b2:	af00      	add	r7, sp, #0
 80078b4:	2300      	movs	r3, #0
 80078b6:	4618      	mov	r0, r3
 80078b8:	46bd      	mov	sp, r7
 80078ba:	f85d 7b04 	ldr.w	r7, [sp], #4
 80078be:	4770      	bx	lr

080078c0 <CDC_Control_FS>:
 80078c0:	b480      	push	{r7}
 80078c2:	b083      	sub	sp, #12
 80078c4:	af00      	add	r7, sp, #0
 80078c6:	4603      	mov	r3, r0
 80078c8:	6039      	str	r1, [r7, #0]
 80078ca:	71fb      	strb	r3, [r7, #7]
 80078cc:	4613      	mov	r3, r2
 80078ce:	80bb      	strh	r3, [r7, #4]
 80078d0:	79fb      	ldrb	r3, [r7, #7]
 80078d2:	2b23      	cmp	r3, #35	; 0x23
 80078d4:	d84a      	bhi.n	800796c <CDC_Control_FS+0xac>
 80078d6:	a201      	add	r2, pc, #4	; (adr r2, 80078dc <CDC_Control_FS+0x1c>)
 80078d8:	f852 f023 	ldr.w	pc, [r2, r3, lsl #2]
 80078dc:	0800796d 	.word	0x0800796d
 80078e0:	0800796d 	.word	0x0800796d
 80078e4:	0800796d 	.word	0x0800796d
 80078e8:	0800796d 	.word	0x0800796d
 80078ec:	0800796d 	.word	0x0800796d
 80078f0:	0800796d 	.word	0x0800796d
 80078f4:	0800796d 	.word	0x0800796d
 80078f8:	0800796d 	.word	0x0800796d
 80078fc:	0800796d 	.word	0x0800796d
 8007900:	0800796d 	.word	0x0800796d
 8007904:	0800796d 	.word	0x0800796d
 8007908:	0800796d 	.word	0x0800796d
 800790c:	0800796d 	.word	0x0800796d
 8007910:	0800796d 	.word	0x0800796d
 8007914:	0800796d 	.word	0x0800796d
 8007918:	0800796d 	.word	0x0800796d
 800791c:	0800796d 	.word	0x0800796d
 8007920:	0800796d 	.word	0x0800796d
 8007924:	0800796d 	.word	0x0800796d
 8007928:	0800796d 	.word	0x0800796d
 800792c:	0800796d 	.word	0x0800796d
 8007930:	0800796d 	.word	0x0800796d
 8007934:	0800796d 	.word	0x0800796d
 8007938:	0800796d 	.word	0x0800796d
 800793c:	0800796d 	.word	0x0800796d
 8007940:	0800796d 	.word	0x0800796d
 8007944:	0800796d 	.word	0x0800796d
 8007948:	0800796d 	.word	0x0800796d
 800794c:	0800796d 	.word	0x0800796d
 8007950:	0800796d 	.word	0x0800796d
 8007954:	0800796d 	.word	0x0800796d
 8007958:	0800796d 	.word	0x0800796d
 800795c:	0800796d 	.word	0x0800796d
 8007960:	0800796d 	.word	0x0800796d
 8007964:	0800796d 	.word	0x0800796d
 8007968:	0800796d 	.word	0x0800796d
 800796c:	bf00      	nop
 800796e:	2300      	movs	r3, #0
 8007970:	4618      	mov	r0, r3
 8007972:	370c      	adds	r7, #12
 8007974:	46bd      	mov	sp, r7
 8007976:	f85d 7b04 	ldr.w	r7, [sp], #4
 800797a:	4770      	bx	lr

0800797c <CDC_Receive_FS>:
 800797c:	b580      	push	{r7, lr}
 800797e:	b082      	sub	sp, #8
 8007980:	af00      	add	r7, sp, #0
 8007982:	6078      	str	r0, [r7, #4]
 8007984:	6039      	str	r1, [r7, #0]
 8007986:	6879      	ldr	r1, [r7, #4]
 8007988:	4805      	ldr	r0, [pc, #20]	; (80079a0 <CDC_Receive_FS+0x24>)
 800798a:	f7fe fe52 	bl	8006632 <USBD_CDC_SetRxBuffer>
 800798e:	4804      	ldr	r0, [pc, #16]	; (80079a0 <CDC_Receive_FS+0x24>)
 8007990:	f7fe fe63 	bl	800665a <USBD_CDC_ReceivePacket>
 8007994:	2300      	movs	r3, #0
 8007996:	4618      	mov	r0, r3
 8007998:	3708      	adds	r7, #8
 800799a:	46bd      	mov	sp, r7
 800799c:	bd80      	pop	{r7, pc}
 800799e:	bf00      	nop
 80079a0:	200018bc 	.word	0x200018bc

080079a4 <USBD_CDC_DeviceDescriptor>:
 80079a4:	b480      	push	{r7}
 80079a6:	b083      	sub	sp, #12
 80079a8:	af00      	add	r7, sp, #0
 80079aa:	4603      	mov	r3, r0
 80079ac:	6039      	str	r1, [r7, #0]
 80079ae:	71fb      	strb	r3, [r7, #7]
 80079b0:	683b      	ldr	r3, [r7, #0]
 80079b2:	2212      	movs	r2, #18
 80079b4:	801a      	strh	r2, [r3, #0]
 80079b6:	4b03      	ldr	r3, [pc, #12]	; (80079c4 <USBD_CDC_DeviceDescriptor+0x20>)
 80079b8:	4618      	mov	r0, r3
 80079ba:	370c      	adds	r7, #12
 80079bc:	46bd      	mov	sp, r7
 80079be:	f85d 7b04 	ldr.w	r7, [sp], #4
 80079c2:	4770      	bx	lr
 80079c4:	2000014c 	.word	0x2000014c

080079c8 <USBD_CDC_LangIDStrDescriptor>:
 80079c8:	b480      	push	{r7}
 80079ca:	b083      	sub	sp, #12
 80079cc:	af00      	add	r7, sp, #0
 80079ce:	4603      	mov	r3, r0
 80079d0:	6039      	str	r1, [r7, #0]
 80079d2:	71fb      	strb	r3, [r7, #7]
 80079d4:	683b      	ldr	r3, [r7, #0]
 80079d6:	2204      	movs	r2, #4
 80079d8:	801a      	strh	r2, [r3, #0]
 80079da:	4b03      	ldr	r3, [pc, #12]	; (80079e8 <USBD_CDC_LangIDStrDescriptor+0x20>)
 80079dc:	4618      	mov	r0, r3
 80079de:	370c      	adds	r7, #12
 80079e0:	46bd      	mov	sp, r7
 80079e2:	f85d 7b04 	ldr.w	r7, [sp], #4
 80079e6:	4770      	bx	lr
 80079e8:	20000160 	.word	0x20000160

080079ec <USBD_CDC_ProductStrDescriptor>:
 80079ec:	b580      	push	{r7, lr}
 80079ee:	b082      	sub	sp, #8
 80079f0:	af00      	add	r7, sp, #0
 80079f2:	4603      	mov	r3, r0
 80079f4:	6039      	str	r1, [r7, #0]
 80079f6:	71fb      	strb	r3, [r7, #7]
 80079f8:	79fb      	ldrb	r3, [r7, #7]
 80079fa:	2b00      	cmp	r3, #0
 80079fc:	d105      	bne.n	8007a0a <USBD_CDC_ProductStrDescriptor+0x1e>
 80079fe:	683a      	ldr	r2, [r7, #0]
 8007a00:	4907      	ldr	r1, [pc, #28]	; (8007a20 <USBD_CDC_ProductStrDescriptor+0x34>)
 8007a02:	4808      	ldr	r0, [pc, #32]	; (8007a24 <USBD_CDC_ProductStrDescriptor+0x38>)
 8007a04:	f7ff fe32 	bl	800766c <USBD_GetString>
 8007a08:	e004      	b.n	8007a14 <USBD_CDC_ProductStrDescriptor+0x28>
 8007a0a:	683a      	ldr	r2, [r7, #0]
 8007a0c:	4904      	ldr	r1, [pc, #16]	; (8007a20 <USBD_CDC_ProductStrDescriptor+0x34>)
 8007a0e:	4805      	ldr	r0, [pc, #20]	; (8007a24 <USBD_CDC_ProductStrDescriptor+0x38>)
 8007a10:	f7ff fe2c 	bl	800766c <USBD_GetString>
 8007a14:	4b02      	ldr	r3, [pc, #8]	; (8007a20 <USBD_CDC_ProductStrDescriptor+0x34>)
 8007a16:	4618      	mov	r0, r3
 8007a18:	3708      	adds	r7, #8
 8007a1a:	46bd      	mov	sp, r7
 8007a1c:	bd80      	pop	{r7, pc}
 8007a1e:	bf00      	nop
 8007a20:	20002350 	.word	0x20002350
 8007a24:	08008240 	.word	0x08008240

08007a28 <USBD_CDC_ManufacturerStrDescriptor>:
 8007a28:	b580      	push	{r7, lr}
 8007a2a:	b082      	sub	sp, #8
 8007a2c:	af00      	add	r7, sp, #0
 8007a2e:	4603      	mov	r3, r0
 8007a30:	6039      	str	r1, [r7, #0]
 8007a32:	71fb      	strb	r3, [r7, #7]
 8007a34:	683a      	ldr	r2, [r7, #0]
 8007a36:	4904      	ldr	r1, [pc, #16]	; (8007a48 <USBD_CDC_ManufacturerStrDescriptor+0x20>)
 8007a38:	4804      	ldr	r0, [pc, #16]	; (8007a4c <USBD_CDC_ManufacturerStrDescriptor+0x24>)
 8007a3a:	f7ff fe17 	bl	800766c <USBD_GetString>
 8007a3e:	4b02      	ldr	r3, [pc, #8]	; (8007a48 <USBD_CDC_ManufacturerStrDescriptor+0x20>)
 8007a40:	4618      	mov	r0, r3
 8007a42:	3708      	adds	r7, #8
 8007a44:	46bd      	mov	sp, r7
 8007a46:	bd80      	pop	{r7, pc}
 8007a48:	20002350 	.word	0x20002350
 8007a4c:	08008258 	.word	0x08008258

08007a50 <USBD_CDC_SerialStrDescriptor>:
 8007a50:	b580      	push	{r7, lr}
 8007a52:	b082      	sub	sp, #8
 8007a54:	af00      	add	r7, sp, #0
 8007a56:	4603      	mov	r3, r0
 8007a58:	6039      	str	r1, [r7, #0]
 8007a5a:	71fb      	strb	r3, [r7, #7]
 8007a5c:	683b      	ldr	r3, [r7, #0]
 8007a5e:	221a      	movs	r2, #26
 8007a60:	801a      	strh	r2, [r3, #0]
 8007a62:	f000 f843 	bl	8007aec <Get_SerialNum>
 8007a66:	4b02      	ldr	r3, [pc, #8]	; (8007a70 <USBD_CDC_SerialStrDescriptor+0x20>)
 8007a68:	4618      	mov	r0, r3
 8007a6a:	3708      	adds	r7, #8
 8007a6c:	46bd      	mov	sp, r7
 8007a6e:	bd80      	pop	{r7, pc}
 8007a70:	20000164 	.word	0x20000164

08007a74 <USBD_CDC_ConfigStrDescriptor>:
 8007a74:	b580      	push	{r7, lr}
 8007a76:	b082      	sub	sp, #8
 8007a78:	af00      	add	r7, sp, #0
 8007a7a:	4603      	mov	r3, r0
 8007a7c:	6039      	str	r1, [r7, #0]
 8007a7e:	71fb      	strb	r3, [r7, #7]
 8007a80:	79fb      	ldrb	r3, [r7, #7]
 8007a82:	2b00      	cmp	r3, #0
 8007a84:	d105      	bne.n	8007a92 <USBD_CDC_ConfigStrDescriptor+0x1e>
 8007a86:	683a      	ldr	r2, [r7, #0]
 8007a88:	4907      	ldr	r1, [pc, #28]	; (8007aa8 <USBD_CDC_ConfigStrDescriptor+0x34>)
 8007a8a:	4808      	ldr	r0, [pc, #32]	; (8007aac <USBD_CDC_ConfigStrDescriptor+0x38>)
 8007a8c:	f7ff fdee 	bl	800766c <USBD_GetString>
 8007a90:	e004      	b.n	8007a9c <USBD_CDC_ConfigStrDescriptor+0x28>
 8007a92:	683a      	ldr	r2, [r7, #0]
 8007a94:	4904      	ldr	r1, [pc, #16]	; (8007aa8 <USBD_CDC_ConfigStrDescriptor+0x34>)
 8007a96:	4805      	ldr	r0, [pc, #20]	; (8007aac <USBD_CDC_ConfigStrDescriptor+0x38>)
 8007a98:	f7ff fde8 	bl	800766c <USBD_GetString>
 8007a9c:	4b02      	ldr	r3, [pc, #8]	; (8007aa8 <USBD_CDC_ConfigStrDescriptor+0x34>)
 8007a9e:	4618      	mov	r0, r3
 8007aa0:	3708      	adds	r7, #8
 8007aa2:	46bd      	mov	sp, r7
 8007aa4:	bd80      	pop	{r7, pc}
 8007aa6:	bf00      	nop
 8007aa8:	20002350 	.word	0x20002350
 8007aac:	0800826c 	.word	0x0800826c

08007ab0 <USBD_CDC_InterfaceStrDescriptor>:
 8007ab0:	b580      	push	{r7, lr}
 8007ab2:	b082      	sub	sp, #8
 8007ab4:	af00      	add	r7, sp, #0
 8007ab6:	4603      	mov	r3, r0
 8007ab8:	6039      	str	r1, [r7, #0]
 8007aba:	71fb      	strb	r3, [r7, #7]
 8007abc:	79fb      	ldrb	r3, [r7, #7]
 8007abe:	2b00      	cmp	r3, #0
 8007ac0:	d105      	bne.n	8007ace <USBD_CDC_InterfaceStrDescriptor+0x1e>
 8007ac2:	683a      	ldr	r2, [r7, #0]
 8007ac4:	4907      	ldr	r1, [pc, #28]	; (8007ae4 <USBD_CDC_InterfaceStrDescriptor+0x34>)
 8007ac6:	4808      	ldr	r0, [pc, #32]	; (8007ae8 <USBD_CDC_InterfaceStrDescriptor+0x38>)
 8007ac8:	f7ff fdd0 	bl	800766c <USBD_GetString>
 8007acc:	e004      	b.n	8007ad8 <USBD_CDC_InterfaceStrDescriptor+0x28>
 8007ace:	683a      	ldr	r2, [r7, #0]
 8007ad0:	4904      	ldr	r1, [pc, #16]	; (8007ae4 <USBD_CDC_InterfaceStrDescriptor+0x34>)
 8007ad2:	4805      	ldr	r0, [pc, #20]	; (8007ae8 <USBD_CDC_InterfaceStrDescriptor+0x38>)
 8007ad4:	f7ff fdca 	bl	800766c <USBD_GetString>
 8007ad8:	4b02      	ldr	r3, [pc, #8]	; (8007ae4 <USBD_CDC_InterfaceStrDescriptor+0x34>)
 8007ada:	4618      	mov	r0, r3
 8007adc:	3708      	adds	r7, #8
 8007ade:	46bd      	mov	sp, r7
 8007ae0:	bd80      	pop	{r7, pc}
 8007ae2:	bf00      	nop
 8007ae4:	20002350 	.word	0x20002350
 8007ae8:	08008278 	.word	0x08008278

08007aec <Get_SerialNum>:
 8007aec:	b580      	push	{r7, lr}
 8007aee:	b084      	sub	sp, #16
 8007af0:	af00      	add	r7, sp, #0
 8007af2:	4b0f      	ldr	r3, [pc, #60]	; (8007b30 <Get_SerialNum+0x44>)
 8007af4:	681b      	ldr	r3, [r3, #0]
 8007af6:	60fb      	str	r3, [r7, #12]
 8007af8:	4b0e      	ldr	r3, [pc, #56]	; (8007b34 <Get_SerialNum+0x48>)
 8007afa:	681b      	ldr	r3, [r3, #0]
 8007afc:	60bb      	str	r3, [r7, #8]
 8007afe:	4b0e      	ldr	r3, [pc, #56]	; (8007b38 <Get_SerialNum+0x4c>)
 8007b00:	681b      	ldr	r3, [r3, #0]
 8007b02:	607b      	str	r3, [r7, #4]
 8007b04:	68fa      	ldr	r2, [r7, #12]
 8007b06:	687b      	ldr	r3, [r7, #4]
 8007b08:	4413      	add	r3, r2
 8007b0a:	60fb      	str	r3, [r7, #12]
 8007b0c:	68fb      	ldr	r3, [r7, #12]
 8007b0e:	2b00      	cmp	r3, #0
 8007b10:	d009      	beq.n	8007b26 <Get_SerialNum+0x3a>
 8007b12:	2208      	movs	r2, #8
 8007b14:	4909      	ldr	r1, [pc, #36]	; (8007b3c <Get_SerialNum+0x50>)
 8007b16:	68f8      	ldr	r0, [r7, #12]
 8007b18:	f000 f814 	bl	8007b44 <IntToUnicode>
 8007b1c:	2204      	movs	r2, #4
 8007b1e:	4908      	ldr	r1, [pc, #32]	; (8007b40 <Get_SerialNum+0x54>)
 8007b20:	68b8      	ldr	r0, [r7, #8]
 8007b22:	f000 f80f 	bl	8007b44 <IntToUnicode>
 8007b26:	bf00      	nop
 8007b28:	3710      	adds	r7, #16
 8007b2a:	46bd      	mov	sp, r7
 8007b2c:	bd80      	pop	{r7, pc}
 8007b2e:	bf00      	nop
 8007b30:	1fff7590 	.word	0x1fff7590
 8007b34:	1fff7594 	.word	0x1fff7594
 8007b38:	1fff7598 	.word	0x1fff7598
 8007b3c:	20000166 	.word	0x20000166
 8007b40:	20000176 	.word	0x20000176

08007b44 <IntToUnicode>:
 8007b44:	b480      	push	{r7}
 8007b46:	b087      	sub	sp, #28
 8007b48:	af00      	add	r7, sp, #0
 8007b4a:	60f8      	str	r0, [r7, #12]
 8007b4c:	60b9      	str	r1, [r7, #8]
 8007b4e:	4613      	mov	r3, r2
 8007b50:	71fb      	strb	r3, [r7, #7]
 8007b52:	2300      	movs	r3, #0
 8007b54:	75fb      	strb	r3, [r7, #23]
 8007b56:	2300      	movs	r3, #0
 8007b58:	75fb      	strb	r3, [r7, #23]
 8007b5a:	e027      	b.n	8007bac <IntToUnicode+0x68>
 8007b5c:	68fb      	ldr	r3, [r7, #12]
 8007b5e:	0f1b      	lsrs	r3, r3, #28
 8007b60:	2b09      	cmp	r3, #9
 8007b62:	d80b      	bhi.n	8007b7c <IntToUnicode+0x38>
 8007b64:	68fb      	ldr	r3, [r7, #12]
 8007b66:	0f1b      	lsrs	r3, r3, #28
 8007b68:	b2da      	uxtb	r2, r3
 8007b6a:	7dfb      	ldrb	r3, [r7, #23]
 8007b6c:	005b      	lsls	r3, r3, #1
 8007b6e:	4619      	mov	r1, r3
 8007b70:	68bb      	ldr	r3, [r7, #8]
 8007b72:	440b      	add	r3, r1
 8007b74:	3230      	adds	r2, #48	; 0x30
 8007b76:	b2d2      	uxtb	r2, r2
 8007b78:	701a      	strb	r2, [r3, #0]
 8007b7a:	e00a      	b.n	8007b92 <IntToUnicode+0x4e>
 8007b7c:	68fb      	ldr	r3, [r7, #12]
 8007b7e:	0f1b      	lsrs	r3, r3, #28
 8007b80:	b2da      	uxtb	r2, r3
 8007b82:	7dfb      	ldrb	r3, [r7, #23]
 8007b84:	005b      	lsls	r3, r3, #1
 8007b86:	4619      	mov	r1, r3
 8007b88:	68bb      	ldr	r3, [r7, #8]
 8007b8a:	440b      	add	r3, r1
 8007b8c:	3237      	adds	r2, #55	; 0x37
 8007b8e:	b2d2      	uxtb	r2, r2
 8007b90:	701a      	strb	r2, [r3, #0]
 8007b92:	68fb      	ldr	r3, [r7, #12]
 8007b94:	011b      	lsls	r3, r3, #4
 8007b96:	60fb      	str	r3, [r7, #12]
 8007b98:	7dfb      	ldrb	r3, [r7, #23]
 8007b9a:	005b      	lsls	r3, r3, #1
 8007b9c:	3301      	adds	r3, #1
 8007b9e:	68ba      	ldr	r2, [r7, #8]
 8007ba0:	4413      	add	r3, r2
 8007ba2:	2200      	movs	r2, #0
 8007ba4:	701a      	strb	r2, [r3, #0]
 8007ba6:	7dfb      	ldrb	r3, [r7, #23]
 8007ba8:	3301      	adds	r3, #1
 8007baa:	75fb      	strb	r3, [r7, #23]
 8007bac:	7dfa      	ldrb	r2, [r7, #23]
 8007bae:	79fb      	ldrb	r3, [r7, #7]
 8007bb0:	429a      	cmp	r2, r3
 8007bb2:	d3d3      	bcc.n	8007b5c <IntToUnicode+0x18>
 8007bb4:	bf00      	nop
 8007bb6:	371c      	adds	r7, #28
 8007bb8:	46bd      	mov	sp, r7
 8007bba:	f85d 7b04 	ldr.w	r7, [sp], #4
 8007bbe:	4770      	bx	lr

08007bc0 <HAL_PCD_MspInit>:
 8007bc0:	b580      	push	{r7, lr}
 8007bc2:	b08a      	sub	sp, #40	; 0x28
 8007bc4:	af00      	add	r7, sp, #0
 8007bc6:	6078      	str	r0, [r7, #4]
 8007bc8:	f107 0314 	add.w	r3, r7, #20
 8007bcc:	2200      	movs	r2, #0
 8007bce:	601a      	str	r2, [r3, #0]
 8007bd0:	605a      	str	r2, [r3, #4]
 8007bd2:	609a      	str	r2, [r3, #8]
 8007bd4:	60da      	str	r2, [r3, #12]
 8007bd6:	611a      	str	r2, [r3, #16]
 8007bd8:	687b      	ldr	r3, [r7, #4]
 8007bda:	681b      	ldr	r3, [r3, #0]
 8007bdc:	4a1a      	ldr	r2, [pc, #104]	; (8007c48 <HAL_PCD_MspInit+0x88>)
 8007bde:	4293      	cmp	r3, r2
 8007be0:	d12d      	bne.n	8007c3e <HAL_PCD_MspInit+0x7e>
 8007be2:	4b1a      	ldr	r3, [pc, #104]	; (8007c4c <HAL_PCD_MspInit+0x8c>)
 8007be4:	6cdb      	ldr	r3, [r3, #76]	; 0x4c
 8007be6:	4a19      	ldr	r2, [pc, #100]	; (8007c4c <HAL_PCD_MspInit+0x8c>)
 8007be8:	f043 0301 	orr.w	r3, r3, #1
 8007bec:	64d3      	str	r3, [r2, #76]	; 0x4c
 8007bee:	4b17      	ldr	r3, [pc, #92]	; (8007c4c <HAL_PCD_MspInit+0x8c>)
 8007bf0:	6cdb      	ldr	r3, [r3, #76]	; 0x4c
 8007bf2:	f003 0301 	and.w	r3, r3, #1
 8007bf6:	613b      	str	r3, [r7, #16]
 8007bf8:	693b      	ldr	r3, [r7, #16]
 8007bfa:	f44f 53c0 	mov.w	r3, #6144	; 0x1800
 8007bfe:	617b      	str	r3, [r7, #20]
 8007c00:	2303      	movs	r3, #3
 8007c02:	61bb      	str	r3, [r7, #24]
 8007c04:	2300      	movs	r3, #0
 8007c06:	61fb      	str	r3, [r7, #28]
 8007c08:	f107 0314 	add.w	r3, r7, #20
 8007c0c:	4619      	mov	r1, r3
 8007c0e:	f04f 4090 	mov.w	r0, #1207959552	; 0x48000000
 8007c12:	f7f9 ff3b 	bl	8001a8c <HAL_GPIO_Init>
 8007c16:	4b0d      	ldr	r3, [pc, #52]	; (8007c4c <HAL_PCD_MspInit+0x8c>)
 8007c18:	6d9b      	ldr	r3, [r3, #88]	; 0x58
 8007c1a:	4a0c      	ldr	r2, [pc, #48]	; (8007c4c <HAL_PCD_MspInit+0x8c>)
 8007c1c:	f443 0300 	orr.w	r3, r3, #8388608	; 0x800000
 8007c20:	6593      	str	r3, [r2, #88]	; 0x58
 8007c22:	4b0a      	ldr	r3, [pc, #40]	; (8007c4c <HAL_PCD_MspInit+0x8c>)
 8007c24:	6d9b      	ldr	r3, [r3, #88]	; 0x58
 8007c26:	f403 0300 	and.w	r3, r3, #8388608	; 0x800000
 8007c2a:	60fb      	str	r3, [r7, #12]
 8007c2c:	68fb      	ldr	r3, [r7, #12]
 8007c2e:	2200      	movs	r2, #0
 8007c30:	2100      	movs	r1, #0
 8007c32:	2014      	movs	r0, #20
 8007c34:	f7f9 fc83 	bl	800153e <HAL_NVIC_SetPriority>
 8007c38:	2014      	movs	r0, #20
 8007c3a:	f7f9 fc9a 	bl	8001572 <HAL_NVIC_EnableIRQ>
 8007c3e:	bf00      	nop
 8007c40:	3728      	adds	r7, #40	; 0x28
 8007c42:	46bd      	mov	sp, r7
 8007c44:	bd80      	pop	{r7, pc}
 8007c46:	bf00      	nop
 8007c48:	40005c00 	.word	0x40005c00
 8007c4c:	40021000 	.word	0x40021000

08007c50 <HAL_PCD_SetupStageCallback>:
 8007c50:	b580      	push	{r7, lr}
 8007c52:	b082      	sub	sp, #8
 8007c54:	af00      	add	r7, sp, #0
 8007c56:	6078      	str	r0, [r7, #4]
 8007c58:	687b      	ldr	r3, [r7, #4]
 8007c5a:	f8d3 2270 	ldr.w	r2, [r3, #624]	; 0x270
 8007c5e:	687b      	ldr	r3, [r7, #4]
 8007c60:	f503 730c 	add.w	r3, r3, #560	; 0x230
 8007c64:	4619      	mov	r1, r3
 8007c66:	4610      	mov	r0, r2
 8007c68:	f7fe fdaf 	bl	80067ca <USBD_LL_SetupStage>
 8007c6c:	bf00      	nop
 8007c6e:	3708      	adds	r7, #8
 8007c70:	46bd      	mov	sp, r7
 8007c72:	bd80      	pop	{r7, pc}

08007c74 <HAL_PCD_DataOutStageCallback>:
 8007c74:	b580      	push	{r7, lr}
 8007c76:	b082      	sub	sp, #8
 8007c78:	af00      	add	r7, sp, #0
 8007c7a:	6078      	str	r0, [r7, #4]
 8007c7c:	460b      	mov	r3, r1
 8007c7e:	70fb      	strb	r3, [r7, #3]
 8007c80:	687b      	ldr	r3, [r7, #4]
 8007c82:	f8d3 0270 	ldr.w	r0, [r3, #624]	; 0x270
 8007c86:	78fb      	ldrb	r3, [r7, #3]
 8007c88:	687a      	ldr	r2, [r7, #4]
 8007c8a:	015b      	lsls	r3, r3, #5
 8007c8c:	4413      	add	r3, r2
 8007c8e:	f503 739e 	add.w	r3, r3, #316	; 0x13c
 8007c92:	681a      	ldr	r2, [r3, #0]
 8007c94:	78fb      	ldrb	r3, [r7, #3]
 8007c96:	4619      	mov	r1, r3
 8007c98:	f7fe fde2 	bl	8006860 <USBD_LL_DataOutStage>
 8007c9c:	bf00      	nop
 8007c9e:	3708      	adds	r7, #8
 8007ca0:	46bd      	mov	sp, r7
 8007ca2:	bd80      	pop	{r7, pc}

08007ca4 <HAL_PCD_DataInStageCallback>:
 8007ca4:	b580      	push	{r7, lr}
 8007ca6:	b082      	sub	sp, #8
 8007ca8:	af00      	add	r7, sp, #0
 8007caa:	6078      	str	r0, [r7, #4]
 8007cac:	460b      	mov	r3, r1
 8007cae:	70fb      	strb	r3, [r7, #3]
 8007cb0:	687b      	ldr	r3, [r7, #4]
 8007cb2:	f8d3 0270 	ldr.w	r0, [r3, #624]	; 0x270
 8007cb6:	78fb      	ldrb	r3, [r7, #3]
 8007cb8:	687a      	ldr	r2, [r7, #4]
 8007cba:	015b      	lsls	r3, r3, #5
 8007cbc:	4413      	add	r3, r2
 8007cbe:	333c      	adds	r3, #60	; 0x3c
 8007cc0:	681a      	ldr	r2, [r3, #0]
 8007cc2:	78fb      	ldrb	r3, [r7, #3]
 8007cc4:	4619      	mov	r1, r3
 8007cc6:	f7fe fe3c 	bl	8006942 <USBD_LL_DataInStage>
 8007cca:	bf00      	nop
 8007ccc:	3708      	adds	r7, #8
 8007cce:	46bd      	mov	sp, r7
 8007cd0:	bd80      	pop	{r7, pc}

08007cd2 <HAL_PCD_SOFCallback>:
 8007cd2:	b580      	push	{r7, lr}
 8007cd4:	b082      	sub	sp, #8
 8007cd6:	af00      	add	r7, sp, #0
 8007cd8:	6078      	str	r0, [r7, #4]
 8007cda:	687b      	ldr	r3, [r7, #4]
 8007cdc:	f8d3 3270 	ldr.w	r3, [r3, #624]	; 0x270
 8007ce0:	4618      	mov	r0, r3
 8007ce2:	f7fe ff4f 	bl	8006b84 <USBD_LL_SOF>
 8007ce6:	bf00      	nop
 8007ce8:	3708      	adds	r7, #8
 8007cea:	46bd      	mov	sp, r7
 8007cec:	bd80      	pop	{r7, pc}

08007cee <HAL_PCD_ResetCallback>:
 8007cee:	b580      	push	{r7, lr}
 8007cf0:	b084      	sub	sp, #16
 8007cf2:	af00      	add	r7, sp, #0
 8007cf4:	6078      	str	r0, [r7, #4]
 8007cf6:	2301      	movs	r3, #1
 8007cf8:	73fb      	strb	r3, [r7, #15]
 8007cfa:	687b      	ldr	r3, [r7, #4]
 8007cfc:	689b      	ldr	r3, [r3, #8]
 8007cfe:	2b02      	cmp	r3, #2
 8007d00:	d001      	beq.n	8007d06 <HAL_PCD_ResetCallback+0x18>
 8007d02:	f7f8 fdf3 	bl	80008ec <Error_Handler>
 8007d06:	687b      	ldr	r3, [r7, #4]
 8007d08:	f8d3 3270 	ldr.w	r3, [r3, #624]	; 0x270
 8007d0c:	7bfa      	ldrb	r2, [r7, #15]
 8007d0e:	4611      	mov	r1, r2
 8007d10:	4618      	mov	r0, r3
 8007d12:	f7fe fefc 	bl	8006b0e <USBD_LL_SetSpeed>
 8007d16:	687b      	ldr	r3, [r7, #4]
 8007d18:	f8d3 3270 	ldr.w	r3, [r3, #624]	; 0x270
 8007d1c:	4618      	mov	r0, r3
 8007d1e:	f7fe feb5 	bl	8006a8c <USBD_LL_Reset>
 8007d22:	bf00      	nop
 8007d24:	3710      	adds	r7, #16
 8007d26:	46bd      	mov	sp, r7
 8007d28:	bd80      	pop	{r7, pc}
	...

08007d2c <HAL_PCD_SuspendCallback>:
 8007d2c:	b580      	push	{r7, lr}
 8007d2e:	b082      	sub	sp, #8
 8007d30:	af00      	add	r7, sp, #0
 8007d32:	6078      	str	r0, [r7, #4]
 8007d34:	687b      	ldr	r3, [r7, #4]
 8007d36:	f8d3 3270 	ldr.w	r3, [r3, #624]	; 0x270
 8007d3a:	4618      	mov	r0, r3
 8007d3c:	f7fe fef7 	bl	8006b2e <USBD_LL_Suspend>
 8007d40:	687b      	ldr	r3, [r7, #4]
 8007d42:	699b      	ldr	r3, [r3, #24]
 8007d44:	2b00      	cmp	r3, #0
 8007d46:	d005      	beq.n	8007d54 <HAL_PCD_SuspendCallback+0x28>
 8007d48:	4b04      	ldr	r3, [pc, #16]	; (8007d5c <HAL_PCD_SuspendCallback+0x30>)
 8007d4a:	691b      	ldr	r3, [r3, #16]
 8007d4c:	4a03      	ldr	r2, [pc, #12]	; (8007d5c <HAL_PCD_SuspendCallback+0x30>)
 8007d4e:	f043 0306 	orr.w	r3, r3, #6
 8007d52:	6113      	str	r3, [r2, #16]
 8007d54:	bf00      	nop
 8007d56:	3708      	adds	r7, #8
 8007d58:	46bd      	mov	sp, r7
 8007d5a:	bd80      	pop	{r7, pc}
 8007d5c:	e000ed00 	.word	0xe000ed00

08007d60 <HAL_PCD_ResumeCallback>:
 8007d60:	b580      	push	{r7, lr}
 8007d62:	b082      	sub	sp, #8
 8007d64:	af00      	add	r7, sp, #0
 8007d66:	6078      	str	r0, [r7, #4]
 8007d68:	687b      	ldr	r3, [r7, #4]
 8007d6a:	699b      	ldr	r3, [r3, #24]
 8007d6c:	2b00      	cmp	r3, #0
 8007d6e:	d007      	beq.n	8007d80 <HAL_PCD_ResumeCallback+0x20>
 8007d70:	4b08      	ldr	r3, [pc, #32]	; (8007d94 <HAL_PCD_ResumeCallback+0x34>)
 8007d72:	691b      	ldr	r3, [r3, #16]
 8007d74:	4a07      	ldr	r2, [pc, #28]	; (8007d94 <HAL_PCD_ResumeCallback+0x34>)
 8007d76:	f023 0306 	bic.w	r3, r3, #6
 8007d7a:	6113      	str	r3, [r2, #16]
 8007d7c:	f000 f9f6 	bl	800816c <SystemClockConfig_Resume>
 8007d80:	687b      	ldr	r3, [r7, #4]
 8007d82:	f8d3 3270 	ldr.w	r3, [r3, #624]	; 0x270
 8007d86:	4618      	mov	r0, r3
 8007d88:	f7fe fee6 	bl	8006b58 <USBD_LL_Resume>
 8007d8c:	bf00      	nop
 8007d8e:	3708      	adds	r7, #8
 8007d90:	46bd      	mov	sp, r7
 8007d92:	bd80      	pop	{r7, pc}
 8007d94:	e000ed00 	.word	0xe000ed00

08007d98 <USBD_LL_Init>:
 8007d98:	b580      	push	{r7, lr}
 8007d9a:	b082      	sub	sp, #8
 8007d9c:	af00      	add	r7, sp, #0
 8007d9e:	6078      	str	r0, [r7, #4]
 8007da0:	4a2b      	ldr	r2, [pc, #172]	; (8007e50 <USBD_LL_Init+0xb8>)
 8007da2:	687b      	ldr	r3, [r7, #4]
 8007da4:	f8c2 3270 	str.w	r3, [r2, #624]	; 0x270
 8007da8:	687b      	ldr	r3, [r7, #4]
 8007daa:	4a29      	ldr	r2, [pc, #164]	; (8007e50 <USBD_LL_Init+0xb8>)
 8007dac:	f8c3 22c0 	str.w	r2, [r3, #704]	; 0x2c0
 8007db0:	4b27      	ldr	r3, [pc, #156]	; (8007e50 <USBD_LL_Init+0xb8>)
 8007db2:	4a28      	ldr	r2, [pc, #160]	; (8007e54 <USBD_LL_Init+0xbc>)
 8007db4:	601a      	str	r2, [r3, #0]
 8007db6:	4b26      	ldr	r3, [pc, #152]	; (8007e50 <USBD_LL_Init+0xb8>)
 8007db8:	2208      	movs	r2, #8
 8007dba:	605a      	str	r2, [r3, #4]
 8007dbc:	4b24      	ldr	r3, [pc, #144]	; (8007e50 <USBD_LL_Init+0xb8>)
 8007dbe:	2202      	movs	r2, #2
 8007dc0:	609a      	str	r2, [r3, #8]
 8007dc2:	4b23      	ldr	r3, [pc, #140]	; (8007e50 <USBD_LL_Init+0xb8>)
 8007dc4:	2202      	movs	r2, #2
 8007dc6:	611a      	str	r2, [r3, #16]
 8007dc8:	4b21      	ldr	r3, [pc, #132]	; (8007e50 <USBD_LL_Init+0xb8>)
 8007dca:	2200      	movs	r2, #0
 8007dcc:	615a      	str	r2, [r3, #20]
 8007dce:	4b20      	ldr	r3, [pc, #128]	; (8007e50 <USBD_LL_Init+0xb8>)
 8007dd0:	2200      	movs	r2, #0
 8007dd2:	619a      	str	r2, [r3, #24]
 8007dd4:	4b1e      	ldr	r3, [pc, #120]	; (8007e50 <USBD_LL_Init+0xb8>)
 8007dd6:	2200      	movs	r2, #0
 8007dd8:	61da      	str	r2, [r3, #28]
 8007dda:	4b1d      	ldr	r3, [pc, #116]	; (8007e50 <USBD_LL_Init+0xb8>)
 8007ddc:	2200      	movs	r2, #0
 8007dde:	621a      	str	r2, [r3, #32]
 8007de0:	481b      	ldr	r0, [pc, #108]	; (8007e50 <USBD_LL_Init+0xb8>)
 8007de2:	f7f9 ffed 	bl	8001dc0 <HAL_PCD_Init>
 8007de6:	4603      	mov	r3, r0
 8007de8:	2b00      	cmp	r3, #0
 8007dea:	d001      	beq.n	8007df0 <USBD_LL_Init+0x58>
 8007dec:	f7f8 fd7e 	bl	80008ec <Error_Handler>
 8007df0:	687b      	ldr	r3, [r7, #4]
 8007df2:	f8d3 02c0 	ldr.w	r0, [r3, #704]	; 0x2c0
 8007df6:	2318      	movs	r3, #24
 8007df8:	2200      	movs	r2, #0
 8007dfa:	2100      	movs	r1, #0
 8007dfc:	f7fa fe8e 	bl	8002b1c <HAL_PCDEx_PMAConfig>
 8007e00:	687b      	ldr	r3, [r7, #4]
 8007e02:	f8d3 02c0 	ldr.w	r0, [r3, #704]	; 0x2c0
 8007e06:	2358      	movs	r3, #88	; 0x58
 8007e08:	2200      	movs	r2, #0
 8007e0a:	2180      	movs	r1, #128	; 0x80
 8007e0c:	f7fa fe86 	bl	8002b1c <HAL_PCDEx_PMAConfig>
 8007e10:	687b      	ldr	r3, [r7, #4]
 8007e12:	f8d3 02c0 	ldr.w	r0, [r3, #704]	; 0x2c0
 8007e16:	23c0      	movs	r3, #192	; 0xc0
 8007e18:	2200      	movs	r2, #0
 8007e1a:	2181      	movs	r1, #129	; 0x81
 8007e1c:	f7fa fe7e 	bl	8002b1c <HAL_PCDEx_PMAConfig>
 8007e20:	687b      	ldr	r3, [r7, #4]
 8007e22:	f8d3 02c0 	ldr.w	r0, [r3, #704]	; 0x2c0
 8007e26:	f44f 7388 	mov.w	r3, #272	; 0x110
 8007e2a:	2200      	movs	r2, #0
 8007e2c:	2101      	movs	r1, #1
 8007e2e:	f7fa fe75 	bl	8002b1c <HAL_PCDEx_PMAConfig>
 8007e32:	687b      	ldr	r3, [r7, #4]
 8007e34:	f8d3 02c0 	ldr.w	r0, [r3, #704]	; 0x2c0
 8007e38:	f44f 7380 	mov.w	r3, #256	; 0x100
 8007e3c:	2200      	movs	r2, #0
 8007e3e:	2182      	movs	r1, #130	; 0x82
 8007e40:	f7fa fe6c 	bl	8002b1c <HAL_PCDEx_PMAConfig>
 8007e44:	2300      	movs	r3, #0
 8007e46:	4618      	mov	r0, r3
 8007e48:	3708      	adds	r7, #8
 8007e4a:	46bd      	mov	sp, r7
 8007e4c:	bd80      	pop	{r7, pc}
 8007e4e:	bf00      	nop
 8007e50:	20002550 	.word	0x20002550
 8007e54:	40005c00 	.word	0x40005c00

08007e58 <USBD_LL_Start>:
 8007e58:	b580      	push	{r7, lr}
 8007e5a:	b084      	sub	sp, #16
 8007e5c:	af00      	add	r7, sp, #0
 8007e5e:	6078      	str	r0, [r7, #4]
 8007e60:	2300      	movs	r3, #0
 8007e62:	73fb      	strb	r3, [r7, #15]
 8007e64:	2300      	movs	r3, #0
 8007e66:	73bb      	strb	r3, [r7, #14]
 8007e68:	687b      	ldr	r3, [r7, #4]
 8007e6a:	f8d3 32c0 	ldr.w	r3, [r3, #704]	; 0x2c0
 8007e6e:	4618      	mov	r0, r3
 8007e70:	f7fa f861 	bl	8001f36 <HAL_PCD_Start>
 8007e74:	4603      	mov	r3, r0
 8007e76:	73fb      	strb	r3, [r7, #15]
 8007e78:	7bfb      	ldrb	r3, [r7, #15]
 8007e7a:	4618      	mov	r0, r3
 8007e7c:	f000 f97c 	bl	8008178 <USBD_Get_USB_Status>
 8007e80:	4603      	mov	r3, r0
 8007e82:	73bb      	strb	r3, [r7, #14]
 8007e84:	7bbb      	ldrb	r3, [r7, #14]
 8007e86:	4618      	mov	r0, r3
 8007e88:	3710      	adds	r7, #16
 8007e8a:	46bd      	mov	sp, r7
 8007e8c:	bd80      	pop	{r7, pc}

08007e8e <USBD_LL_OpenEP>:
 8007e8e:	b580      	push	{r7, lr}
 8007e90:	b084      	sub	sp, #16
 8007e92:	af00      	add	r7, sp, #0
 8007e94:	6078      	str	r0, [r7, #4]
 8007e96:	4608      	mov	r0, r1
 8007e98:	4611      	mov	r1, r2
 8007e9a:	461a      	mov	r2, r3
 8007e9c:	4603      	mov	r3, r0
 8007e9e:	70fb      	strb	r3, [r7, #3]
 8007ea0:	460b      	mov	r3, r1
 8007ea2:	70bb      	strb	r3, [r7, #2]
 8007ea4:	4613      	mov	r3, r2
 8007ea6:	803b      	strh	r3, [r7, #0]
 8007ea8:	2300      	movs	r3, #0
 8007eaa:	73fb      	strb	r3, [r7, #15]
 8007eac:	2300      	movs	r3, #0
 8007eae:	73bb      	strb	r3, [r7, #14]
 8007eb0:	687b      	ldr	r3, [r7, #4]
 8007eb2:	f8d3 02c0 	ldr.w	r0, [r3, #704]	; 0x2c0
 8007eb6:	78bb      	ldrb	r3, [r7, #2]
 8007eb8:	883a      	ldrh	r2, [r7, #0]
 8007eba:	78f9      	ldrb	r1, [r7, #3]
 8007ebc:	f7fa f9d0 	bl	8002260 <HAL_PCD_EP_Open>
 8007ec0:	4603      	mov	r3, r0
 8007ec2:	73fb      	strb	r3, [r7, #15]
 8007ec4:	7bfb      	ldrb	r3, [r7, #15]
 8007ec6:	4618      	mov	r0, r3
 8007ec8:	f000 f956 	bl	8008178 <USBD_Get_USB_Status>
 8007ecc:	4603      	mov	r3, r0
 8007ece:	73bb      	strb	r3, [r7, #14]
 8007ed0:	7bbb      	ldrb	r3, [r7, #14]
 8007ed2:	4618      	mov	r0, r3
 8007ed4:	3710      	adds	r7, #16
 8007ed6:	46bd      	mov	sp, r7
 8007ed8:	bd80      	pop	{r7, pc}

08007eda <USBD_LL_CloseEP>:
 8007eda:	b580      	push	{r7, lr}
 8007edc:	b084      	sub	sp, #16
 8007ede:	af00      	add	r7, sp, #0
 8007ee0:	6078      	str	r0, [r7, #4]
 8007ee2:	460b      	mov	r3, r1
 8007ee4:	70fb      	strb	r3, [r7, #3]
 8007ee6:	2300      	movs	r3, #0
 8007ee8:	73fb      	strb	r3, [r7, #15]
 8007eea:	2300      	movs	r3, #0
 8007eec:	73bb      	strb	r3, [r7, #14]
 8007eee:	687b      	ldr	r3, [r7, #4]
 8007ef0:	f8d3 32c0 	ldr.w	r3, [r3, #704]	; 0x2c0
 8007ef4:	78fa      	ldrb	r2, [r7, #3]
 8007ef6:	4611      	mov	r1, r2
 8007ef8:	4618      	mov	r0, r3
 8007efa:	f7fa fa11 	bl	8002320 <HAL_PCD_EP_Close>
 8007efe:	4603      	mov	r3, r0
 8007f00:	73fb      	strb	r3, [r7, #15]
 8007f02:	7bfb      	ldrb	r3, [r7, #15]
 8007f04:	4618      	mov	r0, r3
 8007f06:	f000 f937 	bl	8008178 <USBD_Get_USB_Status>
 8007f0a:	4603      	mov	r3, r0
 8007f0c:	73bb      	strb	r3, [r7, #14]
 8007f0e:	7bbb      	ldrb	r3, [r7, #14]
 8007f10:	4618      	mov	r0, r3
 8007f12:	3710      	adds	r7, #16
 8007f14:	46bd      	mov	sp, r7
 8007f16:	bd80      	pop	{r7, pc}

08007f18 <USBD_LL_StallEP>:
 8007f18:	b580      	push	{r7, lr}
 8007f1a:	b084      	sub	sp, #16
 8007f1c:	af00      	add	r7, sp, #0
 8007f1e:	6078      	str	r0, [r7, #4]
 8007f20:	460b      	mov	r3, r1
 8007f22:	70fb      	strb	r3, [r7, #3]
 8007f24:	2300      	movs	r3, #0
 8007f26:	73fb      	strb	r3, [r7, #15]
 8007f28:	2300      	movs	r3, #0
 8007f2a:	73bb      	strb	r3, [r7, #14]
 8007f2c:	687b      	ldr	r3, [r7, #4]
 8007f2e:	f8d3 32c0 	ldr.w	r3, [r3, #704]	; 0x2c0
 8007f32:	78fa      	ldrb	r2, [r7, #3]
 8007f34:	4611      	mov	r1, r2
 8007f36:	4618      	mov	r0, r3
 8007f38:	f7fa fabc 	bl	80024b4 <HAL_PCD_EP_SetStall>
 8007f3c:	4603      	mov	r3, r0
 8007f3e:	73fb      	strb	r3, [r7, #15]
 8007f40:	7bfb      	ldrb	r3, [r7, #15]
 8007f42:	4618      	mov	r0, r3
 8007f44:	f000 f918 	bl	8008178 <USBD_Get_USB_Status>
 8007f48:	4603      	mov	r3, r0
 8007f4a:	73bb      	strb	r3, [r7, #14]
 8007f4c:	7bbb      	ldrb	r3, [r7, #14]
 8007f4e:	4618      	mov	r0, r3
 8007f50:	3710      	adds	r7, #16
 8007f52:	46bd      	mov	sp, r7
 8007f54:	bd80      	pop	{r7, pc}

08007f56 <USBD_LL_ClearStallEP>:
 8007f56:	b580      	push	{r7, lr}
 8007f58:	b084      	sub	sp, #16
 8007f5a:	af00      	add	r7, sp, #0
 8007f5c:	6078      	str	r0, [r7, #4]
 8007f5e:	460b      	mov	r3, r1
 8007f60:	70fb      	strb	r3, [r7, #3]
 8007f62:	2300      	movs	r3, #0
 8007f64:	73fb      	strb	r3, [r7, #15]
 8007f66:	2300      	movs	r3, #0
 8007f68:	73bb      	strb	r3, [r7, #14]
 8007f6a:	687b      	ldr	r3, [r7, #4]
 8007f6c:	f8d3 32c0 	ldr.w	r3, [r3, #704]	; 0x2c0
 8007f70:	78fa      	ldrb	r2, [r7, #3]
 8007f72:	4611      	mov	r1, r2
 8007f74:	4618      	mov	r0, r3
 8007f76:	f7fa faf7 	bl	8002568 <HAL_PCD_EP_ClrStall>
 8007f7a:	4603      	mov	r3, r0
 8007f7c:	73fb      	strb	r3, [r7, #15]
 8007f7e:	7bfb      	ldrb	r3, [r7, #15]
 8007f80:	4618      	mov	r0, r3
 8007f82:	f000 f8f9 	bl	8008178 <USBD_Get_USB_Status>
 8007f86:	4603      	mov	r3, r0
 8007f88:	73bb      	strb	r3, [r7, #14]
 8007f8a:	7bbb      	ldrb	r3, [r7, #14]
 8007f8c:	4618      	mov	r0, r3
 8007f8e:	3710      	adds	r7, #16
 8007f90:	46bd      	mov	sp, r7
 8007f92:	bd80      	pop	{r7, pc}

08007f94 <USBD_LL_IsStallEP>:
 8007f94:	b480      	push	{r7}
 8007f96:	b085      	sub	sp, #20
 8007f98:	af00      	add	r7, sp, #0
 8007f9a:	6078      	str	r0, [r7, #4]
 8007f9c:	460b      	mov	r3, r1
 8007f9e:	70fb      	strb	r3, [r7, #3]
 8007fa0:	687b      	ldr	r3, [r7, #4]
 8007fa2:	f8d3 32c0 	ldr.w	r3, [r3, #704]	; 0x2c0
 8007fa6:	60fb      	str	r3, [r7, #12]
 8007fa8:	f997 3003 	ldrsb.w	r3, [r7, #3]
 8007fac:	2b00      	cmp	r3, #0
 8007fae:	da08      	bge.n	8007fc2 <USBD_LL_IsStallEP+0x2e>
 8007fb0:	78fb      	ldrb	r3, [r7, #3]
 8007fb2:	f003 037f 	and.w	r3, r3, #127	; 0x7f
 8007fb6:	68fa      	ldr	r2, [r7, #12]
 8007fb8:	015b      	lsls	r3, r3, #5
 8007fba:	4413      	add	r3, r2
 8007fbc:	332a      	adds	r3, #42	; 0x2a
 8007fbe:	781b      	ldrb	r3, [r3, #0]
 8007fc0:	e008      	b.n	8007fd4 <USBD_LL_IsStallEP+0x40>
 8007fc2:	78fb      	ldrb	r3, [r7, #3]
 8007fc4:	f003 037f 	and.w	r3, r3, #127	; 0x7f
 8007fc8:	68fa      	ldr	r2, [r7, #12]
 8007fca:	015b      	lsls	r3, r3, #5
 8007fcc:	4413      	add	r3, r2
 8007fce:	f503 7395 	add.w	r3, r3, #298	; 0x12a
 8007fd2:	781b      	ldrb	r3, [r3, #0]
 8007fd4:	4618      	mov	r0, r3
 8007fd6:	3714      	adds	r7, #20
 8007fd8:	46bd      	mov	sp, r7
 8007fda:	f85d 7b04 	ldr.w	r7, [sp], #4
 8007fde:	4770      	bx	lr

08007fe0 <USBD_LL_SetUSBAddress>:
 8007fe0:	b580      	push	{r7, lr}
 8007fe2:	b084      	sub	sp, #16
 8007fe4:	af00      	add	r7, sp, #0
 8007fe6:	6078      	str	r0, [r7, #4]
 8007fe8:	460b      	mov	r3, r1
 8007fea:	70fb      	strb	r3, [r7, #3]
 8007fec:	2300      	movs	r3, #0
 8007fee:	73fb      	strb	r3, [r7, #15]
 8007ff0:	2300      	movs	r3, #0
 8007ff2:	73bb      	strb	r3, [r7, #14]
 8007ff4:	687b      	ldr	r3, [r7, #4]
 8007ff6:	f8d3 32c0 	ldr.w	r3, [r3, #704]	; 0x2c0
 8007ffa:	78fa      	ldrb	r2, [r7, #3]
 8007ffc:	4611      	mov	r1, r2
 8007ffe:	4618      	mov	r0, r3
 8008000:	f7fa f909 	bl	8002216 <HAL_PCD_SetAddress>
 8008004:	4603      	mov	r3, r0
 8008006:	73fb      	strb	r3, [r7, #15]
 8008008:	7bfb      	ldrb	r3, [r7, #15]
 800800a:	4618      	mov	r0, r3
 800800c:	f000 f8b4 	bl	8008178 <USBD_Get_USB_Status>
 8008010:	4603      	mov	r3, r0
 8008012:	73bb      	strb	r3, [r7, #14]
 8008014:	7bbb      	ldrb	r3, [r7, #14]
 8008016:	4618      	mov	r0, r3
 8008018:	3710      	adds	r7, #16
 800801a:	46bd      	mov	sp, r7
 800801c:	bd80      	pop	{r7, pc}

0800801e <USBD_LL_Transmit>:
 800801e:	b580      	push	{r7, lr}
 8008020:	b086      	sub	sp, #24
 8008022:	af00      	add	r7, sp, #0
 8008024:	60f8      	str	r0, [r7, #12]
 8008026:	607a      	str	r2, [r7, #4]
 8008028:	461a      	mov	r2, r3
 800802a:	460b      	mov	r3, r1
 800802c:	72fb      	strb	r3, [r7, #11]
 800802e:	4613      	mov	r3, r2
 8008030:	813b      	strh	r3, [r7, #8]
 8008032:	2300      	movs	r3, #0
 8008034:	75fb      	strb	r3, [r7, #23]
 8008036:	2300      	movs	r3, #0
 8008038:	75bb      	strb	r3, [r7, #22]
 800803a:	68fb      	ldr	r3, [r7, #12]
 800803c:	f8d3 02c0 	ldr.w	r0, [r3, #704]	; 0x2c0
 8008040:	893b      	ldrh	r3, [r7, #8]
 8008042:	7af9      	ldrb	r1, [r7, #11]
 8008044:	687a      	ldr	r2, [r7, #4]
 8008046:	f7fa f9fc 	bl	8002442 <HAL_PCD_EP_Transmit>
 800804a:	4603      	mov	r3, r0
 800804c:	75fb      	strb	r3, [r7, #23]
 800804e:	7dfb      	ldrb	r3, [r7, #23]
 8008050:	4618      	mov	r0, r3
 8008052:	f000 f891 	bl	8008178 <USBD_Get_USB_Status>
 8008056:	4603      	mov	r3, r0
 8008058:	75bb      	strb	r3, [r7, #22]
 800805a:	7dbb      	ldrb	r3, [r7, #22]
 800805c:	4618      	mov	r0, r3
 800805e:	3718      	adds	r7, #24
 8008060:	46bd      	mov	sp, r7
 8008062:	bd80      	pop	{r7, pc}

08008064 <USBD_LL_PrepareReceive>:
 8008064:	b580      	push	{r7, lr}
 8008066:	b086      	sub	sp, #24
 8008068:	af00      	add	r7, sp, #0
 800806a:	60f8      	str	r0, [r7, #12]
 800806c:	607a      	str	r2, [r7, #4]
 800806e:	461a      	mov	r2, r3
 8008070:	460b      	mov	r3, r1
 8008072:	72fb      	strb	r3, [r7, #11]
 8008074:	4613      	mov	r3, r2
 8008076:	813b      	strh	r3, [r7, #8]
 8008078:	2300      	movs	r3, #0
 800807a:	75fb      	strb	r3, [r7, #23]
 800807c:	2300      	movs	r3, #0
 800807e:	75bb      	strb	r3, [r7, #22]
 8008080:	68fb      	ldr	r3, [r7, #12]
 8008082:	f8d3 02c0 	ldr.w	r0, [r3, #704]	; 0x2c0
 8008086:	893b      	ldrh	r3, [r7, #8]
 8008088:	7af9      	ldrb	r1, [r7, #11]
 800808a:	687a      	ldr	r2, [r7, #4]
 800808c:	f7fa f98a 	bl	80023a4 <HAL_PCD_EP_Receive>
 8008090:	4603      	mov	r3, r0
 8008092:	75fb      	strb	r3, [r7, #23]
 8008094:	7dfb      	ldrb	r3, [r7, #23]
 8008096:	4618      	mov	r0, r3
 8008098:	f000 f86e 	bl	8008178 <USBD_Get_USB_Status>
 800809c:	4603      	mov	r3, r0
 800809e:	75bb      	strb	r3, [r7, #22]
 80080a0:	7dbb      	ldrb	r3, [r7, #22]
 80080a2:	4618      	mov	r0, r3
 80080a4:	3718      	adds	r7, #24
 80080a6:	46bd      	mov	sp, r7
 80080a8:	bd80      	pop	{r7, pc}

080080aa <USBD_LL_GetRxDataSize>:
 80080aa:	b580      	push	{r7, lr}
 80080ac:	b082      	sub	sp, #8
 80080ae:	af00      	add	r7, sp, #0
 80080b0:	6078      	str	r0, [r7, #4]
 80080b2:	460b      	mov	r3, r1
 80080b4:	70fb      	strb	r3, [r7, #3]
 80080b6:	687b      	ldr	r3, [r7, #4]
 80080b8:	f8d3 32c0 	ldr.w	r3, [r3, #704]	; 0x2c0
 80080bc:	78fa      	ldrb	r2, [r7, #3]
 80080be:	4611      	mov	r1, r2
 80080c0:	4618      	mov	r0, r3
 80080c2:	f7fa f9a9 	bl	8002418 <HAL_PCD_EP_GetRxCount>
 80080c6:	4603      	mov	r3, r0
 80080c8:	4618      	mov	r0, r3
 80080ca:	3708      	adds	r7, #8
 80080cc:	46bd      	mov	sp, r7
 80080ce:	bd80      	pop	{r7, pc}

080080d0 <HAL_PCDEx_LPM_Callback>:
 80080d0:	b580      	push	{r7, lr}
 80080d2:	b082      	sub	sp, #8
 80080d4:	af00      	add	r7, sp, #0
 80080d6:	6078      	str	r0, [r7, #4]
 80080d8:	460b      	mov	r3, r1
 80080da:	70fb      	strb	r3, [r7, #3]
 80080dc:	78fb      	ldrb	r3, [r7, #3]
 80080de:	2b00      	cmp	r3, #0
 80080e0:	d002      	beq.n	80080e8 <HAL_PCDEx_LPM_Callback+0x18>
 80080e2:	2b01      	cmp	r3, #1
 80080e4:	d013      	beq.n	800810e <HAL_PCDEx_LPM_Callback+0x3e>
 80080e6:	e023      	b.n	8008130 <HAL_PCDEx_LPM_Callback+0x60>
 80080e8:	687b      	ldr	r3, [r7, #4]
 80080ea:	699b      	ldr	r3, [r3, #24]
 80080ec:	2b00      	cmp	r3, #0
 80080ee:	d007      	beq.n	8008100 <HAL_PCDEx_LPM_Callback+0x30>
 80080f0:	f000 f83c 	bl	800816c <SystemClockConfig_Resume>
 80080f4:	4b10      	ldr	r3, [pc, #64]	; (8008138 <HAL_PCDEx_LPM_Callback+0x68>)
 80080f6:	691b      	ldr	r3, [r3, #16]
 80080f8:	4a0f      	ldr	r2, [pc, #60]	; (8008138 <HAL_PCDEx_LPM_Callback+0x68>)
 80080fa:	f023 0306 	bic.w	r3, r3, #6
 80080fe:	6113      	str	r3, [r2, #16]
 8008100:	687b      	ldr	r3, [r7, #4]
 8008102:	f8d3 3270 	ldr.w	r3, [r3, #624]	; 0x270
 8008106:	4618      	mov	r0, r3
 8008108:	f7fe fd26 	bl	8006b58 <USBD_LL_Resume>
 800810c:	e010      	b.n	8008130 <HAL_PCDEx_LPM_Callback+0x60>
 800810e:	687b      	ldr	r3, [r7, #4]
 8008110:	f8d3 3270 	ldr.w	r3, [r3, #624]	; 0x270
 8008114:	4618      	mov	r0, r3
 8008116:	f7fe fd0a 	bl	8006b2e <USBD_LL_Suspend>
 800811a:	687b      	ldr	r3, [r7, #4]
 800811c:	699b      	ldr	r3, [r3, #24]
 800811e:	2b00      	cmp	r3, #0
 8008120:	d005      	beq.n	800812e <HAL_PCDEx_LPM_Callback+0x5e>
 8008122:	4b05      	ldr	r3, [pc, #20]	; (8008138 <HAL_PCDEx_LPM_Callback+0x68>)
 8008124:	691b      	ldr	r3, [r3, #16]
 8008126:	4a04      	ldr	r2, [pc, #16]	; (8008138 <HAL_PCDEx_LPM_Callback+0x68>)
 8008128:	f043 0306 	orr.w	r3, r3, #6
 800812c:	6113      	str	r3, [r2, #16]
 800812e:	bf00      	nop
 8008130:	bf00      	nop
 8008132:	3708      	adds	r7, #8
 8008134:	46bd      	mov	sp, r7
 8008136:	bd80      	pop	{r7, pc}
 8008138:	e000ed00 	.word	0xe000ed00

0800813c <USBD_static_malloc>:
 800813c:	b480      	push	{r7}
 800813e:	b083      	sub	sp, #12
 8008140:	af00      	add	r7, sp, #0
 8008142:	6078      	str	r0, [r7, #4]
 8008144:	4b03      	ldr	r3, [pc, #12]	; (8008154 <USBD_static_malloc+0x18>)
 8008146:	4618      	mov	r0, r3
 8008148:	370c      	adds	r7, #12
 800814a:	46bd      	mov	sp, r7
 800814c:	f85d 7b04 	ldr.w	r7, [sp], #4
 8008150:	4770      	bx	lr
 8008152:	bf00      	nop
 8008154:	20001404 	.word	0x20001404

08008158 <USBD_static_free>:
 8008158:	b480      	push	{r7}
 800815a:	b083      	sub	sp, #12
 800815c:	af00      	add	r7, sp, #0
 800815e:	6078      	str	r0, [r7, #4]
 8008160:	bf00      	nop
 8008162:	370c      	adds	r7, #12
 8008164:	46bd      	mov	sp, r7
 8008166:	f85d 7b04 	ldr.w	r7, [sp], #4
 800816a:	4770      	bx	lr

0800816c <SystemClockConfig_Resume>:
 800816c:	b580      	push	{r7, lr}
 800816e:	af00      	add	r7, sp, #0
 8008170:	f7f8 f92a 	bl	80003c8 <SystemClock_Config>
 8008174:	bf00      	nop
 8008176:	bd80      	pop	{r7, pc}

08008178 <USBD_Get_USB_Status>:
 8008178:	b480      	push	{r7}
 800817a:	b085      	sub	sp, #20
 800817c:	af00      	add	r7, sp, #0
 800817e:	4603      	mov	r3, r0
 8008180:	71fb      	strb	r3, [r7, #7]
 8008182:	2300      	movs	r3, #0
 8008184:	73fb      	strb	r3, [r7, #15]
 8008186:	79fb      	ldrb	r3, [r7, #7]
 8008188:	2b03      	cmp	r3, #3
 800818a:	d817      	bhi.n	80081bc <USBD_Get_USB_Status+0x44>
 800818c:	a201      	add	r2, pc, #4	; (adr r2, 8008194 <USBD_Get_USB_Status+0x1c>)
 800818e:	f852 f023 	ldr.w	pc, [r2, r3, lsl #2]
 8008192:	bf00      	nop
 8008194:	080081a5 	.word	0x080081a5
 8008198:	080081ab 	.word	0x080081ab
 800819c:	080081b1 	.word	0x080081b1
 80081a0:	080081b7 	.word	0x080081b7
 80081a4:	2300      	movs	r3, #0
 80081a6:	73fb      	strb	r3, [r7, #15]
 80081a8:	e00b      	b.n	80081c2 <USBD_Get_USB_Status+0x4a>
 80081aa:	2302      	movs	r3, #2
 80081ac:	73fb      	strb	r3, [r7, #15]
 80081ae:	e008      	b.n	80081c2 <USBD_Get_USB_Status+0x4a>
 80081b0:	2301      	movs	r3, #1
 80081b2:	73fb      	strb	r3, [r7, #15]
 80081b4:	e005      	b.n	80081c2 <USBD_Get_USB_Status+0x4a>
 80081b6:	2302      	movs	r3, #2
 80081b8:	73fb      	strb	r3, [r7, #15]
 80081ba:	e002      	b.n	80081c2 <USBD_Get_USB_Status+0x4a>
 80081bc:	2302      	movs	r3, #2
 80081be:	73fb      	strb	r3, [r7, #15]
 80081c0:	bf00      	nop
 80081c2:	7bfb      	ldrb	r3, [r7, #15]
 80081c4:	4618      	mov	r0, r3
 80081c6:	3714      	adds	r7, #20
 80081c8:	46bd      	mov	sp, r7
 80081ca:	f85d 7b04 	ldr.w	r7, [sp], #4
 80081ce:	4770      	bx	lr

080081d0 <__libc_init_array>:
 80081d0:	b570      	push	{r4, r5, r6, lr}
 80081d2:	4e0d      	ldr	r6, [pc, #52]	; (8008208 <__libc_init_array+0x38>)
 80081d4:	4c0d      	ldr	r4, [pc, #52]	; (800820c <__libc_init_array+0x3c>)
 80081d6:	1ba4      	subs	r4, r4, r6
 80081d8:	10a4      	asrs	r4, r4, #2
 80081da:	2500      	movs	r5, #0
 80081dc:	42a5      	cmp	r5, r4
 80081de:	d109      	bne.n	80081f4 <__libc_init_array+0x24>
 80081e0:	4e0b      	ldr	r6, [pc, #44]	; (8008210 <__libc_init_array+0x40>)
 80081e2:	4c0c      	ldr	r4, [pc, #48]	; (8008214 <__libc_init_array+0x44>)
 80081e4:	f000 f820 	bl	8008228 <_init>
 80081e8:	1ba4      	subs	r4, r4, r6
 80081ea:	10a4      	asrs	r4, r4, #2
 80081ec:	2500      	movs	r5, #0
 80081ee:	42a5      	cmp	r5, r4
 80081f0:	d105      	bne.n	80081fe <__libc_init_array+0x2e>
 80081f2:	bd70      	pop	{r4, r5, r6, pc}
 80081f4:	f856 3025 	ldr.w	r3, [r6, r5, lsl #2]
 80081f8:	4798      	blx	r3
 80081fa:	3501      	adds	r5, #1
 80081fc:	e7ee      	b.n	80081dc <__libc_init_array+0xc>
 80081fe:	f856 3025 	ldr.w	r3, [r6, r5, lsl #2]
 8008202:	4798      	blx	r3
 8008204:	3501      	adds	r5, #1
 8008206:	e7f2      	b.n	80081ee <__libc_init_array+0x1e>
 8008208:	08008298 	.word	0x08008298
 800820c:	08008298 	.word	0x08008298
 8008210:	08008298 	.word	0x08008298
 8008214:	0800829c 	.word	0x0800829c

08008218 <memset>:
 8008218:	4402      	add	r2, r0
 800821a:	4603      	mov	r3, r0
 800821c:	4293      	cmp	r3, r2
 800821e:	d100      	bne.n	8008222 <memset+0xa>
 8008220:	4770      	bx	lr
 8008222:	f803 1b01 	strb.w	r1, [r3], #1
 8008226:	e7f9      	b.n	800821c <memset+0x4>

08008228 <_init>:
 8008228:	b5f8      	push	{r3, r4, r5, r6, r7, lr}
 800822a:	bf00      	nop
 800822c:	bcf8      	pop	{r3, r4, r5, r6, r7}
 800822e:	bc08      	pop	{r3}
 8008230:	469e      	mov	lr, r3
 8008232:	4770      	bx	lr

08008234 <_fini>:
 8008234:	b5f8      	push	{r3, r4, r5, r6, r7, lr}
 8008236:	bf00      	nop
 8008238:	bcf8      	pop	{r3, r4, r5, r6, r7}
 800823a:	bc08      	pop	{r3}
 800823c:	469e      	mov	lr, r3
 800823e:	4770      	bx	lr
